
H7A3_LCD35.elf:     file format elf32-littlearm

Sections:
Idx Name          Size      VMA       LMA       File off  Algn
  0 .isr_vector   000002ac  08000000  08000000  00010000  2**0
                  CONTENTS, ALLOC, LOAD, READONLY, DATA
  1 .text         00007dd0  080002ac  080002ac  000102ac  2**2
                  CONTENTS, ALLOC, LOAD, READONLY, CODE
  2 .rodata       00011848  0800807c  0800807c  0001807c  2**2
                  CONTENTS, ALLOC, LOAD, READONLY, DATA
  3 .ARM          00000008  080198c4  080198c4  000298c4  2**2
                  CONTENTS, ALLOC, LOAD, READONLY, DATA
  4 .init_array   00000004  080198cc  080198cc  000298cc  2**2
                  CONTENTS, ALLOC, LOAD, DATA
  5 .fini_array   00000004  080198d0  080198d0  000298d0  2**2
                  CONTENTS, ALLOC, LOAD, DATA
  6 .data         00000080  24000000  080198d4  00030000  2**2
                  CONTENTS, ALLOC, LOAD, DATA
  7 .bss          0000016c  24000080  08019954  00030080  2**3
                  ALLOC
  8 ._user_heap_stack 00000604  240001ec  08019954  000301ec  2**0
                  ALLOC
  9 .ARM.attributes 0000002e  00000000  00000000  00030080  2**0
                  CONTENTS, READONLY
 10 .debug_info   00018645  00000000  00000000  000300ae  2**0
                  CONTENTS, READONLY, DEBUGGING, OCTETS
 11 .debug_abbrev 00002cda  00000000  00000000  000486f3  2**0
                  CONTENTS, READONLY, DEBUGGING, OCTETS
 12 .debug_aranges 00001318  00000000  00000000  0004b3d0  2**3
                  CONTENTS, READONLY, DEBUGGING, OCTETS
 13 .debug_macro  00031194  00000000  00000000  0004c6e8  2**0
                  CONTENTS, READONLY, DEBUGGING, OCTETS
 14 .debug_line   00018a21  00000000  00000000  0007d87c  2**0
                  CONTENTS, READONLY, DEBUGGING, OCTETS
 15 .debug_str    00141f54  00000000  00000000  0009629d  2**0
                  CONTENTS, READONLY, DEBUGGING, OCTETS
 16 .comment      00000050  00000000  00000000  001d81f1  2**0
                  CONTENTS, READONLY
 17 .debug_ranges 000011d0  00000000  00000000  001d8248  2**3
                  CONTENTS, READONLY, DEBUGGING, OCTETS
 18 .debug_frame  00004fa4  00000000  00000000  001d9418  2**2
                  CONTENTS, READONLY, DEBUGGING, OCTETS

Disassembly of section .text:

080002ac <__do_global_dtors_aux>:
 80002ac:	b510      	push	{r4, lr}
 80002ae:	4c05      	ldr	r4, [pc, #20]	; (80002c4 <__do_global_dtors_aux+0x18>)
 80002b0:	7823      	ldrb	r3, [r4, #0]
 80002b2:	b933      	cbnz	r3, 80002c2 <__do_global_dtors_aux+0x16>
 80002b4:	4b04      	ldr	r3, [pc, #16]	; (80002c8 <__do_global_dtors_aux+0x1c>)
 80002b6:	b113      	cbz	r3, 80002be <__do_global_dtors_aux+0x12>
 80002b8:	4804      	ldr	r0, [pc, #16]	; (80002cc <__do_global_dtors_aux+0x20>)
 80002ba:	f3af 8000 	nop.w
 80002be:	2301      	movs	r3, #1
 80002c0:	7023      	strb	r3, [r4, #0]
 80002c2:	bd10      	pop	{r4, pc}
 80002c4:	24000080 	.word	0x24000080
 80002c8:	00000000 	.word	0x00000000
 80002cc:	08008064 	.word	0x08008064

080002d0 <frame_dummy>:
 80002d0:	b508      	push	{r3, lr}
 80002d2:	4b03      	ldr	r3, [pc, #12]	; (80002e0 <frame_dummy+0x10>)
 80002d4:	b11b      	cbz	r3, 80002de <frame_dummy+0xe>
 80002d6:	4903      	ldr	r1, [pc, #12]	; (80002e4 <frame_dummy+0x14>)
 80002d8:	4803      	ldr	r0, [pc, #12]	; (80002e8 <frame_dummy+0x18>)
 80002da:	f3af 8000 	nop.w
 80002de:	bd08      	pop	{r3, pc}
 80002e0:	00000000 	.word	0x00000000
 80002e4:	24000084 	.word	0x24000084
 80002e8:	08008064 	.word	0x08008064

080002ec <__aeabi_uldivmod>:
 80002ec:	b953      	cbnz	r3, 8000304 <__aeabi_uldivmod+0x18>
 80002ee:	b94a      	cbnz	r2, 8000304 <__aeabi_uldivmod+0x18>
 80002f0:	2900      	cmp	r1, #0
 80002f2:	bf08      	it	eq
 80002f4:	2800      	cmpeq	r0, #0
 80002f6:	bf1c      	itt	ne
 80002f8:	f04f 31ff 	movne.w	r1, #4294967295
 80002fc:	f04f 30ff 	movne.w	r0, #4294967295
 8000300:	f000 b974 	b.w	80005ec <__aeabi_idiv0>
 8000304:	f1ad 0c08 	sub.w	ip, sp, #8
 8000308:	e96d ce04 	strd	ip, lr, [sp, #-16]!
 800030c:	f000 f806 	bl	800031c <__udivmoddi4>
 8000310:	f8dd e004 	ldr.w	lr, [sp, #4]
 8000314:	e9dd 2302 	ldrd	r2, r3, [sp, #8]
 8000318:	b004      	add	sp, #16
 800031a:	4770      	bx	lr

0800031c <__udivmoddi4>:
 800031c:	e92d 47f0 	stmdb	sp!, {r4, r5, r6, r7, r8, r9, sl, lr}
 8000320:	9d08      	ldr	r5, [sp, #32]
 8000322:	4604      	mov	r4, r0
 8000324:	468e      	mov	lr, r1
 8000326:	2b00      	cmp	r3, #0
 8000328:	d14d      	bne.n	80003c6 <__udivmoddi4+0xaa>
 800032a:	428a      	cmp	r2, r1
 800032c:	4694      	mov	ip, r2
 800032e:	d969      	bls.n	8000404 <__udivmoddi4+0xe8>
 8000330:	fab2 f282 	clz	r2, r2
 8000334:	b152      	cbz	r2, 800034c <__udivmoddi4+0x30>
 8000336:	fa01 f302 	lsl.w	r3, r1, r2
 800033a:	f1c2 0120 	rsb	r1, r2, #32
 800033e:	fa20 f101 	lsr.w	r1, r0, r1
 8000342:	fa0c fc02 	lsl.w	ip, ip, r2
 8000346:	ea41 0e03 	orr.w	lr, r1, r3
 800034a:	4094      	lsls	r4, r2
 800034c:	ea4f 481c 	mov.w	r8, ip, lsr #16
 8000350:	0c21      	lsrs	r1, r4, #16
 8000352:	fbbe f6f8 	udiv	r6, lr, r8
 8000356:	fa1f f78c 	uxth.w	r7, ip
 800035a:	fb08 e316 	mls	r3, r8, r6, lr
 800035e:	ea41 4303 	orr.w	r3, r1, r3, lsl #16
 8000362:	fb06 f107 	mul.w	r1, r6, r7
 8000366:	4299      	cmp	r1, r3
 8000368:	d90a      	bls.n	8000380 <__udivmoddi4+0x64>
 800036a:	eb1c 0303 	adds.w	r3, ip, r3
 800036e:	f106 30ff 	add.w	r0, r6, #4294967295
 8000372:	f080 811f 	bcs.w	80005b4 <__udivmoddi4+0x298>
 8000376:	4299      	cmp	r1, r3
 8000378:	f240 811c 	bls.w	80005b4 <__udivmoddi4+0x298>
 800037c:	3e02      	subs	r6, #2
 800037e:	4463      	add	r3, ip
 8000380:	1a5b      	subs	r3, r3, r1
 8000382:	b2a4      	uxth	r4, r4
 8000384:	fbb3 f0f8 	udiv	r0, r3, r8
 8000388:	fb08 3310 	mls	r3, r8, r0, r3
 800038c:	ea44 4403 	orr.w	r4, r4, r3, lsl #16
 8000390:	fb00 f707 	mul.w	r7, r0, r7
 8000394:	42a7      	cmp	r7, r4
 8000396:	d90a      	bls.n	80003ae <__udivmoddi4+0x92>
 8000398:	eb1c 0404 	adds.w	r4, ip, r4
 800039c:	f100 33ff 	add.w	r3, r0, #4294967295
 80003a0:	f080 810a 	bcs.w	80005b8 <__udivmoddi4+0x29c>
 80003a4:	42a7      	cmp	r7, r4
 80003a6:	f240 8107 	bls.w	80005b8 <__udivmoddi4+0x29c>
 80003aa:	4464      	add	r4, ip
 80003ac:	3802      	subs	r0, #2
 80003ae:	ea40 4006 	orr.w	r0, r0, r6, lsl #16
 80003b2:	1be4      	subs	r4, r4, r7
 80003b4:	2600      	movs	r6, #0
 80003b6:	b11d      	cbz	r5, 80003c0 <__udivmoddi4+0xa4>
 80003b8:	40d4      	lsrs	r4, r2
 80003ba:	2300      	movs	r3, #0
 80003bc:	e9c5 4300 	strd	r4, r3, [r5]
 80003c0:	4631      	mov	r1, r6
 80003c2:	e8bd 87f0 	ldmia.w	sp!, {r4, r5, r6, r7, r8, r9, sl, pc}
 80003c6:	428b      	cmp	r3, r1
 80003c8:	d909      	bls.n	80003de <__udivmoddi4+0xc2>
 80003ca:	2d00      	cmp	r5, #0
 80003cc:	f000 80ef 	beq.w	80005ae <__udivmoddi4+0x292>
 80003d0:	2600      	movs	r6, #0
 80003d2:	e9c5 0100 	strd	r0, r1, [r5]
 80003d6:	4630      	mov	r0, r6
 80003d8:	4631      	mov	r1, r6
 80003da:	e8bd 87f0 	ldmia.w	sp!, {r4, r5, r6, r7, r8, r9, sl, pc}
 80003de:	fab3 f683 	clz	r6, r3
 80003e2:	2e00      	cmp	r6, #0
 80003e4:	d14a      	bne.n	800047c <__udivmoddi4+0x160>
 80003e6:	428b      	cmp	r3, r1
 80003e8:	d302      	bcc.n	80003f0 <__udivmoddi4+0xd4>
 80003ea:	4282      	cmp	r2, r0
 80003ec:	f200 80f9 	bhi.w	80005e2 <__udivmoddi4+0x2c6>
 80003f0:	1a84      	subs	r4, r0, r2
 80003f2:	eb61 0303 	sbc.w	r3, r1, r3
 80003f6:	2001      	movs	r0, #1
 80003f8:	469e      	mov	lr, r3
 80003fa:	2d00      	cmp	r5, #0
 80003fc:	d0e0      	beq.n	80003c0 <__udivmoddi4+0xa4>
 80003fe:	e9c5 4e00 	strd	r4, lr, [r5]
 8000402:	e7dd      	b.n	80003c0 <__udivmoddi4+0xa4>
 8000404:	b902      	cbnz	r2, 8000408 <__udivmoddi4+0xec>
 8000406:	deff      	udf	#255	; 0xff
 8000408:	fab2 f282 	clz	r2, r2
 800040c:	2a00      	cmp	r2, #0
 800040e:	f040 8092 	bne.w	8000536 <__udivmoddi4+0x21a>
 8000412:	eba1 010c 	sub.w	r1, r1, ip
 8000416:	ea4f 471c 	mov.w	r7, ip, lsr #16
 800041a:	fa1f fe8c 	uxth.w	lr, ip
 800041e:	2601      	movs	r6, #1
 8000420:	0c20      	lsrs	r0, r4, #16
 8000422:	fbb1 f3f7 	udiv	r3, r1, r7
 8000426:	fb07 1113 	mls	r1, r7, r3, r1
 800042a:	ea40 4101 	orr.w	r1, r0, r1, lsl #16
 800042e:	fb0e f003 	mul.w	r0, lr, r3
 8000432:	4288      	cmp	r0, r1
 8000434:	d908      	bls.n	8000448 <__udivmoddi4+0x12c>
 8000436:	eb1c 0101 	adds.w	r1, ip, r1
 800043a:	f103 38ff 	add.w	r8, r3, #4294967295
 800043e:	d202      	bcs.n	8000446 <__udivmoddi4+0x12a>
 8000440:	4288      	cmp	r0, r1
 8000442:	f200 80cb 	bhi.w	80005dc <__udivmoddi4+0x2c0>
 8000446:	4643      	mov	r3, r8
 8000448:	1a09      	subs	r1, r1, r0
 800044a:	b2a4      	uxth	r4, r4
 800044c:	fbb1 f0f7 	udiv	r0, r1, r7
 8000450:	fb07 1110 	mls	r1, r7, r0, r1
 8000454:	ea44 4401 	orr.w	r4, r4, r1, lsl #16
 8000458:	fb0e fe00 	mul.w	lr, lr, r0
 800045c:	45a6      	cmp	lr, r4
 800045e:	d908      	bls.n	8000472 <__udivmoddi4+0x156>
 8000460:	eb1c 0404 	adds.w	r4, ip, r4
 8000464:	f100 31ff 	add.w	r1, r0, #4294967295
 8000468:	d202      	bcs.n	8000470 <__udivmoddi4+0x154>
 800046a:	45a6      	cmp	lr, r4
 800046c:	f200 80bb 	bhi.w	80005e6 <__udivmoddi4+0x2ca>
 8000470:	4608      	mov	r0, r1
 8000472:	eba4 040e 	sub.w	r4, r4, lr
 8000476:	ea40 4003 	orr.w	r0, r0, r3, lsl #16
 800047a:	e79c      	b.n	80003b6 <__udivmoddi4+0x9a>
 800047c:	f1c6 0720 	rsb	r7, r6, #32
 8000480:	40b3      	lsls	r3, r6
 8000482:	fa22 fc07 	lsr.w	ip, r2, r7
 8000486:	ea4c 0c03 	orr.w	ip, ip, r3
 800048a:	fa20 f407 	lsr.w	r4, r0, r7
 800048e:	fa01 f306 	lsl.w	r3, r1, r6
 8000492:	431c      	orrs	r4, r3
 8000494:	40f9      	lsrs	r1, r7
 8000496:	ea4f 491c 	mov.w	r9, ip, lsr #16
 800049a:	fa00 f306 	lsl.w	r3, r0, r6
 800049e:	fbb1 f8f9 	udiv	r8, r1, r9
 80004a2:	0c20      	lsrs	r0, r4, #16
 80004a4:	fa1f fe8c 	uxth.w	lr, ip
 80004a8:	fb09 1118 	mls	r1, r9, r8, r1
 80004ac:	ea40 4101 	orr.w	r1, r0, r1, lsl #16
 80004b0:	fb08 f00e 	mul.w	r0, r8, lr
 80004b4:	4288      	cmp	r0, r1
 80004b6:	fa02 f206 	lsl.w	r2, r2, r6
 80004ba:	d90b      	bls.n	80004d4 <__udivmoddi4+0x1b8>
 80004bc:	eb1c 0101 	adds.w	r1, ip, r1
 80004c0:	f108 3aff 	add.w	sl, r8, #4294967295
 80004c4:	f080 8088 	bcs.w	80005d8 <__udivmoddi4+0x2bc>
 80004c8:	4288      	cmp	r0, r1
 80004ca:	f240 8085 	bls.w	80005d8 <__udivmoddi4+0x2bc>
 80004ce:	f1a8 0802 	sub.w	r8, r8, #2
 80004d2:	4461      	add	r1, ip
 80004d4:	1a09      	subs	r1, r1, r0
 80004d6:	b2a4      	uxth	r4, r4
 80004d8:	fbb1 f0f9 	udiv	r0, r1, r9
 80004dc:	fb09 1110 	mls	r1, r9, r0, r1
 80004e0:	ea44 4101 	orr.w	r1, r4, r1, lsl #16
 80004e4:	fb00 fe0e 	mul.w	lr, r0, lr
 80004e8:	458e      	cmp	lr, r1
 80004ea:	d908      	bls.n	80004fe <__udivmoddi4+0x1e2>
 80004ec:	eb1c 0101 	adds.w	r1, ip, r1
 80004f0:	f100 34ff 	add.w	r4, r0, #4294967295
 80004f4:	d26c      	bcs.n	80005d0 <__udivmoddi4+0x2b4>
 80004f6:	458e      	cmp	lr, r1
 80004f8:	d96a      	bls.n	80005d0 <__udivmoddi4+0x2b4>
 80004fa:	3802      	subs	r0, #2
 80004fc:	4461      	add	r1, ip
 80004fe:	ea40 4008 	orr.w	r0, r0, r8, lsl #16
 8000502:	fba0 9402 	umull	r9, r4, r0, r2
 8000506:	eba1 010e 	sub.w	r1, r1, lr
 800050a:	42a1      	cmp	r1, r4
 800050c:	46c8      	mov	r8, r9
 800050e:	46a6      	mov	lr, r4
 8000510:	d356      	bcc.n	80005c0 <__udivmoddi4+0x2a4>
 8000512:	d053      	beq.n	80005bc <__udivmoddi4+0x2a0>
 8000514:	b15d      	cbz	r5, 800052e <__udivmoddi4+0x212>
 8000516:	ebb3 0208 	subs.w	r2, r3, r8
 800051a:	eb61 010e 	sbc.w	r1, r1, lr
 800051e:	fa01 f707 	lsl.w	r7, r1, r7
 8000522:	fa22 f306 	lsr.w	r3, r2, r6
 8000526:	40f1      	lsrs	r1, r6
 8000528:	431f      	orrs	r7, r3
 800052a:	e9c5 7100 	strd	r7, r1, [r5]
 800052e:	2600      	movs	r6, #0
 8000530:	4631      	mov	r1, r6
 8000532:	e8bd 87f0 	ldmia.w	sp!, {r4, r5, r6, r7, r8, r9, sl, pc}
 8000536:	f1c2 0320 	rsb	r3, r2, #32
 800053a:	40d8      	lsrs	r0, r3
 800053c:	fa0c fc02 	lsl.w	ip, ip, r2
 8000540:	fa21 f303 	lsr.w	r3, r1, r3
 8000544:	4091      	lsls	r1, r2
 8000546:	4301      	orrs	r1, r0
 8000548:	ea4f 471c 	mov.w	r7, ip, lsr #16
 800054c:	fa1f fe8c 	uxth.w	lr, ip
 8000550:	fbb3 f0f7 	udiv	r0, r3, r7
 8000554:	fb07 3610 	mls	r6, r7, r0, r3
 8000558:	0c0b      	lsrs	r3, r1, #16
 800055a:	ea43 4306 	orr.w	r3, r3, r6, lsl #16
 800055e:	fb00 f60e 	mul.w	r6, r0, lr
 8000562:	429e      	cmp	r6, r3
 8000564:	fa04 f402 	lsl.w	r4, r4, r2
 8000568:	d908      	bls.n	800057c <__udivmoddi4+0x260>
 800056a:	eb1c 0303 	adds.w	r3, ip, r3
 800056e:	f100 38ff 	add.w	r8, r0, #4294967295
 8000572:	d22f      	bcs.n	80005d4 <__udivmoddi4+0x2b8>
 8000574:	429e      	cmp	r6, r3
 8000576:	d92d      	bls.n	80005d4 <__udivmoddi4+0x2b8>
 8000578:	3802      	subs	r0, #2
 800057a:	4463      	add	r3, ip
 800057c:	1b9b      	subs	r3, r3, r6
 800057e:	b289      	uxth	r1, r1
 8000580:	fbb3 f6f7 	udiv	r6, r3, r7
 8000584:	fb07 3316 	mls	r3, r7, r6, r3
 8000588:	ea41 4103 	orr.w	r1, r1, r3, lsl #16
 800058c:	fb06 f30e 	mul.w	r3, r6, lr
 8000590:	428b      	cmp	r3, r1
 8000592:	d908      	bls.n	80005a6 <__udivmoddi4+0x28a>
 8000594:	eb1c 0101 	adds.w	r1, ip, r1
 8000598:	f106 38ff 	add.w	r8, r6, #4294967295
 800059c:	d216      	bcs.n	80005cc <__udivmoddi4+0x2b0>
 800059e:	428b      	cmp	r3, r1
 80005a0:	d914      	bls.n	80005cc <__udivmoddi4+0x2b0>
 80005a2:	3e02      	subs	r6, #2
 80005a4:	4461      	add	r1, ip
 80005a6:	1ac9      	subs	r1, r1, r3
 80005a8:	ea46 4600 	orr.w	r6, r6, r0, lsl #16
 80005ac:	e738      	b.n	8000420 <__udivmoddi4+0x104>
 80005ae:	462e      	mov	r6, r5
 80005b0:	4628      	mov	r0, r5
 80005b2:	e705      	b.n	80003c0 <__udivmoddi4+0xa4>
 80005b4:	4606      	mov	r6, r0
 80005b6:	e6e3      	b.n	8000380 <__udivmoddi4+0x64>
 80005b8:	4618      	mov	r0, r3
 80005ba:	e6f8      	b.n	80003ae <__udivmoddi4+0x92>
 80005bc:	454b      	cmp	r3, r9
 80005be:	d2a9      	bcs.n	8000514 <__udivmoddi4+0x1f8>
 80005c0:	ebb9 0802 	subs.w	r8, r9, r2
 80005c4:	eb64 0e0c 	sbc.w	lr, r4, ip
 80005c8:	3801      	subs	r0, #1
 80005ca:	e7a3      	b.n	8000514 <__udivmoddi4+0x1f8>
 80005cc:	4646      	mov	r6, r8
 80005ce:	e7ea      	b.n	80005a6 <__udivmoddi4+0x28a>
 80005d0:	4620      	mov	r0, r4
 80005d2:	e794      	b.n	80004fe <__udivmoddi4+0x1e2>
 80005d4:	4640      	mov	r0, r8
 80005d6:	e7d1      	b.n	800057c <__udivmoddi4+0x260>
 80005d8:	46d0      	mov	r8, sl
 80005da:	e77b      	b.n	80004d4 <__udivmoddi4+0x1b8>
 80005dc:	3b02      	subs	r3, #2
 80005de:	4461      	add	r1, ip
 80005e0:	e732      	b.n	8000448 <__udivmoddi4+0x12c>
 80005e2:	4630      	mov	r0, r6
 80005e4:	e709      	b.n	80003fa <__udivmoddi4+0xde>
 80005e6:	4464      	add	r4, ip
 80005e8:	3802      	subs	r0, #2
 80005ea:	e742      	b.n	8000472 <__udivmoddi4+0x156>

080005ec <__aeabi_idiv0>:
 80005ec:	4770      	bx	lr
 80005ee:	bf00      	nop

080005f0 <ili9486_DisplayOn>:
  * @brief  Enables the Display.
  * @param  None
  * @retval None
  */
void ili9486_DisplayOn(void)
{
 80005f0:	b580      	push	{r7, lr}
 80005f2:	af00      	add	r7, sp, #0
  ILI9486_LCDMUTEX_PUSH();
  LCD_IO_WriteCmd8(ILI9486_SLPOUT);    // Exit Sleep
 80005f4:	2011      	movs	r0, #17
 80005f6:	f000 fe1d 	bl	8001234 <LCD_IO_WriteCmd8>
  ILI9486_LCDMUTEX_POP();
  LCD_IO_Bl_OnOff(1);
 80005fa:	2001      	movs	r0, #1
 80005fc:	f000 fd24 	bl	8001048 <LCD_IO_Bl_OnOff>
}
 8000600:	bf00      	nop
 8000602:	bd80      	pop	{r7, pc}

08000604 <ili9486_DisplayOff>:
  * @brief  Disables the Display.
  * @param  None
  * @retval None
  */
void ili9486_DisplayOff(void)
{
 8000604:	b580      	push	{r7, lr}
 8000606:	af00      	add	r7, sp, #0
  LCD_IO_Bl_OnOff(0);
 8000608:	2000      	movs	r0, #0
 800060a:	f000 fd1d 	bl	8001048 <LCD_IO_Bl_OnOff>
  ILI9486_LCDMUTEX_PUSH();
  LCD_IO_WriteCmd8(ILI9486_SLPIN);    // Sleep
 800060e:	2010      	movs	r0, #16
 8000610:	f000 fe10 	bl	8001234 <LCD_IO_WriteCmd8>
  ILI9486_LCDMUTEX_POP();
}
 8000614:	bf00      	nop
 8000616:	bd80      	pop	{r7, pc}

08000618 <ili9486_GetLcdPixelWidth>:
  * @brief  Get the LCD pixel Width.
  * @param  None
  * @retval The Lcd Pixel Width
  */
uint16_t ili9486_GetLcdPixelWidth(void)
{
 8000618:	b480      	push	{r7}
 800061a:	af00      	add	r7, sp, #0
  return ILI9486_SIZE_X;
 800061c:	f44f 73f0 	mov.w	r3, #480	; 0x1e0
}
 8000620:	4618      	mov	r0, r3
 8000622:	46bd      	mov	sp, r7
 8000624:	f85d 7b04 	ldr.w	r7, [sp], #4
 8000628:	4770      	bx	lr

0800062a <ili9486_GetLcdPixelHeight>:
  * @brief  Get the LCD pixel Height.
  * @param  None
  * @retval The Lcd Pixel Height
  */
uint16_t ili9486_GetLcdPixelHeight(void)
{
 800062a:	b480      	push	{r7}
 800062c:	af00      	add	r7, sp, #0
  return ILI9486_SIZE_Y;
 800062e:	f44f 73a0 	mov.w	r3, #320	; 0x140
}
 8000632:	4618      	mov	r0, r3
 8000634:	46bd      	mov	sp, r7
 8000636:	f85d 7b04 	ldr.w	r7, [sp], #4
 800063a:	4770      	bx	lr

0800063c <ili9486_ReadID>:
  * @brief  Get the ILI9486 ID.
  * @param  None
  * @retval The ILI9486 ID
  */
uint16_t ili9486_ReadID(void)
{
 800063c:	b580      	push	{r7, lr}
 800063e:	b082      	sub	sp, #8
 8000640:	af00      	add	r7, sp, #0
  uint32_t id = 0;
 8000642:	2300      	movs	r3, #0
 8000644:	607b      	str	r3, [r7, #4]
  ILI9486_LCDMUTEX_PUSH();
  LCD_IO_ReadCmd8MultipleData8(0xD3, (uint8_t *)&id, 3, 1);
 8000646:	1d39      	adds	r1, r7, #4
 8000648:	2301      	movs	r3, #1
 800064a:	2203      	movs	r2, #3
 800064c:	20d3      	movs	r0, #211	; 0xd3
 800064e:	f001 fd41 	bl	80020d4 <LCD_IO_ReadCmd8MultipleData8>
  ILI9486_LCDMUTEX_POP();
  if(id == 0x869400)
 8000652:	687b      	ldr	r3, [r7, #4]
 8000654:	4a05      	ldr	r2, [pc, #20]	; (800066c <ili9486_ReadID+0x30>)
 8000656:	4293      	cmp	r3, r2
 8000658:	d102      	bne.n	8000660 <ili9486_ReadID+0x24>
    return 0x9486;
 800065a:	f249 4386 	movw	r3, #38022	; 0x9486
 800065e:	e000      	b.n	8000662 <ili9486_ReadID+0x26>
  else
    return 0;
 8000660:	2300      	movs	r3, #0
}
 8000662:	4618      	mov	r0, r3
 8000664:	3708      	adds	r7, #8
 8000666:	46bd      	mov	sp, r7
 8000668:	bd80      	pop	{r7, pc}
 800066a:	bf00      	nop
 800066c:	00869400 	.word	0x00869400

08000670 <ili9486_Init>:
  * @brief  ILI9486 initialization
  * @param  None
  * @retval None
  */
void ili9486_Init(void)
{
 8000670:	b580      	push	{r7, lr}
 8000672:	af00      	add	r7, sp, #0
  if((Is_ili9486_Initialized & ILI9486_LCD_INITIALIZED) == 0)
 8000674:	4b33      	ldr	r3, [pc, #204]	; (8000744 <ili9486_Init+0xd4>)
 8000676:	781b      	ldrb	r3, [r3, #0]
 8000678:	f003 0301 	and.w	r3, r3, #1
 800067c:	2b00      	cmp	r3, #0
 800067e:	d115      	bne.n	80006ac <ili9486_Init+0x3c>
  {
    Is_ili9486_Initialized |= ILI9486_LCD_INITIALIZED;
 8000680:	4b30      	ldr	r3, [pc, #192]	; (8000744 <ili9486_Init+0xd4>)
 8000682:	781b      	ldrb	r3, [r3, #0]
 8000684:	f043 0301 	orr.w	r3, r3, #1
 8000688:	b2da      	uxtb	r2, r3
 800068a:	4b2e      	ldr	r3, [pc, #184]	; (8000744 <ili9486_Init+0xd4>)
 800068c:	701a      	strb	r2, [r3, #0]
    if((Is_ili9486_Initialized & ILI9486_IO_INITIALIZED) == 0)
 800068e:	4b2d      	ldr	r3, [pc, #180]	; (8000744 <ili9486_Init+0xd4>)
 8000690:	781b      	ldrb	r3, [r3, #0]
 8000692:	f003 0302 	and.w	r3, r3, #2
 8000696:	2b00      	cmp	r3, #0
 8000698:	d101      	bne.n	800069e <ili9486_Init+0x2e>
      LCD_IO_Init();
 800069a:	f000 fce1 	bl	8001060 <LCD_IO_Init>
    Is_ili9486_Initialized |= ILI9486_IO_INITIALIZED;
 800069e:	4b29      	ldr	r3, [pc, #164]	; (8000744 <ili9486_Init+0xd4>)
 80006a0:	781b      	ldrb	r3, [r3, #0]
 80006a2:	f043 0302 	orr.w	r3, r3, #2
 80006a6:	b2da      	uxtb	r2, r3
 80006a8:	4b26      	ldr	r3, [pc, #152]	; (8000744 <ili9486_Init+0xd4>)
 80006aa:	701a      	strb	r2, [r3, #0]
  }
  LCD_Delay(10);
 80006ac:	200a      	movs	r0, #10
 80006ae:	f000 fcc0 	bl	8001032 <LCD_Delay>
  LCD_IO_WriteCmd8(ILI9486_SWRESET);
 80006b2:	2001      	movs	r0, #1
 80006b4:	f000 fdbe 	bl	8001234 <LCD_IO_WriteCmd8>
  LCD_Delay(100);
 80006b8:	2064      	movs	r0, #100	; 0x64
 80006ba:	f000 fcba 	bl	8001032 <LCD_Delay>

  LCD_IO_WriteCmd8MultipleData8(ILI9486_RGB_INTERFACE, (uint8_t *)"\x00", 1); // RGB mode off (0xB0)
 80006be:	2201      	movs	r2, #1
 80006c0:	4921      	ldr	r1, [pc, #132]	; (8000748 <ili9486_Init+0xd8>)
 80006c2:	20b0      	movs	r0, #176	; 0xb0
 80006c4:	f001 f9fa 	bl	8001abc <LCD_IO_WriteCmd8MultipleData8>
  LCD_IO_WriteCmd8(ILI9486_SLPOUT);    // Exit Sleep (0x11)
 80006c8:	2011      	movs	r0, #17
 80006ca:	f000 fdb3 	bl	8001234 <LCD_IO_WriteCmd8>
  LCD_Delay(10);
 80006ce:	200a      	movs	r0, #10
 80006d0:	f000 fcaf 	bl	8001032 <LCD_Delay>

  LCD_IO_WriteCmd8MultipleData8(ILI9486_PIXFMT, (uint8_t *)"\x55", 1); // interface format (0x3A)
 80006d4:	2201      	movs	r2, #1
 80006d6:	491d      	ldr	r1, [pc, #116]	; (800074c <ili9486_Init+0xdc>)
 80006d8:	203a      	movs	r0, #58	; 0x3a
 80006da:	f001 f9ef 	bl	8001abc <LCD_IO_WriteCmd8MultipleData8>

  LCD_IO_WriteCmd8(ILI9486_MADCTL); LCD_IO_WriteData8(ILI9486_MAD_DATA_RIGHT_THEN_DOWN);
 80006de:	2036      	movs	r0, #54	; 0x36
 80006e0:	f000 fda8 	bl	8001234 <LCD_IO_WriteCmd8>
 80006e4:	2028      	movs	r0, #40	; 0x28
 80006e6:	f000 fe4f 	bl	8001388 <LCD_IO_WriteData8>

  LCD_IO_WriteCmd8MultipleData8(ILI9486_PWCTR3, (uint8_t *)"\x44", 1); // 0xC2
 80006ea:	2201      	movs	r2, #1
 80006ec:	4918      	ldr	r1, [pc, #96]	; (8000750 <ili9486_Init+0xe0>)
 80006ee:	20c2      	movs	r0, #194	; 0xc2
 80006f0:	f001 f9e4 	bl	8001abc <LCD_IO_WriteCmd8MultipleData8>
  LCD_IO_WriteCmd8MultipleData8(ILI9486_VMCTR1, (uint8_t *)"\x00\x00\x00\x00", 4); // 0xC5
 80006f4:	2204      	movs	r2, #4
 80006f6:	4917      	ldr	r1, [pc, #92]	; (8000754 <ili9486_Init+0xe4>)
 80006f8:	20c5      	movs	r0, #197	; 0xc5
 80006fa:	f001 f9df 	bl	8001abc <LCD_IO_WriteCmd8MultipleData8>

  // positive gamma control (0xE0)
  LCD_IO_WriteCmd8MultipleData8(ILI9486_GMCTRP1, (uint8_t *)"\x0F\x1F\x1C\x0C\x0F\x08\x48\x98\x37\x0A\x13\x04\x11\x0D\x00", 15);
 80006fe:	220f      	movs	r2, #15
 8000700:	4915      	ldr	r1, [pc, #84]	; (8000758 <ili9486_Init+0xe8>)
 8000702:	20e0      	movs	r0, #224	; 0xe0
 8000704:	f001 f9da 	bl	8001abc <LCD_IO_WriteCmd8MultipleData8>

  // negative gamma control (0xE1)
  LCD_IO_WriteCmd8MultipleData8(ILI9486_GMCTRN1, (uint8_t *)"\x0F\x32\x2E\x0B\x0D\x05\x47\x75\x37\x06\x10\x03\x24\x20\x00", 15);
 8000708:	220f      	movs	r2, #15
 800070a:	4914      	ldr	r1, [pc, #80]	; (800075c <ili9486_Init+0xec>)
 800070c:	20e1      	movs	r0, #225	; 0xe1
 800070e:	f001 f9d5 	bl	8001abc <LCD_IO_WriteCmd8MultipleData8>

  // Digital gamma control1 (0xE2)
  LCD_IO_WriteCmd8MultipleData8(ILI9486_DGCTR1, (uint8_t *)"\x0F\x32\x2E\x0B\x0D\x05\x47\x75\x37\x06\x10\x03\x24\x20\x00", 15);
 8000712:	220f      	movs	r2, #15
 8000714:	4911      	ldr	r1, [pc, #68]	; (800075c <ili9486_Init+0xec>)
 8000716:	20e2      	movs	r0, #226	; 0xe2
 8000718:	f001 f9d0 	bl	8001abc <LCD_IO_WriteCmd8MultipleData8>

  LCD_IO_WriteCmd8(ILI9486_NORON);     // Normal display on (0x13)
 800071c:	2013      	movs	r0, #19
 800071e:	f000 fd89 	bl	8001234 <LCD_IO_WriteCmd8>
  LCD_IO_WriteCmd8(ILI9486_INVOFF);    // Display inversion off (0x20)
 8000722:	2020      	movs	r0, #32
 8000724:	f000 fd86 	bl	8001234 <LCD_IO_WriteCmd8>
  LCD_IO_WriteCmd8(ILI9486_SLPOUT);    // Exit Sleep (0x11)
 8000728:	2011      	movs	r0, #17
 800072a:	f000 fd83 	bl	8001234 <LCD_IO_WriteCmd8>
  LCD_Delay(200);
 800072e:	20c8      	movs	r0, #200	; 0xc8
 8000730:	f000 fc7f 	bl	8001032 <LCD_Delay>
  LCD_IO_WriteCmd8(ILI9486_DISPON);    // Display on (0x29)
 8000734:	2029      	movs	r0, #41	; 0x29
 8000736:	f000 fd7d 	bl	8001234 <LCD_IO_WriteCmd8>
  LCD_Delay(10);
 800073a:	200a      	movs	r0, #10
 800073c:	f000 fc79 	bl	8001032 <LCD_Delay>
}
 8000740:	bf00      	nop
 8000742:	bd80      	pop	{r7, pc}
 8000744:	2400009c 	.word	0x2400009c
 8000748:	0800807c 	.word	0x0800807c
 800074c:	08008080 	.word	0x08008080
 8000750:	08008084 	.word	0x08008084
 8000754:	08008088 	.word	0x08008088
 8000758:	08008090 	.word	0x08008090
 800075c:	080080a0 	.word	0x080080a0

08000760 <ili9486_SetCursor>:
  * @param  Xpos: specifies the X position.
  * @param  Ypos: specifies the Y position.
  * @retval None
  */
void ili9486_SetCursor(uint16_t Xpos, uint16_t Ypos)
{
 8000760:	b580      	push	{r7, lr}
 8000762:	b082      	sub	sp, #8
 8000764:	af00      	add	r7, sp, #0
 8000766:	4603      	mov	r3, r0
 8000768:	460a      	mov	r2, r1
 800076a:	80fb      	strh	r3, [r7, #6]
 800076c:	4613      	mov	r3, r2
 800076e:	80bb      	strh	r3, [r7, #4]
  ILI9486_LCDMUTEX_PUSH();
  ILI9486_SETCURSOR(Xpos, Ypos);
 8000770:	202a      	movs	r0, #42	; 0x2a
 8000772:	f000 fd5f 	bl	8001234 <LCD_IO_WriteCmd8>
 8000776:	88fb      	ldrh	r3, [r7, #6]
 8000778:	0a1b      	lsrs	r3, r3, #8
 800077a:	b29b      	uxth	r3, r3
 800077c:	b2db      	uxtb	r3, r3
 800077e:	4618      	mov	r0, r3
 8000780:	f000 fe02 	bl	8001388 <LCD_IO_WriteData8>
 8000784:	88fb      	ldrh	r3, [r7, #6]
 8000786:	b2db      	uxtb	r3, r3
 8000788:	4618      	mov	r0, r3
 800078a:	f000 fdfd 	bl	8001388 <LCD_IO_WriteData8>
 800078e:	88fb      	ldrh	r3, [r7, #6]
 8000790:	0a1b      	lsrs	r3, r3, #8
 8000792:	b29b      	uxth	r3, r3
 8000794:	b2db      	uxtb	r3, r3
 8000796:	4618      	mov	r0, r3
 8000798:	f000 fdf6 	bl	8001388 <LCD_IO_WriteData8>
 800079c:	88fb      	ldrh	r3, [r7, #6]
 800079e:	b2db      	uxtb	r3, r3
 80007a0:	4618      	mov	r0, r3
 80007a2:	f000 fdf1 	bl	8001388 <LCD_IO_WriteData8>
 80007a6:	202b      	movs	r0, #43	; 0x2b
 80007a8:	f000 fd44 	bl	8001234 <LCD_IO_WriteCmd8>
 80007ac:	88bb      	ldrh	r3, [r7, #4]
 80007ae:	0a1b      	lsrs	r3, r3, #8
 80007b0:	b29b      	uxth	r3, r3
 80007b2:	b2db      	uxtb	r3, r3
 80007b4:	4618      	mov	r0, r3
 80007b6:	f000 fde7 	bl	8001388 <LCD_IO_WriteData8>
 80007ba:	88bb      	ldrh	r3, [r7, #4]
 80007bc:	b2db      	uxtb	r3, r3
 80007be:	4618      	mov	r0, r3
 80007c0:	f000 fde2 	bl	8001388 <LCD_IO_WriteData8>
 80007c4:	88bb      	ldrh	r3, [r7, #4]
 80007c6:	0a1b      	lsrs	r3, r3, #8
 80007c8:	b29b      	uxth	r3, r3
 80007ca:	b2db      	uxtb	r3, r3
 80007cc:	4618      	mov	r0, r3
 80007ce:	f000 fddb 	bl	8001388 <LCD_IO_WriteData8>
 80007d2:	88bb      	ldrh	r3, [r7, #4]
 80007d4:	b2db      	uxtb	r3, r3
 80007d6:	4618      	mov	r0, r3
 80007d8:	f000 fdd6 	bl	8001388 <LCD_IO_WriteData8>
  ILI9486_LCDMUTEX_POP();
}
 80007dc:	bf00      	nop
 80007de:	3708      	adds	r7, #8
 80007e0:	46bd      	mov	sp, r7
 80007e2:	bd80      	pop	{r7, pc}

080007e4 <ili9486_WritePixel>:
  * @param  Ypos: specifies the Y position.
  * @param  RGBCode: the RGB pixel color
  * @retval None
  */
void ili9486_WritePixel(uint16_t Xpos, uint16_t Ypos, uint16_t RGBCode)
{
 80007e4:	b580      	push	{r7, lr}
 80007e6:	b082      	sub	sp, #8
 80007e8:	af00      	add	r7, sp, #0
 80007ea:	4603      	mov	r3, r0
 80007ec:	80fb      	strh	r3, [r7, #6]
 80007ee:	460b      	mov	r3, r1
 80007f0:	80bb      	strh	r3, [r7, #4]
 80007f2:	4613      	mov	r3, r2
 80007f4:	807b      	strh	r3, [r7, #2]
  ILI9486_LCDMUTEX_PUSH();
  ILI9486_SETCURSOR(Xpos, Ypos);
 80007f6:	202a      	movs	r0, #42	; 0x2a
 80007f8:	f000 fd1c 	bl	8001234 <LCD_IO_WriteCmd8>
 80007fc:	88fb      	ldrh	r3, [r7, #6]
 80007fe:	0a1b      	lsrs	r3, r3, #8
 8000800:	b29b      	uxth	r3, r3
 8000802:	b2db      	uxtb	r3, r3
 8000804:	4618      	mov	r0, r3
 8000806:	f000 fdbf 	bl	8001388 <LCD_IO_WriteData8>
 800080a:	88fb      	ldrh	r3, [r7, #6]
 800080c:	b2db      	uxtb	r3, r3
 800080e:	4618      	mov	r0, r3
 8000810:	f000 fdba 	bl	8001388 <LCD_IO_WriteData8>
 8000814:	88fb      	ldrh	r3, [r7, #6]
 8000816:	0a1b      	lsrs	r3, r3, #8
 8000818:	b29b      	uxth	r3, r3
 800081a:	b2db      	uxtb	r3, r3
 800081c:	4618      	mov	r0, r3
 800081e:	f000 fdb3 	bl	8001388 <LCD_IO_WriteData8>
 8000822:	88fb      	ldrh	r3, [r7, #6]
 8000824:	b2db      	uxtb	r3, r3
 8000826:	4618      	mov	r0, r3
 8000828:	f000 fdae 	bl	8001388 <LCD_IO_WriteData8>
 800082c:	202b      	movs	r0, #43	; 0x2b
 800082e:	f000 fd01 	bl	8001234 <LCD_IO_WriteCmd8>
 8000832:	88bb      	ldrh	r3, [r7, #4]
 8000834:	0a1b      	lsrs	r3, r3, #8
 8000836:	b29b      	uxth	r3, r3
 8000838:	b2db      	uxtb	r3, r3
 800083a:	4618      	mov	r0, r3
 800083c:	f000 fda4 	bl	8001388 <LCD_IO_WriteData8>
 8000840:	88bb      	ldrh	r3, [r7, #4]
 8000842:	b2db      	uxtb	r3, r3
 8000844:	4618      	mov	r0, r3
 8000846:	f000 fd9f 	bl	8001388 <LCD_IO_WriteData8>
 800084a:	88bb      	ldrh	r3, [r7, #4]
 800084c:	0a1b      	lsrs	r3, r3, #8
 800084e:	b29b      	uxth	r3, r3
 8000850:	b2db      	uxtb	r3, r3
 8000852:	4618      	mov	r0, r3
 8000854:	f000 fd98 	bl	8001388 <LCD_IO_WriteData8>
 8000858:	88bb      	ldrh	r3, [r7, #4]
 800085a:	b2db      	uxtb	r3, r3
 800085c:	4618      	mov	r0, r3
 800085e:	f000 fd93 	bl	8001388 <LCD_IO_WriteData8>
  LCD_IO_WriteCmd8(ILI9486_RAMWR); LCD_IO_WriteData16(RGBCode);
 8000862:	202c      	movs	r0, #44	; 0x2c
 8000864:	f000 fce6 	bl	8001234 <LCD_IO_WriteCmd8>
 8000868:	887b      	ldrh	r3, [r7, #2]
 800086a:	4618      	mov	r0, r3
 800086c:	f000 fe2e 	bl	80014cc <LCD_IO_WriteData16>
  ILI9486_LCDMUTEX_POP();
}
 8000870:	bf00      	nop
 8000872:	3708      	adds	r7, #8
 8000874:	46bd      	mov	sp, r7
 8000876:	bd80      	pop	{r7, pc}

08000878 <ili9486_ReadPixel>:
  * @brief  Read pixel.
  * @param  None
  * @retval the RGB pixel color
  */
uint16_t ili9486_ReadPixel(uint16_t Xpos, uint16_t Ypos)
{
 8000878:	b580      	push	{r7, lr}
 800087a:	b084      	sub	sp, #16
 800087c:	af00      	add	r7, sp, #0
 800087e:	4603      	mov	r3, r0
 8000880:	460a      	mov	r2, r1
 8000882:	80fb      	strh	r3, [r7, #6]
 8000884:	4613      	mov	r3, r2
 8000886:	80bb      	strh	r3, [r7, #4]
  uint16_t ret;
  ILI9486_LCDMUTEX_PUSH();
  LCD_IO_WriteCmd8MultipleData8(ILI9486_PIXFMT, (uint8_t *)"\x66", 1); // Read: only 24bit pixel mode
 8000888:	2201      	movs	r2, #1
 800088a:	4925      	ldr	r1, [pc, #148]	; (8000920 <ili9486_ReadPixel+0xa8>)
 800088c:	203a      	movs	r0, #58	; 0x3a
 800088e:	f001 f915 	bl	8001abc <LCD_IO_WriteCmd8MultipleData8>
  ILI9486_SETCURSOR(Xpos, Ypos);
 8000892:	202a      	movs	r0, #42	; 0x2a
 8000894:	f000 fcce 	bl	8001234 <LCD_IO_WriteCmd8>
 8000898:	88fb      	ldrh	r3, [r7, #6]
 800089a:	0a1b      	lsrs	r3, r3, #8
 800089c:	b29b      	uxth	r3, r3
 800089e:	b2db      	uxtb	r3, r3
 80008a0:	4618      	mov	r0, r3
 80008a2:	f000 fd71 	bl	8001388 <LCD_IO_WriteData8>
 80008a6:	88fb      	ldrh	r3, [r7, #6]
 80008a8:	b2db      	uxtb	r3, r3
 80008aa:	4618      	mov	r0, r3
 80008ac:	f000 fd6c 	bl	8001388 <LCD_IO_WriteData8>
 80008b0:	88fb      	ldrh	r3, [r7, #6]
 80008b2:	0a1b      	lsrs	r3, r3, #8
 80008b4:	b29b      	uxth	r3, r3
 80008b6:	b2db      	uxtb	r3, r3
 80008b8:	4618      	mov	r0, r3
 80008ba:	f000 fd65 	bl	8001388 <LCD_IO_WriteData8>
 80008be:	88fb      	ldrh	r3, [r7, #6]
 80008c0:	b2db      	uxtb	r3, r3
 80008c2:	4618      	mov	r0, r3
 80008c4:	f000 fd60 	bl	8001388 <LCD_IO_WriteData8>
 80008c8:	202b      	movs	r0, #43	; 0x2b
 80008ca:	f000 fcb3 	bl	8001234 <LCD_IO_WriteCmd8>
 80008ce:	88bb      	ldrh	r3, [r7, #4]
 80008d0:	0a1b      	lsrs	r3, r3, #8
 80008d2:	b29b      	uxth	r3, r3
 80008d4:	b2db      	uxtb	r3, r3
 80008d6:	4618      	mov	r0, r3
 80008d8:	f000 fd56 	bl	8001388 <LCD_IO_WriteData8>
 80008dc:	88bb      	ldrh	r3, [r7, #4]
 80008de:	b2db      	uxtb	r3, r3
 80008e0:	4618      	mov	r0, r3
 80008e2:	f000 fd51 	bl	8001388 <LCD_IO_WriteData8>
 80008e6:	88bb      	ldrh	r3, [r7, #4]
 80008e8:	0a1b      	lsrs	r3, r3, #8
 80008ea:	b29b      	uxth	r3, r3
 80008ec:	b2db      	uxtb	r3, r3
 80008ee:	4618      	mov	r0, r3
 80008f0:	f000 fd4a 	bl	8001388 <LCD_IO_WriteData8>
 80008f4:	88bb      	ldrh	r3, [r7, #4]
 80008f6:	b2db      	uxtb	r3, r3
 80008f8:	4618      	mov	r0, r3
 80008fa:	f000 fd45 	bl	8001388 <LCD_IO_WriteData8>
  LCD_IO_ReadCmd8MultipleData24to16(ILI9486_RAMRD, (uint16_t *)&ret, 1, 1);
 80008fe:	f107 010e 	add.w	r1, r7, #14
 8000902:	2301      	movs	r3, #1
 8000904:	2201      	movs	r2, #1
 8000906:	202e      	movs	r0, #46	; 0x2e
 8000908:	f001 fd82 	bl	8002410 <LCD_IO_ReadCmd8MultipleData24to16>
  LCD_IO_WriteCmd8MultipleData8(ILI9486_PIXFMT, (uint8_t *)"\x55", 1); // Return to 16bit pixel mode
 800090c:	2201      	movs	r2, #1
 800090e:	4905      	ldr	r1, [pc, #20]	; (8000924 <ili9486_ReadPixel+0xac>)
 8000910:	203a      	movs	r0, #58	; 0x3a
 8000912:	f001 f8d3 	bl	8001abc <LCD_IO_WriteCmd8MultipleData8>
  ILI9486_LCDMUTEX_POP();
  return(ret);
 8000916:	89fb      	ldrh	r3, [r7, #14]
}
 8000918:	4618      	mov	r0, r3
 800091a:	3710      	adds	r7, #16
 800091c:	46bd      	mov	sp, r7
 800091e:	bd80      	pop	{r7, pc}
 8000920:	080080b0 	.word	0x080080b0
 8000924:	08008080 	.word	0x08008080

08000928 <ili9486_SetDisplayWindow>:
  * @param  Height: display window height.
  * @param  Width:  display window width.
  * @retval None
  */
void ili9486_SetDisplayWindow(uint16_t Xpos, uint16_t Ypos, uint16_t Width, uint16_t Height)
{
 8000928:	b590      	push	{r4, r7, lr}
 800092a:	b083      	sub	sp, #12
 800092c:	af00      	add	r7, sp, #0
 800092e:	4604      	mov	r4, r0
 8000930:	4608      	mov	r0, r1
 8000932:	4611      	mov	r1, r2
 8000934:	461a      	mov	r2, r3
 8000936:	4623      	mov	r3, r4
 8000938:	80fb      	strh	r3, [r7, #6]
 800093a:	4603      	mov	r3, r0
 800093c:	80bb      	strh	r3, [r7, #4]
 800093e:	460b      	mov	r3, r1
 8000940:	807b      	strh	r3, [r7, #2]
 8000942:	4613      	mov	r3, r2
 8000944:	803b      	strh	r3, [r7, #0]
  yStart = Ypos; yEnd = Ypos + Height - 1;
 8000946:	4a2a      	ldr	r2, [pc, #168]	; (80009f0 <ili9486_SetDisplayWindow+0xc8>)
 8000948:	88bb      	ldrh	r3, [r7, #4]
 800094a:	8013      	strh	r3, [r2, #0]
 800094c:	88ba      	ldrh	r2, [r7, #4]
 800094e:	883b      	ldrh	r3, [r7, #0]
 8000950:	4413      	add	r3, r2
 8000952:	b29b      	uxth	r3, r3
 8000954:	3b01      	subs	r3, #1
 8000956:	b29a      	uxth	r2, r3
 8000958:	4b26      	ldr	r3, [pc, #152]	; (80009f4 <ili9486_SetDisplayWindow+0xcc>)
 800095a:	801a      	strh	r2, [r3, #0]
  ILI9486_LCDMUTEX_PUSH();
  LCD_IO_WriteCmd8(ILI9486_CASET); LCD_IO_WriteData16_to_2x8(Xpos); LCD_IO_WriteData16_to_2x8(Xpos + Width - 1);
 800095c:	202a      	movs	r0, #42	; 0x2a
 800095e:	f000 fc69 	bl	8001234 <LCD_IO_WriteCmd8>
 8000962:	88fb      	ldrh	r3, [r7, #6]
 8000964:	0a1b      	lsrs	r3, r3, #8
 8000966:	b29b      	uxth	r3, r3
 8000968:	b2db      	uxtb	r3, r3
 800096a:	4618      	mov	r0, r3
 800096c:	f000 fd0c 	bl	8001388 <LCD_IO_WriteData8>
 8000970:	88fb      	ldrh	r3, [r7, #6]
 8000972:	b2db      	uxtb	r3, r3
 8000974:	4618      	mov	r0, r3
 8000976:	f000 fd07 	bl	8001388 <LCD_IO_WriteData8>
 800097a:	88fa      	ldrh	r2, [r7, #6]
 800097c:	887b      	ldrh	r3, [r7, #2]
 800097e:	4413      	add	r3, r2
 8000980:	3b01      	subs	r3, #1
 8000982:	121b      	asrs	r3, r3, #8
 8000984:	b2db      	uxtb	r3, r3
 8000986:	4618      	mov	r0, r3
 8000988:	f000 fcfe 	bl	8001388 <LCD_IO_WriteData8>
 800098c:	88fb      	ldrh	r3, [r7, #6]
 800098e:	b2da      	uxtb	r2, r3
 8000990:	887b      	ldrh	r3, [r7, #2]
 8000992:	b2db      	uxtb	r3, r3
 8000994:	4413      	add	r3, r2
 8000996:	b2db      	uxtb	r3, r3
 8000998:	3b01      	subs	r3, #1
 800099a:	b2db      	uxtb	r3, r3
 800099c:	4618      	mov	r0, r3
 800099e:	f000 fcf3 	bl	8001388 <LCD_IO_WriteData8>
  LCD_IO_WriteCmd8(ILI9486_PASET); LCD_IO_WriteData16_to_2x8(Ypos); LCD_IO_WriteData16_to_2x8(Ypos + Height - 1);
 80009a2:	202b      	movs	r0, #43	; 0x2b
 80009a4:	f000 fc46 	bl	8001234 <LCD_IO_WriteCmd8>
 80009a8:	88bb      	ldrh	r3, [r7, #4]
 80009aa:	0a1b      	lsrs	r3, r3, #8
 80009ac:	b29b      	uxth	r3, r3
 80009ae:	b2db      	uxtb	r3, r3
 80009b0:	4618      	mov	r0, r3
 80009b2:	f000 fce9 	bl	8001388 <LCD_IO_WriteData8>
 80009b6:	88bb      	ldrh	r3, [r7, #4]
 80009b8:	b2db      	uxtb	r3, r3
 80009ba:	4618      	mov	r0, r3
 80009bc:	f000 fce4 	bl	8001388 <LCD_IO_WriteData8>
 80009c0:	88ba      	ldrh	r2, [r7, #4]
 80009c2:	883b      	ldrh	r3, [r7, #0]
 80009c4:	4413      	add	r3, r2
 80009c6:	3b01      	subs	r3, #1
 80009c8:	121b      	asrs	r3, r3, #8
 80009ca:	b2db      	uxtb	r3, r3
 80009cc:	4618      	mov	r0, r3
 80009ce:	f000 fcdb 	bl	8001388 <LCD_IO_WriteData8>
 80009d2:	88bb      	ldrh	r3, [r7, #4]
 80009d4:	b2da      	uxtb	r2, r3
 80009d6:	883b      	ldrh	r3, [r7, #0]
 80009d8:	b2db      	uxtb	r3, r3
 80009da:	4413      	add	r3, r2
 80009dc:	b2db      	uxtb	r3, r3
 80009de:	3b01      	subs	r3, #1
 80009e0:	b2db      	uxtb	r3, r3
 80009e2:	4618      	mov	r0, r3
 80009e4:	f000 fcd0 	bl	8001388 <LCD_IO_WriteData8>
  ILI9486_LCDMUTEX_POP();
}
 80009e8:	bf00      	nop
 80009ea:	370c      	adds	r7, #12
 80009ec:	46bd      	mov	sp, r7
 80009ee:	bd90      	pop	{r4, r7, pc}
 80009f0:	2400009e 	.word	0x2400009e
 80009f4:	240000a0 	.word	0x240000a0

080009f8 <ili9486_DrawHLine>:
  * @param  Ypos:     specifies the Y position.
  * @param  Length:   specifies the Line length.
  * @retval None
  */
void ili9486_DrawHLine(uint16_t RGBCode, uint16_t Xpos, uint16_t Ypos, uint16_t Length)
{
 80009f8:	b590      	push	{r4, r7, lr}
 80009fa:	b083      	sub	sp, #12
 80009fc:	af00      	add	r7, sp, #0
 80009fe:	4604      	mov	r4, r0
 8000a00:	4608      	mov	r0, r1
 8000a02:	4611      	mov	r1, r2
 8000a04:	461a      	mov	r2, r3
 8000a06:	4623      	mov	r3, r4
 8000a08:	80fb      	strh	r3, [r7, #6]
 8000a0a:	4603      	mov	r3, r0
 8000a0c:	80bb      	strh	r3, [r7, #4]
 8000a0e:	460b      	mov	r3, r1
 8000a10:	807b      	strh	r3, [r7, #2]
 8000a12:	4613      	mov	r3, r2
 8000a14:	803b      	strh	r3, [r7, #0]
  ILI9486_LCDMUTEX_PUSH();
  LCD_IO_WriteCmd8(ILI9486_CASET); LCD_IO_WriteData16_to_2x8(Xpos); LCD_IO_WriteData16_to_2x8(Xpos + Length - 1);
 8000a16:	202a      	movs	r0, #42	; 0x2a
 8000a18:	f000 fc0c 	bl	8001234 <LCD_IO_WriteCmd8>
 8000a1c:	88bb      	ldrh	r3, [r7, #4]
 8000a1e:	0a1b      	lsrs	r3, r3, #8
 8000a20:	b29b      	uxth	r3, r3
 8000a22:	b2db      	uxtb	r3, r3
 8000a24:	4618      	mov	r0, r3
 8000a26:	f000 fcaf 	bl	8001388 <LCD_IO_WriteData8>
 8000a2a:	88bb      	ldrh	r3, [r7, #4]
 8000a2c:	b2db      	uxtb	r3, r3
 8000a2e:	4618      	mov	r0, r3
 8000a30:	f000 fcaa 	bl	8001388 <LCD_IO_WriteData8>
 8000a34:	88ba      	ldrh	r2, [r7, #4]
 8000a36:	883b      	ldrh	r3, [r7, #0]
 8000a38:	4413      	add	r3, r2
 8000a3a:	3b01      	subs	r3, #1
 8000a3c:	121b      	asrs	r3, r3, #8
 8000a3e:	b2db      	uxtb	r3, r3
 8000a40:	4618      	mov	r0, r3
 8000a42:	f000 fca1 	bl	8001388 <LCD_IO_WriteData8>
 8000a46:	88bb      	ldrh	r3, [r7, #4]
 8000a48:	b2da      	uxtb	r2, r3
 8000a4a:	883b      	ldrh	r3, [r7, #0]
 8000a4c:	b2db      	uxtb	r3, r3
 8000a4e:	4413      	add	r3, r2
 8000a50:	b2db      	uxtb	r3, r3
 8000a52:	3b01      	subs	r3, #1
 8000a54:	b2db      	uxtb	r3, r3
 8000a56:	4618      	mov	r0, r3
 8000a58:	f000 fc96 	bl	8001388 <LCD_IO_WriteData8>
  LCD_IO_WriteCmd8(ILI9486_PASET); LCD_IO_WriteData16_to_2x8(Ypos); LCD_IO_WriteData16_to_2x8(Ypos);
 8000a5c:	202b      	movs	r0, #43	; 0x2b
 8000a5e:	f000 fbe9 	bl	8001234 <LCD_IO_WriteCmd8>
 8000a62:	887b      	ldrh	r3, [r7, #2]
 8000a64:	0a1b      	lsrs	r3, r3, #8
 8000a66:	b29b      	uxth	r3, r3
 8000a68:	b2db      	uxtb	r3, r3
 8000a6a:	4618      	mov	r0, r3
 8000a6c:	f000 fc8c 	bl	8001388 <LCD_IO_WriteData8>
 8000a70:	887b      	ldrh	r3, [r7, #2]
 8000a72:	b2db      	uxtb	r3, r3
 8000a74:	4618      	mov	r0, r3
 8000a76:	f000 fc87 	bl	8001388 <LCD_IO_WriteData8>
 8000a7a:	887b      	ldrh	r3, [r7, #2]
 8000a7c:	0a1b      	lsrs	r3, r3, #8
 8000a7e:	b29b      	uxth	r3, r3
 8000a80:	b2db      	uxtb	r3, r3
 8000a82:	4618      	mov	r0, r3
 8000a84:	f000 fc80 	bl	8001388 <LCD_IO_WriteData8>
 8000a88:	887b      	ldrh	r3, [r7, #2]
 8000a8a:	b2db      	uxtb	r3, r3
 8000a8c:	4618      	mov	r0, r3
 8000a8e:	f000 fc7b 	bl	8001388 <LCD_IO_WriteData8>
  LCD_IO_WriteCmd8DataFill16(ILI9486_RAMWR, RGBCode, Length);
 8000a92:	883a      	ldrh	r2, [r7, #0]
 8000a94:	88fb      	ldrh	r3, [r7, #6]
 8000a96:	4619      	mov	r1, r3
 8000a98:	202c      	movs	r0, #44	; 0x2c
 8000a9a:	f000 fe41 	bl	8001720 <LCD_IO_WriteCmd8DataFill16>
  ILI9486_LCDMUTEX_POP();
}
 8000a9e:	bf00      	nop
 8000aa0:	370c      	adds	r7, #12
 8000aa2:	46bd      	mov	sp, r7
 8000aa4:	bd90      	pop	{r4, r7, pc}

08000aa6 <ili9486_DrawVLine>:
  * @param  Ypos:     specifies the Y position.
  * @param  Length:   specifies the Line length.
  * @retval None
  */
void ili9486_DrawVLine(uint16_t RGBCode, uint16_t Xpos, uint16_t Ypos, uint16_t Length)
{
 8000aa6:	b590      	push	{r4, r7, lr}
 8000aa8:	b083      	sub	sp, #12
 8000aaa:	af00      	add	r7, sp, #0
 8000aac:	4604      	mov	r4, r0
 8000aae:	4608      	mov	r0, r1
 8000ab0:	4611      	mov	r1, r2
 8000ab2:	461a      	mov	r2, r3
 8000ab4:	4623      	mov	r3, r4
 8000ab6:	80fb      	strh	r3, [r7, #6]
 8000ab8:	4603      	mov	r3, r0
 8000aba:	80bb      	strh	r3, [r7, #4]
 8000abc:	460b      	mov	r3, r1
 8000abe:	807b      	strh	r3, [r7, #2]
 8000ac0:	4613      	mov	r3, r2
 8000ac2:	803b      	strh	r3, [r7, #0]
  ILI9486_LCDMUTEX_PUSH();
  LCD_IO_WriteCmd8(ILI9486_CASET); LCD_IO_WriteData16_to_2x8(Xpos); LCD_IO_WriteData16_to_2x8(Xpos);
 8000ac4:	202a      	movs	r0, #42	; 0x2a
 8000ac6:	f000 fbb5 	bl	8001234 <LCD_IO_WriteCmd8>
 8000aca:	88bb      	ldrh	r3, [r7, #4]
 8000acc:	0a1b      	lsrs	r3, r3, #8
 8000ace:	b29b      	uxth	r3, r3
 8000ad0:	b2db      	uxtb	r3, r3
 8000ad2:	4618      	mov	r0, r3
 8000ad4:	f000 fc58 	bl	8001388 <LCD_IO_WriteData8>
 8000ad8:	88bb      	ldrh	r3, [r7, #4]
 8000ada:	b2db      	uxtb	r3, r3
 8000adc:	4618      	mov	r0, r3
 8000ade:	f000 fc53 	bl	8001388 <LCD_IO_WriteData8>
 8000ae2:	88bb      	ldrh	r3, [r7, #4]
 8000ae4:	0a1b      	lsrs	r3, r3, #8
 8000ae6:	b29b      	uxth	r3, r3
 8000ae8:	b2db      	uxtb	r3, r3
 8000aea:	4618      	mov	r0, r3
 8000aec:	f000 fc4c 	bl	8001388 <LCD_IO_WriteData8>
 8000af0:	88bb      	ldrh	r3, [r7, #4]
 8000af2:	b2db      	uxtb	r3, r3
 8000af4:	4618      	mov	r0, r3
 8000af6:	f000 fc47 	bl	8001388 <LCD_IO_WriteData8>
  LCD_IO_WriteCmd8(ILI9486_PASET); LCD_IO_WriteData16_to_2x8(Ypos); LCD_IO_WriteData16_to_2x8(Ypos + Length - 1);
 8000afa:	202b      	movs	r0, #43	; 0x2b
 8000afc:	f000 fb9a 	bl	8001234 <LCD_IO_WriteCmd8>
 8000b00:	887b      	ldrh	r3, [r7, #2]
 8000b02:	0a1b      	lsrs	r3, r3, #8
 8000b04:	b29b      	uxth	r3, r3
 8000b06:	b2db      	uxtb	r3, r3
 8000b08:	4618      	mov	r0, r3
 8000b0a:	f000 fc3d 	bl	8001388 <LCD_IO_WriteData8>
 8000b0e:	887b      	ldrh	r3, [r7, #2]
 8000b10:	b2db      	uxtb	r3, r3
 8000b12:	4618      	mov	r0, r3
 8000b14:	f000 fc38 	bl	8001388 <LCD_IO_WriteData8>
 8000b18:	887a      	ldrh	r2, [r7, #2]
 8000b1a:	883b      	ldrh	r3, [r7, #0]
 8000b1c:	4413      	add	r3, r2
 8000b1e:	3b01      	subs	r3, #1
 8000b20:	121b      	asrs	r3, r3, #8
 8000b22:	b2db      	uxtb	r3, r3
 8000b24:	4618      	mov	r0, r3
 8000b26:	f000 fc2f 	bl	8001388 <LCD_IO_WriteData8>
 8000b2a:	887b      	ldrh	r3, [r7, #2]
 8000b2c:	b2da      	uxtb	r2, r3
 8000b2e:	883b      	ldrh	r3, [r7, #0]
 8000b30:	b2db      	uxtb	r3, r3
 8000b32:	4413      	add	r3, r2
 8000b34:	b2db      	uxtb	r3, r3
 8000b36:	3b01      	subs	r3, #1
 8000b38:	b2db      	uxtb	r3, r3
 8000b3a:	4618      	mov	r0, r3
 8000b3c:	f000 fc24 	bl	8001388 <LCD_IO_WriteData8>
  LCD_IO_WriteCmd8DataFill16(ILI9486_RAMWR, RGBCode, Length);
 8000b40:	883a      	ldrh	r2, [r7, #0]
 8000b42:	88fb      	ldrh	r3, [r7, #6]
 8000b44:	4619      	mov	r1, r3
 8000b46:	202c      	movs	r0, #44	; 0x2c
 8000b48:	f000 fdea 	bl	8001720 <LCD_IO_WriteCmd8DataFill16>
  ILI9486_LCDMUTEX_POP();
}
 8000b4c:	bf00      	nop
 8000b4e:	370c      	adds	r7, #12
 8000b50:	46bd      	mov	sp, r7
 8000b52:	bd90      	pop	{r4, r7, pc}

08000b54 <ili9486_FillRect>:
  * @param  Ysize:    specifies the Y size
  * @param  RGBCode:  specifies the RGB color
  * @retval None
  */
void ili9486_FillRect(uint16_t Xpos, uint16_t Ypos, uint16_t Xsize, uint16_t Ysize, uint16_t RGBCode)
{
 8000b54:	b590      	push	{r4, r7, lr}
 8000b56:	b083      	sub	sp, #12
 8000b58:	af00      	add	r7, sp, #0
 8000b5a:	4604      	mov	r4, r0
 8000b5c:	4608      	mov	r0, r1
 8000b5e:	4611      	mov	r1, r2
 8000b60:	461a      	mov	r2, r3
 8000b62:	4623      	mov	r3, r4
 8000b64:	80fb      	strh	r3, [r7, #6]
 8000b66:	4603      	mov	r3, r0
 8000b68:	80bb      	strh	r3, [r7, #4]
 8000b6a:	460b      	mov	r3, r1
 8000b6c:	807b      	strh	r3, [r7, #2]
 8000b6e:	4613      	mov	r3, r2
 8000b70:	803b      	strh	r3, [r7, #0]
  ILI9486_LCDMUTEX_PUSH();
  LCD_IO_WriteCmd8(ILI9486_CASET); LCD_IO_WriteData16_to_2x8(Xpos); LCD_IO_WriteData16_to_2x8(Xpos + Xsize - 1);
 8000b72:	202a      	movs	r0, #42	; 0x2a
 8000b74:	f000 fb5e 	bl	8001234 <LCD_IO_WriteCmd8>
 8000b78:	88fb      	ldrh	r3, [r7, #6]
 8000b7a:	0a1b      	lsrs	r3, r3, #8
 8000b7c:	b29b      	uxth	r3, r3
 8000b7e:	b2db      	uxtb	r3, r3
 8000b80:	4618      	mov	r0, r3
 8000b82:	f000 fc01 	bl	8001388 <LCD_IO_WriteData8>
 8000b86:	88fb      	ldrh	r3, [r7, #6]
 8000b88:	b2db      	uxtb	r3, r3
 8000b8a:	4618      	mov	r0, r3
 8000b8c:	f000 fbfc 	bl	8001388 <LCD_IO_WriteData8>
 8000b90:	88fa      	ldrh	r2, [r7, #6]
 8000b92:	887b      	ldrh	r3, [r7, #2]
 8000b94:	4413      	add	r3, r2
 8000b96:	3b01      	subs	r3, #1
 8000b98:	121b      	asrs	r3, r3, #8
 8000b9a:	b2db      	uxtb	r3, r3
 8000b9c:	4618      	mov	r0, r3
 8000b9e:	f000 fbf3 	bl	8001388 <LCD_IO_WriteData8>
 8000ba2:	88fb      	ldrh	r3, [r7, #6]
 8000ba4:	b2da      	uxtb	r2, r3
 8000ba6:	887b      	ldrh	r3, [r7, #2]
 8000ba8:	b2db      	uxtb	r3, r3
 8000baa:	4413      	add	r3, r2
 8000bac:	b2db      	uxtb	r3, r3
 8000bae:	3b01      	subs	r3, #1
 8000bb0:	b2db      	uxtb	r3, r3
 8000bb2:	4618      	mov	r0, r3
 8000bb4:	f000 fbe8 	bl	8001388 <LCD_IO_WriteData8>
  LCD_IO_WriteCmd8(ILI9486_PASET); LCD_IO_WriteData16_to_2x8(Ypos); LCD_IO_WriteData16_to_2x8(Ypos + Ysize - 1);
 8000bb8:	202b      	movs	r0, #43	; 0x2b
 8000bba:	f000 fb3b 	bl	8001234 <LCD_IO_WriteCmd8>
 8000bbe:	88bb      	ldrh	r3, [r7, #4]
 8000bc0:	0a1b      	lsrs	r3, r3, #8
 8000bc2:	b29b      	uxth	r3, r3
 8000bc4:	b2db      	uxtb	r3, r3
 8000bc6:	4618      	mov	r0, r3
 8000bc8:	f000 fbde 	bl	8001388 <LCD_IO_WriteData8>
 8000bcc:	88bb      	ldrh	r3, [r7, #4]
 8000bce:	b2db      	uxtb	r3, r3
 8000bd0:	4618      	mov	r0, r3
 8000bd2:	f000 fbd9 	bl	8001388 <LCD_IO_WriteData8>
 8000bd6:	88ba      	ldrh	r2, [r7, #4]
 8000bd8:	883b      	ldrh	r3, [r7, #0]
 8000bda:	4413      	add	r3, r2
 8000bdc:	3b01      	subs	r3, #1
 8000bde:	121b      	asrs	r3, r3, #8
 8000be0:	b2db      	uxtb	r3, r3
 8000be2:	4618      	mov	r0, r3
 8000be4:	f000 fbd0 	bl	8001388 <LCD_IO_WriteData8>
 8000be8:	88bb      	ldrh	r3, [r7, #4]
 8000bea:	b2da      	uxtb	r2, r3
 8000bec:	883b      	ldrh	r3, [r7, #0]
 8000bee:	b2db      	uxtb	r3, r3
 8000bf0:	4413      	add	r3, r2
 8000bf2:	b2db      	uxtb	r3, r3
 8000bf4:	3b01      	subs	r3, #1
 8000bf6:	b2db      	uxtb	r3, r3
 8000bf8:	4618      	mov	r0, r3
 8000bfa:	f000 fbc5 	bl	8001388 <LCD_IO_WriteData8>
  LCD_IO_WriteCmd8DataFill16(ILI9486_RAMWR, RGBCode, Xsize * Ysize);
 8000bfe:	887b      	ldrh	r3, [r7, #2]
 8000c00:	883a      	ldrh	r2, [r7, #0]
 8000c02:	fb02 f303 	mul.w	r3, r2, r3
 8000c06:	461a      	mov	r2, r3
 8000c08:	8b3b      	ldrh	r3, [r7, #24]
 8000c0a:	4619      	mov	r1, r3
 8000c0c:	202c      	movs	r0, #44	; 0x2c
 8000c0e:	f000 fd87 	bl	8001720 <LCD_IO_WriteCmd8DataFill16>
  ILI9486_LCDMUTEX_POP();
}
 8000c12:	bf00      	nop
 8000c14:	370c      	adds	r7, #12
 8000c16:	46bd      	mov	sp, r7
 8000c18:	bd90      	pop	{r4, r7, pc}
	...

08000c1c <ili9486_DrawBitmap>:
  * @param  Ypos:  Bmp Y position in the LCD
  * @retval None
  * @brief  Draw direction: right then up
  */
void ili9486_DrawBitmap(uint16_t Xpos, uint16_t Ypos, uint8_t *pbmp)
{
 8000c1c:	b580      	push	{r7, lr}
 8000c1e:	b084      	sub	sp, #16
 8000c20:	af00      	add	r7, sp, #0
 8000c22:	4603      	mov	r3, r0
 8000c24:	603a      	str	r2, [r7, #0]
 8000c26:	80fb      	strh	r3, [r7, #6]
 8000c28:	460b      	mov	r3, r1
 8000c2a:	80bb      	strh	r3, [r7, #4]
  uint32_t index, size;
  /* Read bitmap size */
  size = ((BITMAPSTRUCT *)pbmp)->fileHeader.bfSize;
 8000c2c:	683b      	ldr	r3, [r7, #0]
 8000c2e:	f8d3 3002 	ldr.w	r3, [r3, #2]
 8000c32:	60fb      	str	r3, [r7, #12]
  /* Get bitmap data address offset */
  index = ((BITMAPSTRUCT *)pbmp)->fileHeader.bfOffBits;
 8000c34:	683b      	ldr	r3, [r7, #0]
 8000c36:	f8d3 300a 	ldr.w	r3, [r3, #10]
 8000c3a:	60bb      	str	r3, [r7, #8]
  size = (size - index) / 2;
 8000c3c:	68fa      	ldr	r2, [r7, #12]
 8000c3e:	68bb      	ldr	r3, [r7, #8]
 8000c40:	1ad3      	subs	r3, r2, r3
 8000c42:	085b      	lsrs	r3, r3, #1
 8000c44:	60fb      	str	r3, [r7, #12]
  pbmp += index;
 8000c46:	683a      	ldr	r2, [r7, #0]
 8000c48:	68bb      	ldr	r3, [r7, #8]
 8000c4a:	4413      	add	r3, r2
 8000c4c:	603b      	str	r3, [r7, #0]

  ILI9486_LCDMUTEX_PUSH();
  LCD_IO_WriteCmd8(ILI9486_MADCTL); LCD_IO_WriteData8(ILI9486_MAD_DATA_RIGHT_THEN_UP);
 8000c4e:	2036      	movs	r0, #54	; 0x36
 8000c50:	f000 faf0 	bl	8001234 <LCD_IO_WriteCmd8>
 8000c54:	2068      	movs	r0, #104	; 0x68
 8000c56:	f000 fb97 	bl	8001388 <LCD_IO_WriteData8>
  LCD_IO_WriteCmd8(ILI9486_PASET); LCD_IO_WriteData16_to_2x8(ILI9486_SIZE_Y - 1 - yEnd); LCD_IO_WriteData16_to_2x8(ILI9486_SIZE_Y - 1 - yStart);
 8000c5a:	202b      	movs	r0, #43	; 0x2b
 8000c5c:	f000 faea 	bl	8001234 <LCD_IO_WriteCmd8>
 8000c60:	4b1b      	ldr	r3, [pc, #108]	; (8000cd0 <ili9486_DrawBitmap+0xb4>)
 8000c62:	881b      	ldrh	r3, [r3, #0]
 8000c64:	461a      	mov	r2, r3
 8000c66:	f240 133f 	movw	r3, #319	; 0x13f
 8000c6a:	1a9b      	subs	r3, r3, r2
 8000c6c:	121b      	asrs	r3, r3, #8
 8000c6e:	b2db      	uxtb	r3, r3
 8000c70:	4618      	mov	r0, r3
 8000c72:	f000 fb89 	bl	8001388 <LCD_IO_WriteData8>
 8000c76:	4b16      	ldr	r3, [pc, #88]	; (8000cd0 <ili9486_DrawBitmap+0xb4>)
 8000c78:	881b      	ldrh	r3, [r3, #0]
 8000c7a:	b2db      	uxtb	r3, r3
 8000c7c:	f1c3 033f 	rsb	r3, r3, #63	; 0x3f
 8000c80:	b2db      	uxtb	r3, r3
 8000c82:	4618      	mov	r0, r3
 8000c84:	f000 fb80 	bl	8001388 <LCD_IO_WriteData8>
 8000c88:	4b12      	ldr	r3, [pc, #72]	; (8000cd4 <ili9486_DrawBitmap+0xb8>)
 8000c8a:	881b      	ldrh	r3, [r3, #0]
 8000c8c:	461a      	mov	r2, r3
 8000c8e:	f240 133f 	movw	r3, #319	; 0x13f
 8000c92:	1a9b      	subs	r3, r3, r2
 8000c94:	121b      	asrs	r3, r3, #8
 8000c96:	b2db      	uxtb	r3, r3
 8000c98:	4618      	mov	r0, r3
 8000c9a:	f000 fb75 	bl	8001388 <LCD_IO_WriteData8>
 8000c9e:	4b0d      	ldr	r3, [pc, #52]	; (8000cd4 <ili9486_DrawBitmap+0xb8>)
 8000ca0:	881b      	ldrh	r3, [r3, #0]
 8000ca2:	b2db      	uxtb	r3, r3
 8000ca4:	f1c3 033f 	rsb	r3, r3, #63	; 0x3f
 8000ca8:	b2db      	uxtb	r3, r3
 8000caa:	4618      	mov	r0, r3
 8000cac:	f000 fb6c 	bl	8001388 <LCD_IO_WriteData8>
  LCD_IO_WriteCmd8MultipleData16(ILI9486_RAMWR, (uint16_t *)pbmp, size);
 8000cb0:	68fa      	ldr	r2, [r7, #12]
 8000cb2:	6839      	ldr	r1, [r7, #0]
 8000cb4:	202c      	movs	r0, #44	; 0x2c
 8000cb6:	f001 f83b 	bl	8001d30 <LCD_IO_WriteCmd8MultipleData16>
  LCD_IO_WriteCmd8(ILI9486_MADCTL); LCD_IO_WriteData8(ILI9486_MAD_DATA_RIGHT_THEN_DOWN);
 8000cba:	2036      	movs	r0, #54	; 0x36
 8000cbc:	f000 faba 	bl	8001234 <LCD_IO_WriteCmd8>
 8000cc0:	2028      	movs	r0, #40	; 0x28
 8000cc2:	f000 fb61 	bl	8001388 <LCD_IO_WriteData8>
  ILI9486_LCDMUTEX_POP();
}
 8000cc6:	bf00      	nop
 8000cc8:	3710      	adds	r7, #16
 8000cca:	46bd      	mov	sp, r7
 8000ccc:	bd80      	pop	{r7, pc}
 8000cce:	bf00      	nop
 8000cd0:	240000a0 	.word	0x240000a0
 8000cd4:	2400009e 	.word	0x2400009e

08000cd8 <ili9486_DrawRGBImage>:
  * @param  Ysize: Image Y size in the LCD
  * @retval None
  * @brief  Draw direction: right then down
  */
void ili9486_DrawRGBImage(uint16_t Xpos, uint16_t Ypos, uint16_t Xsize, uint16_t Ysize, uint16_t *pData)
{
 8000cd8:	b590      	push	{r4, r7, lr}
 8000cda:	b083      	sub	sp, #12
 8000cdc:	af00      	add	r7, sp, #0
 8000cde:	4604      	mov	r4, r0
 8000ce0:	4608      	mov	r0, r1
 8000ce2:	4611      	mov	r1, r2
 8000ce4:	461a      	mov	r2, r3
 8000ce6:	4623      	mov	r3, r4
 8000ce8:	80fb      	strh	r3, [r7, #6]
 8000cea:	4603      	mov	r3, r0
 8000cec:	80bb      	strh	r3, [r7, #4]
 8000cee:	460b      	mov	r3, r1
 8000cf0:	807b      	strh	r3, [r7, #2]
 8000cf2:	4613      	mov	r3, r2
 8000cf4:	803b      	strh	r3, [r7, #0]
  ili9486_SetDisplayWindow(Xpos, Ypos, Xsize, Ysize);
 8000cf6:	883b      	ldrh	r3, [r7, #0]
 8000cf8:	887a      	ldrh	r2, [r7, #2]
 8000cfa:	88b9      	ldrh	r1, [r7, #4]
 8000cfc:	88f8      	ldrh	r0, [r7, #6]
 8000cfe:	f7ff fe13 	bl	8000928 <ili9486_SetDisplayWindow>
  ILI9486_LCDMUTEX_PUSH();
  LCD_IO_WriteCmd8MultipleData16(ILI9486_RAMWR, pData, Xsize * Ysize);
 8000d02:	887b      	ldrh	r3, [r7, #2]
 8000d04:	883a      	ldrh	r2, [r7, #0]
 8000d06:	fb02 f303 	mul.w	r3, r2, r3
 8000d0a:	461a      	mov	r2, r3
 8000d0c:	69b9      	ldr	r1, [r7, #24]
 8000d0e:	202c      	movs	r0, #44	; 0x2c
 8000d10:	f001 f80e 	bl	8001d30 <LCD_IO_WriteCmd8MultipleData16>
  ILI9486_LCDMUTEX_POP();
}
 8000d14:	bf00      	nop
 8000d16:	370c      	adds	r7, #12
 8000d18:	46bd      	mov	sp, r7
 8000d1a:	bd90      	pop	{r4, r7, pc}

08000d1c <ili9486_ReadRGBImage>:
  * @param  Ysize: Image Y size in the LCD
  * @retval None
  * @brief  Draw direction: right then down
  */
void ili9486_ReadRGBImage(uint16_t Xpos, uint16_t Ypos, uint16_t Xsize, uint16_t Ysize, uint16_t *pData)
{
 8000d1c:	b590      	push	{r4, r7, lr}
 8000d1e:	b083      	sub	sp, #12
 8000d20:	af00      	add	r7, sp, #0
 8000d22:	4604      	mov	r4, r0
 8000d24:	4608      	mov	r0, r1
 8000d26:	4611      	mov	r1, r2
 8000d28:	461a      	mov	r2, r3
 8000d2a:	4623      	mov	r3, r4
 8000d2c:	80fb      	strh	r3, [r7, #6]
 8000d2e:	4603      	mov	r3, r0
 8000d30:	80bb      	strh	r3, [r7, #4]
 8000d32:	460b      	mov	r3, r1
 8000d34:	807b      	strh	r3, [r7, #2]
 8000d36:	4613      	mov	r3, r2
 8000d38:	803b      	strh	r3, [r7, #0]
  ili9486_SetDisplayWindow(Xpos, Ypos, Xsize, Ysize);
 8000d3a:	883b      	ldrh	r3, [r7, #0]
 8000d3c:	887a      	ldrh	r2, [r7, #2]
 8000d3e:	88b9      	ldrh	r1, [r7, #4]
 8000d40:	88f8      	ldrh	r0, [r7, #6]
 8000d42:	f7ff fdf1 	bl	8000928 <ili9486_SetDisplayWindow>
  ILI9486_LCDMUTEX_PUSH();
  LCD_IO_WriteCmd8MultipleData8(ILI9486_PIXFMT, (uint8_t *)"\x66", 1); // Read: only 24bit pixel mode
 8000d46:	2201      	movs	r2, #1
 8000d48:	490b      	ldr	r1, [pc, #44]	; (8000d78 <ili9486_ReadRGBImage+0x5c>)
 8000d4a:	203a      	movs	r0, #58	; 0x3a
 8000d4c:	f000 feb6 	bl	8001abc <LCD_IO_WriteCmd8MultipleData8>
  LCD_IO_ReadCmd8MultipleData24to16(ILI9486_RAMRD, pData, Xsize * Ysize, 1);
 8000d50:	887b      	ldrh	r3, [r7, #2]
 8000d52:	883a      	ldrh	r2, [r7, #0]
 8000d54:	fb02 f303 	mul.w	r3, r2, r3
 8000d58:	461a      	mov	r2, r3
 8000d5a:	2301      	movs	r3, #1
 8000d5c:	69b9      	ldr	r1, [r7, #24]
 8000d5e:	202e      	movs	r0, #46	; 0x2e
 8000d60:	f001 fb56 	bl	8002410 <LCD_IO_ReadCmd8MultipleData24to16>
  LCD_IO_WriteCmd8MultipleData8(ILI9486_PIXFMT, (uint8_t *)"\x55", 1); // Return to 16bit pixel mode
 8000d64:	2201      	movs	r2, #1
 8000d66:	4905      	ldr	r1, [pc, #20]	; (8000d7c <ili9486_ReadRGBImage+0x60>)
 8000d68:	203a      	movs	r0, #58	; 0x3a
 8000d6a:	f000 fea7 	bl	8001abc <LCD_IO_WriteCmd8MultipleData8>
  ILI9486_LCDMUTEX_POP();
}
 8000d6e:	bf00      	nop
 8000d70:	370c      	adds	r7, #12
 8000d72:	46bd      	mov	sp, r7
 8000d74:	bd90      	pop	{r4, r7, pc}
 8000d76:	bf00      	nop
 8000d78:	080080b0 	.word	0x080080b0
 8000d7c:	08008080 	.word	0x08008080

08000d80 <ili9486_WriteChar>:

/* FontWrite cat cat by owlhor*/
void ili9486_WriteChar(uint16_t Xpo, uint16_t Ypo, char *chr,sFONT fonto, uint16_t RGB_Coder, uint16_t RGB_bg){
 8000d80:	b082      	sub	sp, #8
 8000d82:	b580      	push	{r7, lr}
 8000d84:	b08a      	sub	sp, #40	; 0x28
 8000d86:	af00      	add	r7, sp, #0
 8000d88:	603a      	str	r2, [r7, #0]
 8000d8a:	637b      	str	r3, [r7, #52]	; 0x34
 8000d8c:	4603      	mov	r3, r0
 8000d8e:	80fb      	strh	r3, [r7, #6]
 8000d90:	460b      	mov	r3, r1
 8000d92:	80bb      	strh	r3, [r7, #4]
//	union {
//		uint8_t b8[4];
//		uint32_t b32;
//	}bu32;
	//// stored font data
	uint32_t hop32 = 0;
 8000d94:	2300      	movs	r3, #0
 8000d96:	627b      	str	r3, [r7, #36]	; 0x24
	uint8_t b8[4] = {0};
 8000d98:	2300      	movs	r3, #0
 8000d9a:	60fb      	str	r3, [r7, #12]
	 * c = i * rowbox -> jump to next column in next i rowloop
	 * k => jump to next row in that column
	 * */

	//// find num of bit rows per jump in fonts.c
	int rowbox = ceilf((float)(fonto.Width) / 8);
 8000d9c:	8f3b      	ldrh	r3, [r7, #56]	; 0x38
 8000d9e:	ee07 3a90 	vmov	s15, r3
 8000da2:	eef8 7a67 	vcvt.f32.u32	s15, s15
 8000da6:	eef2 6a00 	vmov.f32	s13, #32	; 0x41000000  8.0
 8000daa:	ee87 7aa6 	vdiv.f32	s14, s15, s13
 8000dae:	eeb0 0a47 	vmov.f32	s0, s14
 8000db2:	f007 f915 	bl	8007fe0 <ceilf>
 8000db6:	eef0 7a40 	vmov.f32	s15, s0
 8000dba:	eefd 7ae7 	vcvt.s32.f32	s15, s15
 8000dbe:	ee17 3a90 	vmov	r3, s15
 8000dc2:	617b      	str	r3, [r7, #20]

	//// choose MSB check pos for each font size
	//// 0x80 , 0x8000 , 0x 800000
	uint32_t clif_msb = 0x80 << (8 * (rowbox - 1));
 8000dc4:	697b      	ldr	r3, [r7, #20]
 8000dc6:	3b01      	subs	r3, #1
 8000dc8:	00db      	lsls	r3, r3, #3
 8000dca:	2280      	movs	r2, #128	; 0x80
 8000dcc:	fa02 f303 	lsl.w	r3, r2, r3
 8000dd0:	613b      	str	r3, [r7, #16]

	//// -32 to offset sync ASCII Table start " " at 32
	//// double for loop as one char table
	for(int i = 0; i < fonto.Height; i++){
 8000dd2:	2300      	movs	r3, #0
 8000dd4:	623b      	str	r3, [r7, #32]
 8000dd6:	e060      	b.n	8000e9a <ili9486_WriteChar+0x11a>

		hop32 = 0;
 8000dd8:	2300      	movs	r3, #0
 8000dda:	627b      	str	r3, [r7, #36]	; 0x24
		for(int k = 0;k < rowbox;k++){
 8000ddc:	2300      	movs	r3, #0
 8000dde:	61fb      	str	r3, [r7, #28]
 8000de0:	e024      	b.n	8000e2c <ili9486_WriteChar+0xac>
			b8[k] = fonto.table[((int)(*chr - 32) * fonto.Height * rowbox) + (i * rowbox) + k];
 8000de2:	6b7b      	ldr	r3, [r7, #52]	; 0x34
 8000de4:	683a      	ldr	r2, [r7, #0]
 8000de6:	7812      	ldrb	r2, [r2, #0]
 8000de8:	3a20      	subs	r2, #32
 8000dea:	8f79      	ldrh	r1, [r7, #58]	; 0x3a
 8000dec:	fb01 f202 	mul.w	r2, r1, r2
 8000df0:	6979      	ldr	r1, [r7, #20]
 8000df2:	fb02 f101 	mul.w	r1, r2, r1
 8000df6:	6a3a      	ldr	r2, [r7, #32]
 8000df8:	6978      	ldr	r0, [r7, #20]
 8000dfa:	fb00 f202 	mul.w	r2, r0, r2
 8000dfe:	4411      	add	r1, r2
 8000e00:	69fa      	ldr	r2, [r7, #28]
 8000e02:	440a      	add	r2, r1
 8000e04:	4413      	add	r3, r2
 8000e06:	7819      	ldrb	r1, [r3, #0]
 8000e08:	f107 020c 	add.w	r2, r7, #12
 8000e0c:	69fb      	ldr	r3, [r7, #28]
 8000e0e:	4413      	add	r3, r2
 8000e10:	460a      	mov	r2, r1
 8000e12:	701a      	strb	r2, [r3, #0]
			hop32 = (hop32 << 8) + b8[k];
 8000e14:	6a7b      	ldr	r3, [r7, #36]	; 0x24
 8000e16:	021b      	lsls	r3, r3, #8
 8000e18:	f107 010c 	add.w	r1, r7, #12
 8000e1c:	69fa      	ldr	r2, [r7, #28]
 8000e1e:	440a      	add	r2, r1
 8000e20:	7812      	ldrb	r2, [r2, #0]
 8000e22:	4413      	add	r3, r2
 8000e24:	627b      	str	r3, [r7, #36]	; 0x24
		for(int k = 0;k < rowbox;k++){
 8000e26:	69fb      	ldr	r3, [r7, #28]
 8000e28:	3301      	adds	r3, #1
 8000e2a:	61fb      	str	r3, [r7, #28]
 8000e2c:	69fa      	ldr	r2, [r7, #28]
 8000e2e:	697b      	ldr	r3, [r7, #20]
 8000e30:	429a      	cmp	r2, r3
 8000e32:	dbd6      	blt.n	8000de2 <ili9486_WriteChar+0x62>
		}

		for(int j = 0; j < fonto.Width; j++){
 8000e34:	2300      	movs	r3, #0
 8000e36:	61bb      	str	r3, [r7, #24]
 8000e38:	e027      	b.n	8000e8a <ili9486_WriteChar+0x10a>
			//// if valuein fonttable is 1
			if((hop32 << j) & clif_msb){ // buu32.b32
 8000e3a:	6a7a      	ldr	r2, [r7, #36]	; 0x24
 8000e3c:	69bb      	ldr	r3, [r7, #24]
 8000e3e:	409a      	lsls	r2, r3
 8000e40:	693b      	ldr	r3, [r7, #16]
 8000e42:	4013      	ands	r3, r2
 8000e44:	2b00      	cmp	r3, #0
 8000e46:	d00e      	beq.n	8000e66 <ili9486_WriteChar+0xe6>
				ili9486_WritePixel(Xpo + j, Ypo + i, RGB_Coder);
 8000e48:	69bb      	ldr	r3, [r7, #24]
 8000e4a:	b29a      	uxth	r2, r3
 8000e4c:	88fb      	ldrh	r3, [r7, #6]
 8000e4e:	4413      	add	r3, r2
 8000e50:	b298      	uxth	r0, r3
 8000e52:	6a3b      	ldr	r3, [r7, #32]
 8000e54:	b29a      	uxth	r2, r3
 8000e56:	88bb      	ldrh	r3, [r7, #4]
 8000e58:	4413      	add	r3, r2
 8000e5a:	b29b      	uxth	r3, r3
 8000e5c:	8fba      	ldrh	r2, [r7, #60]	; 0x3c
 8000e5e:	4619      	mov	r1, r3
 8000e60:	f7ff fcc0 	bl	80007e4 <ili9486_WritePixel>
 8000e64:	e00e      	b.n	8000e84 <ili9486_WriteChar+0x104>
			}
			//// for background write
			else{
				ili9486_WritePixel(Xpo + j, Ypo + i, RGB_bg);
 8000e66:	69bb      	ldr	r3, [r7, #24]
 8000e68:	b29a      	uxth	r2, r3
 8000e6a:	88fb      	ldrh	r3, [r7, #6]
 8000e6c:	4413      	add	r3, r2
 8000e6e:	b298      	uxth	r0, r3
 8000e70:	6a3b      	ldr	r3, [r7, #32]
 8000e72:	b29a      	uxth	r2, r3
 8000e74:	88bb      	ldrh	r3, [r7, #4]
 8000e76:	4413      	add	r3, r2
 8000e78:	b29b      	uxth	r3, r3
 8000e7a:	f8b7 2040 	ldrh.w	r2, [r7, #64]	; 0x40
 8000e7e:	4619      	mov	r1, r3
 8000e80:	f7ff fcb0 	bl	80007e4 <ili9486_WritePixel>
		for(int j = 0; j < fonto.Width; j++){
 8000e84:	69bb      	ldr	r3, [r7, #24]
 8000e86:	3301      	adds	r3, #1
 8000e88:	61bb      	str	r3, [r7, #24]
 8000e8a:	8f3b      	ldrh	r3, [r7, #56]	; 0x38
 8000e8c:	461a      	mov	r2, r3
 8000e8e:	69bb      	ldr	r3, [r7, #24]
 8000e90:	4293      	cmp	r3, r2
 8000e92:	dbd2      	blt.n	8000e3a <ili9486_WriteChar+0xba>
	for(int i = 0; i < fonto.Height; i++){
 8000e94:	6a3b      	ldr	r3, [r7, #32]
 8000e96:	3301      	adds	r3, #1
 8000e98:	623b      	str	r3, [r7, #32]
 8000e9a:	8f7b      	ldrh	r3, [r7, #58]	; 0x3a
 8000e9c:	461a      	mov	r2, r3
 8000e9e:	6a3b      	ldr	r3, [r7, #32]
 8000ea0:	4293      	cmp	r3, r2
 8000ea2:	db99      	blt.n	8000dd8 <ili9486_WriteChar+0x58>
			}

		}
	}
}
 8000ea4:	bf00      	nop
 8000ea6:	bf00      	nop
 8000ea8:	3728      	adds	r7, #40	; 0x28
 8000eaa:	46bd      	mov	sp, r7
 8000eac:	e8bd 4080 	ldmia.w	sp!, {r7, lr}
 8000eb0:	b002      	add	sp, #8
 8000eb2:	4770      	bx	lr

08000eb4 <ili9486_WriteString>:

void ili9486_WriteString(uint16_t Xpo, uint16_t Ypo,const char* strr,sFONT fonto, uint16_t RGB_Coder, uint16_t RGB_bg){
 8000eb4:	b082      	sub	sp, #8
 8000eb6:	b580      	push	{r7, lr}
 8000eb8:	b088      	sub	sp, #32
 8000eba:	af04      	add	r7, sp, #16
 8000ebc:	603a      	str	r2, [r7, #0]
 8000ebe:	61fb      	str	r3, [r7, #28]
 8000ec0:	4603      	mov	r3, r0
 8000ec2:	80fb      	strh	r3, [r7, #6]
 8000ec4:	460b      	mov	r3, r1
 8000ec6:	80bb      	strh	r3, [r7, #4]

	uint16_t ili_heigh = ili9486_GetLcdPixelHeight();
 8000ec8:	f7ff fbaf 	bl	800062a <ili9486_GetLcdPixelHeight>
 8000ecc:	4603      	mov	r3, r0
 8000ece:	81fb      	strh	r3, [r7, #14]
	uint16_t ili_width = ili9486_GetLcdPixelWidth();
 8000ed0:	f7ff fba2 	bl	8000618 <ili9486_GetLcdPixelWidth>
 8000ed4:	4603      	mov	r3, r0
 8000ed6:	81bb      	strh	r3, [r7, #12]

	while(*strr){
 8000ed8:	e02c      	b.n	8000f34 <ili9486_WriteString+0x80>

	//// Check screen overflow / new line
		if(Xpo + fonto.Width >= ili_width){
 8000eda:	88fb      	ldrh	r3, [r7, #6]
 8000edc:	8c3a      	ldrh	r2, [r7, #32]
 8000ede:	441a      	add	r2, r3
 8000ee0:	89bb      	ldrh	r3, [r7, #12]
 8000ee2:	429a      	cmp	r2, r3
 8000ee4:	db13      	blt.n	8000f0e <ili9486_WriteString+0x5a>
			Xpo = 0;
 8000ee6:	2300      	movs	r3, #0
 8000ee8:	80fb      	strh	r3, [r7, #6]
			Ypo += fonto.Height;
 8000eea:	8c7a      	ldrh	r2, [r7, #34]	; 0x22
 8000eec:	88bb      	ldrh	r3, [r7, #4]
 8000eee:	4413      	add	r3, r2
 8000ef0:	80bb      	strh	r3, [r7, #4]

			if(Ypo + fonto.Height >= ili_heigh){
 8000ef2:	88bb      	ldrh	r3, [r7, #4]
 8000ef4:	8c7a      	ldrh	r2, [r7, #34]	; 0x22
 8000ef6:	441a      	add	r2, r3
 8000ef8:	89fb      	ldrh	r3, [r7, #14]
 8000efa:	429a      	cmp	r2, r3
 8000efc:	da1f      	bge.n	8000f3e <ili9486_WriteString+0x8a>
				break;
			}

			if(*strr == ' ') {
 8000efe:	683b      	ldr	r3, [r7, #0]
 8000f00:	781b      	ldrb	r3, [r3, #0]
 8000f02:	2b20      	cmp	r3, #32
 8000f04:	d103      	bne.n	8000f0e <ili9486_WriteString+0x5a>
				// skip spaces in the beginning of the new line
				strr++;
 8000f06:	683b      	ldr	r3, [r7, #0]
 8000f08:	3301      	adds	r3, #1
 8000f0a:	603b      	str	r3, [r7, #0]
				continue;
 8000f0c:	e012      	b.n	8000f34 <ili9486_WriteString+0x80>
			}
		}
		//ST7735_WriteChar(x, y, *str, font, color, bgcolor);
		ili9486_WriteChar(Xpo, Ypo, strr, fonto, RGB_Coder, RGB_bg);
 8000f0e:	88b9      	ldrh	r1, [r7, #4]
 8000f10:	88f8      	ldrh	r0, [r7, #6]
 8000f12:	8d3b      	ldrh	r3, [r7, #40]	; 0x28
 8000f14:	9302      	str	r3, [sp, #8]
 8000f16:	8cbb      	ldrh	r3, [r7, #36]	; 0x24
 8000f18:	9301      	str	r3, [sp, #4]
 8000f1a:	6a3b      	ldr	r3, [r7, #32]
 8000f1c:	9300      	str	r3, [sp, #0]
 8000f1e:	69fb      	ldr	r3, [r7, #28]
 8000f20:	683a      	ldr	r2, [r7, #0]
 8000f22:	f7ff ff2d 	bl	8000d80 <ili9486_WriteChar>
		Xpo += fonto.Width;
 8000f26:	8c3a      	ldrh	r2, [r7, #32]
 8000f28:	88fb      	ldrh	r3, [r7, #6]
 8000f2a:	4413      	add	r3, r2
 8000f2c:	80fb      	strh	r3, [r7, #6]
		strr++;
 8000f2e:	683b      	ldr	r3, [r7, #0]
 8000f30:	3301      	adds	r3, #1
 8000f32:	603b      	str	r3, [r7, #0]
	while(*strr){
 8000f34:	683b      	ldr	r3, [r7, #0]
 8000f36:	781b      	ldrb	r3, [r3, #0]
 8000f38:	2b00      	cmp	r3, #0
 8000f3a:	d1ce      	bne.n	8000eda <ili9486_WriteString+0x26>
	}
}
 8000f3c:	e000      	b.n	8000f40 <ili9486_WriteString+0x8c>
				break;
 8000f3e:	bf00      	nop
}
 8000f40:	bf00      	nop
 8000f42:	3710      	adds	r7, #16
 8000f44:	46bd      	mov	sp, r7
 8000f46:	e8bd 4080 	ldmia.w	sp!, {r7, lr}
 8000f4a:	b002      	add	sp, #8
 8000f4c:	4770      	bx	lr
	...

08000f50 <ili9486_Scroll>:
  * @param  TopFix    : Top fix size [pixel]
  * @param  BottonFix : Botton fix size [pixel]
  * @retval None
  */
void ili9486_Scroll(int16_t Scroll, uint16_t TopFix, uint16_t BottonFix)
{
 8000f50:	b580      	push	{r7, lr}
 8000f52:	b082      	sub	sp, #8
 8000f54:	af00      	add	r7, sp, #0
 8000f56:	4603      	mov	r3, r0
 8000f58:	80fb      	strh	r3, [r7, #6]
 8000f5a:	460b      	mov	r3, r1
 8000f5c:	80bb      	strh	r3, [r7, #4]
 8000f5e:	4613      	mov	r3, r2
 8000f60:	807b      	strh	r3, [r7, #2]
  if(Scroll < 0)
    Scroll = scrparam[2] + Scroll + scrparam[1];
  else
    Scroll = Scroll + scrparam[1];
  #elif (ILI9486_ORIENTATION == 1)
  if((TopFix != scrparam[1]) || (BottonFix != scrparam[3]))
 8000f62:	4b29      	ldr	r3, [pc, #164]	; (8001008 <ili9486_Scroll+0xb8>)
 8000f64:	885b      	ldrh	r3, [r3, #2]
 8000f66:	88ba      	ldrh	r2, [r7, #4]
 8000f68:	429a      	cmp	r2, r3
 8000f6a:	d104      	bne.n	8000f76 <ili9486_Scroll+0x26>
 8000f6c:	4b26      	ldr	r3, [pc, #152]	; (8001008 <ili9486_Scroll+0xb8>)
 8000f6e:	88db      	ldrh	r3, [r3, #6]
 8000f70:	887a      	ldrh	r2, [r7, #2]
 8000f72:	429a      	cmp	r2, r3
 8000f74:	d013      	beq.n	8000f9e <ili9486_Scroll+0x4e>
  {
    scrparam[1] = TopFix;
 8000f76:	4a24      	ldr	r2, [pc, #144]	; (8001008 <ili9486_Scroll+0xb8>)
 8000f78:	88bb      	ldrh	r3, [r7, #4]
 8000f7a:	8053      	strh	r3, [r2, #2]
    scrparam[3] = BottonFix;
 8000f7c:	4a22      	ldr	r2, [pc, #136]	; (8001008 <ili9486_Scroll+0xb8>)
 8000f7e:	887b      	ldrh	r3, [r7, #2]
 8000f80:	80d3      	strh	r3, [r2, #6]
    scrparam[2] = ILI9486_LCD_PIXEL_HEIGHT - TopFix - BottonFix;
 8000f82:	88ba      	ldrh	r2, [r7, #4]
 8000f84:	887b      	ldrh	r3, [r7, #2]
 8000f86:	4413      	add	r3, r2
 8000f88:	b29b      	uxth	r3, r3
 8000f8a:	f5c3 73f0 	rsb	r3, r3, #480	; 0x1e0
 8000f8e:	b29a      	uxth	r2, r3
 8000f90:	4b1d      	ldr	r3, [pc, #116]	; (8001008 <ili9486_Scroll+0xb8>)
 8000f92:	809a      	strh	r2, [r3, #4]
    LCD_IO_WriteCmd8MultipleData16(ILI9486_VSCRDEF, &scrparam[1], 3);
 8000f94:	2203      	movs	r2, #3
 8000f96:	491d      	ldr	r1, [pc, #116]	; (800100c <ili9486_Scroll+0xbc>)
 8000f98:	2033      	movs	r0, #51	; 0x33
 8000f9a:	f000 fec9 	bl	8001d30 <LCD_IO_WriteCmd8MultipleData16>
  }
  Scroll = (0 - Scroll) % scrparam[2];
 8000f9e:	f9b7 3006 	ldrsh.w	r3, [r7, #6]
 8000fa2:	425b      	negs	r3, r3
 8000fa4:	4a18      	ldr	r2, [pc, #96]	; (8001008 <ili9486_Scroll+0xb8>)
 8000fa6:	8892      	ldrh	r2, [r2, #4]
 8000fa8:	fb93 f1f2 	sdiv	r1, r3, r2
 8000fac:	fb01 f202 	mul.w	r2, r1, r2
 8000fb0:	1a9b      	subs	r3, r3, r2
 8000fb2:	80fb      	strh	r3, [r7, #6]
  if(Scroll < 0)
 8000fb4:	f9b7 3006 	ldrsh.w	r3, [r7, #6]
 8000fb8:	2b00      	cmp	r3, #0
 8000fba:	da0a      	bge.n	8000fd2 <ili9486_Scroll+0x82>
    Scroll = scrparam[2] + Scroll + scrparam[1];
 8000fbc:	4b12      	ldr	r3, [pc, #72]	; (8001008 <ili9486_Scroll+0xb8>)
 8000fbe:	889a      	ldrh	r2, [r3, #4]
 8000fc0:	88fb      	ldrh	r3, [r7, #6]
 8000fc2:	4413      	add	r3, r2
 8000fc4:	b29a      	uxth	r2, r3
 8000fc6:	4b10      	ldr	r3, [pc, #64]	; (8001008 <ili9486_Scroll+0xb8>)
 8000fc8:	885b      	ldrh	r3, [r3, #2]
 8000fca:	4413      	add	r3, r2
 8000fcc:	b29b      	uxth	r3, r3
 8000fce:	80fb      	strh	r3, [r7, #6]
 8000fd0:	e005      	b.n	8000fde <ili9486_Scroll+0x8e>
  else
    Scroll = Scroll + scrparam[1];
 8000fd2:	4b0d      	ldr	r3, [pc, #52]	; (8001008 <ili9486_Scroll+0xb8>)
 8000fd4:	885a      	ldrh	r2, [r3, #2]
 8000fd6:	88fb      	ldrh	r3, [r7, #6]
 8000fd8:	4413      	add	r3, r2
 8000fda:	b29b      	uxth	r3, r3
 8000fdc:	80fb      	strh	r3, [r7, #6]
  if(Scroll < 0)
    Scroll = scrparam[2] + Scroll + scrparam[1];
  else
    Scroll = Scroll + scrparam[1];
  #endif
  if(Scroll != scrparam[0])
 8000fde:	f9b7 3006 	ldrsh.w	r3, [r7, #6]
 8000fe2:	4a09      	ldr	r2, [pc, #36]	; (8001008 <ili9486_Scroll+0xb8>)
 8000fe4:	8812      	ldrh	r2, [r2, #0]
 8000fe6:	4293      	cmp	r3, r2
 8000fe8:	d009      	beq.n	8000ffe <ili9486_Scroll+0xae>
  {
    scrparam[0] = Scroll;
 8000fea:	88fa      	ldrh	r2, [r7, #6]
 8000fec:	4b06      	ldr	r3, [pc, #24]	; (8001008 <ili9486_Scroll+0xb8>)
 8000fee:	801a      	strh	r2, [r3, #0]
    LCD_IO_WriteCmd8DataFill16(ILI9486_VSCRSADD, scrparam[0], 1);
 8000ff0:	4b05      	ldr	r3, [pc, #20]	; (8001008 <ili9486_Scroll+0xb8>)
 8000ff2:	881b      	ldrh	r3, [r3, #0]
 8000ff4:	2201      	movs	r2, #1
 8000ff6:	4619      	mov	r1, r3
 8000ff8:	2037      	movs	r0, #55	; 0x37
 8000ffa:	f000 fb91 	bl	8001720 <LCD_IO_WriteCmd8DataFill16>
  }
  ILI9486_LCDMUTEX_POP();
}
 8000ffe:	bf00      	nop
 8001000:	3708      	adds	r7, #8
 8001002:	46bd      	mov	sp, r7
 8001004:	bd80      	pop	{r7, pc}
 8001006:	bf00      	nop
 8001008:	240000a4 	.word	0x240000a4
 800100c:	240000a6 	.word	0x240000a6

08001010 <LCD_IO_Delay>:
#elif   defined(__CC_ARM)
#pragma push
#pragma O0
#endif
void LCD_IO_Delay(uint32_t c)
{
 8001010:	b480      	push	{r7}
 8001012:	b083      	sub	sp, #12
 8001014:	af00      	add	r7, sp, #0
 8001016:	6078      	str	r0, [r7, #4]
  while(c--);
 8001018:	bf00      	nop
 800101a:	687b      	ldr	r3, [r7, #4]
 800101c:	1e5a      	subs	r2, r3, #1
 800101e:	607a      	str	r2, [r7, #4]
 8001020:	2b00      	cmp	r3, #0
 8001022:	d1fa      	bne.n	800101a <LCD_IO_Delay+0xa>
}
 8001024:	bf00      	nop
 8001026:	bf00      	nop
 8001028:	370c      	adds	r7, #12
 800102a:	46bd      	mov	sp, r7
 800102c:	f85d 7b04 	ldr.w	r7, [sp], #4
 8001030:	4770      	bx	lr

08001032 <LCD_Delay>:
#pragma pop
#endif

//-----------------------------------------------------------------------------
void LCD_Delay(uint32_t Delay)
{
 8001032:	b580      	push	{r7, lr}
 8001034:	b082      	sub	sp, #8
 8001036:	af00      	add	r7, sp, #0
 8001038:	6078      	str	r0, [r7, #4]
  HAL_Delay(Delay);
 800103a:	6878      	ldr	r0, [r7, #4]
 800103c:	f002 fd90 	bl	8003b60 <HAL_Delay>
}
 8001040:	bf00      	nop
 8001042:	3708      	adds	r7, #8
 8001044:	46bd      	mov	sp, r7
 8001046:	bd80      	pop	{r7, pc}

08001048 <LCD_IO_Bl_OnOff>:

//-----------------------------------------------------------------------------
void LCD_IO_Bl_OnOff(uint8_t Bl)
{
 8001048:	b480      	push	{r7}
 800104a:	b083      	sub	sp, #12
 800104c:	af00      	add	r7, sp, #0
 800104e:	4603      	mov	r3, r0
 8001050:	71fb      	strb	r3, [r7, #7]
    GPIOX_CLR(LCD_BL);
  else
    GPIOX_SET(LCD_BL);
  #endif
  #endif
}
 8001052:	bf00      	nop
 8001054:	370c      	adds	r7, #12
 8001056:	46bd      	mov	sp, r7
 8001058:	f85d 7b04 	ldr.w	r7, [sp], #4
 800105c:	4770      	bx	lr
	...

08001060 <LCD_IO_Init>:

//-----------------------------------------------------------------------------
void LCD_IO_Init(void)
{
 8001060:	b580      	push	{r7, lr}
 8001062:	af00      	add	r7, sp, #0
  #define GPIOX_CLOCK_LCD_RD    GPIOX_CLOCK(LCD_RD)
  #else
  #define GPIOX_CLOCK_LCD_RD    0
  #endif

  RCC->AHB4ENR |= (GPIOX_CLOCK(LCD_CS) | GPIOX_CLOCK(LCD_RS) | GPIOX_CLOCK(LCD_WR) |
 8001064:	4b6c      	ldr	r3, [pc, #432]	; (8001218 <LCD_IO_Init+0x1b8>)
 8001066:	f8d3 3140 	ldr.w	r3, [r3, #320]	; 0x140
 800106a:	4a6b      	ldr	r2, [pc, #428]	; (8001218 <LCD_IO_Init+0x1b8>)
 800106c:	f043 035f 	orr.w	r3, r3, #95	; 0x5f
 8001070:	f8c2 3140 	str.w	r3, [r2, #320]	; 0x140
                   GPIOX_CLOCK(LCD_D0) | GPIOX_CLOCK(LCD_D1) | GPIOX_CLOCK(LCD_D2) | GPIOX_CLOCK(LCD_D3) |
                   GPIOX_CLOCK(LCD_D4) | GPIOX_CLOCK(LCD_D5) | GPIOX_CLOCK(LCD_D6) | GPIOX_CLOCK(LCD_D7) |
                   GPIOX_CLOCK_LCD_RST | GPIOX_CLOCK_LCD_BL  | GPIOX_CLOCK_LCD_RD);

  #if GPIOX_PORTNUM(LCD_RST) >= GPIOX_PORTNUM_A
  LCD_RST_OFF;                          /* RST = 1 */
 8001074:	4b69      	ldr	r3, [pc, #420]	; (800121c <LCD_IO_Init+0x1bc>)
 8001076:	2204      	movs	r2, #4
 8001078:	619a      	str	r2, [r3, #24]
  GPIOX_MODER(MODE_OUT, LCD_RST);
 800107a:	4b68      	ldr	r3, [pc, #416]	; (800121c <LCD_IO_Init+0x1bc>)
 800107c:	681b      	ldr	r3, [r3, #0]
 800107e:	f023 0330 	bic.w	r3, r3, #48	; 0x30
 8001082:	4a66      	ldr	r2, [pc, #408]	; (800121c <LCD_IO_Init+0x1bc>)
 8001084:	f043 0310 	orr.w	r3, r3, #16
 8001088:	6013      	str	r3, [r2, #0]
  #if GPIOX_PORTNUM(LCD_BL) >= GPIOX_PORTNUM_A
  GPIOX_ODR(LCD_BL) = LCD_BLON;
  GPIOX_MODER(MODE_OUT, LCD_BL);
  #endif

  GPIOX_SET(LCD_CS);                    /* CS = 1 */
 800108a:	4b65      	ldr	r3, [pc, #404]	; (8001220 <LCD_IO_Init+0x1c0>)
 800108c:	2202      	movs	r2, #2
 800108e:	619a      	str	r2, [r3, #24]
  LCD_RS_DATA;                          /* RS = 1 */
 8001090:	4b62      	ldr	r3, [pc, #392]	; (800121c <LCD_IO_Init+0x1bc>)
 8001092:	2208      	movs	r2, #8
 8001094:	619a      	str	r2, [r3, #24]
  GPIOX_SET(LCD_WR);                    /* WR = 1 */
 8001096:	4b61      	ldr	r3, [pc, #388]	; (800121c <LCD_IO_Init+0x1bc>)
 8001098:	2201      	movs	r2, #1
 800109a:	619a      	str	r2, [r3, #24]
  #if GPIOX_PORTNUM(LCD_RD) >=  GPIOX_PORTNUM_A
  GPIOX_SET(LCD_RD);                    /* RD = 1 */
 800109c:	4b61      	ldr	r3, [pc, #388]	; (8001224 <LCD_IO_Init+0x1c4>)
 800109e:	2208      	movs	r2, #8
 80010a0:	619a      	str	r2, [r3, #24]
  #endif

  GPIOX_MODER(MODE_OUT, LCD_CS);
 80010a2:	4b5f      	ldr	r3, [pc, #380]	; (8001220 <LCD_IO_Init+0x1c0>)
 80010a4:	681b      	ldr	r3, [r3, #0]
 80010a6:	f023 030c 	bic.w	r3, r3, #12
 80010aa:	4a5d      	ldr	r2, [pc, #372]	; (8001220 <LCD_IO_Init+0x1c0>)
 80010ac:	f043 0304 	orr.w	r3, r3, #4
 80010b0:	6013      	str	r3, [r2, #0]
  GPIOX_MODER(MODE_OUT, LCD_RS);
 80010b2:	4b5a      	ldr	r3, [pc, #360]	; (800121c <LCD_IO_Init+0x1bc>)
 80010b4:	681b      	ldr	r3, [r3, #0]
 80010b6:	f023 03c0 	bic.w	r3, r3, #192	; 0xc0
 80010ba:	4a58      	ldr	r2, [pc, #352]	; (800121c <LCD_IO_Init+0x1bc>)
 80010bc:	f043 0340 	orr.w	r3, r3, #64	; 0x40
 80010c0:	6013      	str	r3, [r2, #0]
  GPIOX_MODER(MODE_OUT, LCD_WR);
 80010c2:	4b56      	ldr	r3, [pc, #344]	; (800121c <LCD_IO_Init+0x1bc>)
 80010c4:	681b      	ldr	r3, [r3, #0]
 80010c6:	f023 0303 	bic.w	r3, r3, #3
 80010ca:	4a54      	ldr	r2, [pc, #336]	; (800121c <LCD_IO_Init+0x1bc>)
 80010cc:	f043 0301 	orr.w	r3, r3, #1
 80010d0:	6013      	str	r3, [r2, #0]
  #if GPIOX_PORTNUM(LCD_RD) >=  GPIOX_PORTNUM_A
  GPIOX_MODER(MODE_OUT, LCD_RD);
 80010d2:	4b54      	ldr	r3, [pc, #336]	; (8001224 <LCD_IO_Init+0x1c4>)
 80010d4:	681b      	ldr	r3, [r3, #0]
 80010d6:	f023 03c0 	bic.w	r3, r3, #192	; 0xc0
 80010da:	4a52      	ldr	r2, [pc, #328]	; (8001224 <LCD_IO_Init+0x1c4>)
 80010dc:	f043 0340 	orr.w	r3, r3, #64	; 0x40
 80010e0:	6013      	str	r3, [r2, #0]
  #endif

  LCD_DIRWRITE;                         /* data pins set the output direction */
 80010e2:	4b51      	ldr	r3, [pc, #324]	; (8001228 <LCD_IO_Init+0x1c8>)
 80010e4:	681b      	ldr	r3, [r3, #0]
 80010e6:	f423 2340 	bic.w	r3, r3, #786432	; 0xc0000
 80010ea:	4a4f      	ldr	r2, [pc, #316]	; (8001228 <LCD_IO_Init+0x1c8>)
 80010ec:	f443 2380 	orr.w	r3, r3, #262144	; 0x40000
 80010f0:	6013      	str	r3, [r2, #0]
 80010f2:	4b4e      	ldr	r3, [pc, #312]	; (800122c <LCD_IO_Init+0x1cc>)
 80010f4:	681b      	ldr	r3, [r3, #0]
 80010f6:	f023 4340 	bic.w	r3, r3, #3221225472	; 0xc0000000
 80010fa:	4a4c      	ldr	r2, [pc, #304]	; (800122c <LCD_IO_Init+0x1cc>)
 80010fc:	f043 4380 	orr.w	r3, r3, #1073741824	; 0x40000000
 8001100:	6013      	str	r3, [r2, #0]
 8001102:	4b49      	ldr	r3, [pc, #292]	; (8001228 <LCD_IO_Init+0x1c8>)
 8001104:	681b      	ldr	r3, [r3, #0]
 8001106:	f023 5340 	bic.w	r3, r3, #805306368	; 0x30000000
 800110a:	4a47      	ldr	r2, [pc, #284]	; (8001228 <LCD_IO_Init+0x1c8>)
 800110c:	f043 5380 	orr.w	r3, r3, #268435456	; 0x10000000
 8001110:	6013      	str	r3, [r2, #0]
 8001112:	4b47      	ldr	r3, [pc, #284]	; (8001230 <LCD_IO_Init+0x1d0>)
 8001114:	681b      	ldr	r3, [r3, #0]
 8001116:	f023 6340 	bic.w	r3, r3, #201326592	; 0xc000000
 800111a:	4a45      	ldr	r2, [pc, #276]	; (8001230 <LCD_IO_Init+0x1d0>)
 800111c:	f043 6380 	orr.w	r3, r3, #67108864	; 0x4000000
 8001120:	6013      	str	r3, [r2, #0]
 8001122:	4b43      	ldr	r3, [pc, #268]	; (8001230 <LCD_IO_Init+0x1d0>)
 8001124:	681b      	ldr	r3, [r3, #0]
 8001126:	f023 5340 	bic.w	r3, r3, #805306368	; 0x30000000
 800112a:	4a41      	ldr	r2, [pc, #260]	; (8001230 <LCD_IO_Init+0x1d0>)
 800112c:	f043 5380 	orr.w	r3, r3, #268435456	; 0x10000000
 8001130:	6013      	str	r3, [r2, #0]
 8001132:	4b3f      	ldr	r3, [pc, #252]	; (8001230 <LCD_IO_Init+0x1d0>)
 8001134:	681b      	ldr	r3, [r3, #0]
 8001136:	f423 0340 	bic.w	r3, r3, #12582912	; 0xc00000
 800113a:	4a3d      	ldr	r2, [pc, #244]	; (8001230 <LCD_IO_Init+0x1d0>)
 800113c:	f443 0380 	orr.w	r3, r3, #4194304	; 0x400000
 8001140:	6013      	str	r3, [r2, #0]
 8001142:	4b38      	ldr	r3, [pc, #224]	; (8001224 <LCD_IO_Init+0x1c4>)
 8001144:	681b      	ldr	r3, [r3, #0]
 8001146:	f423 3340 	bic.w	r3, r3, #196608	; 0x30000
 800114a:	4a36      	ldr	r2, [pc, #216]	; (8001224 <LCD_IO_Init+0x1c4>)
 800114c:	f443 3380 	orr.w	r3, r3, #65536	; 0x10000
 8001150:	6013      	str	r3, [r2, #0]
 8001152:	4b35      	ldr	r3, [pc, #212]	; (8001228 <LCD_IO_Init+0x1c8>)
 8001154:	681b      	ldr	r3, [r3, #0]
 8001156:	f023 7340 	bic.w	r3, r3, #50331648	; 0x3000000
 800115a:	4a33      	ldr	r2, [pc, #204]	; (8001228 <LCD_IO_Init+0x1c8>)
 800115c:	f043 7380 	orr.w	r3, r3, #16777216	; 0x1000000
 8001160:	6013      	str	r3, [r2, #0]

  /* GPIO speed */
  GPIOX_OSPEEDR(MODE_SPD_VHIGH, LCD_CS);
 8001162:	4b2f      	ldr	r3, [pc, #188]	; (8001220 <LCD_IO_Init+0x1c0>)
 8001164:	689b      	ldr	r3, [r3, #8]
 8001166:	4a2e      	ldr	r2, [pc, #184]	; (8001220 <LCD_IO_Init+0x1c0>)
 8001168:	f043 030c 	orr.w	r3, r3, #12
 800116c:	6093      	str	r3, [r2, #8]
  GPIOX_OSPEEDR(MODE_SPD_VHIGH, LCD_RS);
 800116e:	4b2b      	ldr	r3, [pc, #172]	; (800121c <LCD_IO_Init+0x1bc>)
 8001170:	689b      	ldr	r3, [r3, #8]
 8001172:	4a2a      	ldr	r2, [pc, #168]	; (800121c <LCD_IO_Init+0x1bc>)
 8001174:	f043 03c0 	orr.w	r3, r3, #192	; 0xc0
 8001178:	6093      	str	r3, [r2, #8]
  GPIOX_OSPEEDR(MODE_SPD_VHIGH, LCD_WR);
 800117a:	4b28      	ldr	r3, [pc, #160]	; (800121c <LCD_IO_Init+0x1bc>)
 800117c:	689b      	ldr	r3, [r3, #8]
 800117e:	4a27      	ldr	r2, [pc, #156]	; (800121c <LCD_IO_Init+0x1bc>)
 8001180:	f043 0303 	orr.w	r3, r3, #3
 8001184:	6093      	str	r3, [r2, #8]
  #if GPIOX_PORTNUM(LCD_RD) >=  GPIOX_PORTNUM_A
  GPIOX_OSPEEDR(MODE_SPD_VHIGH, LCD_RD);
 8001186:	4b27      	ldr	r3, [pc, #156]	; (8001224 <LCD_IO_Init+0x1c4>)
 8001188:	689b      	ldr	r3, [r3, #8]
 800118a:	4a26      	ldr	r2, [pc, #152]	; (8001224 <LCD_IO_Init+0x1c4>)
 800118c:	f043 03c0 	orr.w	r3, r3, #192	; 0xc0
 8001190:	6093      	str	r3, [r2, #8]
  #endif
  GPIOX_OSPEEDR(MODE_SPD_VHIGH, LCD_D0);
 8001192:	4b25      	ldr	r3, [pc, #148]	; (8001228 <LCD_IO_Init+0x1c8>)
 8001194:	689b      	ldr	r3, [r3, #8]
 8001196:	4a24      	ldr	r2, [pc, #144]	; (8001228 <LCD_IO_Init+0x1c8>)
 8001198:	f443 2340 	orr.w	r3, r3, #786432	; 0xc0000
 800119c:	6093      	str	r3, [r2, #8]
  GPIOX_OSPEEDR(MODE_SPD_VHIGH, LCD_D1);
 800119e:	4b23      	ldr	r3, [pc, #140]	; (800122c <LCD_IO_Init+0x1cc>)
 80011a0:	689b      	ldr	r3, [r3, #8]
 80011a2:	4a22      	ldr	r2, [pc, #136]	; (800122c <LCD_IO_Init+0x1cc>)
 80011a4:	f043 4340 	orr.w	r3, r3, #3221225472	; 0xc0000000
 80011a8:	6093      	str	r3, [r2, #8]
  GPIOX_OSPEEDR(MODE_SPD_VHIGH, LCD_D2);
 80011aa:	4b1f      	ldr	r3, [pc, #124]	; (8001228 <LCD_IO_Init+0x1c8>)
 80011ac:	689b      	ldr	r3, [r3, #8]
 80011ae:	4a1e      	ldr	r2, [pc, #120]	; (8001228 <LCD_IO_Init+0x1c8>)
 80011b0:	f043 5340 	orr.w	r3, r3, #805306368	; 0x30000000
 80011b4:	6093      	str	r3, [r2, #8]
  GPIOX_OSPEEDR(MODE_SPD_VHIGH, LCD_D3);
 80011b6:	4b1e      	ldr	r3, [pc, #120]	; (8001230 <LCD_IO_Init+0x1d0>)
 80011b8:	689b      	ldr	r3, [r3, #8]
 80011ba:	4a1d      	ldr	r2, [pc, #116]	; (8001230 <LCD_IO_Init+0x1d0>)
 80011bc:	f043 6340 	orr.w	r3, r3, #201326592	; 0xc000000
 80011c0:	6093      	str	r3, [r2, #8]
  GPIOX_OSPEEDR(MODE_SPD_VHIGH, LCD_D4);
 80011c2:	4b1b      	ldr	r3, [pc, #108]	; (8001230 <LCD_IO_Init+0x1d0>)
 80011c4:	689b      	ldr	r3, [r3, #8]
 80011c6:	4a1a      	ldr	r2, [pc, #104]	; (8001230 <LCD_IO_Init+0x1d0>)
 80011c8:	f043 5340 	orr.w	r3, r3, #805306368	; 0x30000000
 80011cc:	6093      	str	r3, [r2, #8]
  GPIOX_OSPEEDR(MODE_SPD_VHIGH, LCD_D5);
 80011ce:	4b18      	ldr	r3, [pc, #96]	; (8001230 <LCD_IO_Init+0x1d0>)
 80011d0:	689b      	ldr	r3, [r3, #8]
 80011d2:	4a17      	ldr	r2, [pc, #92]	; (8001230 <LCD_IO_Init+0x1d0>)
 80011d4:	f443 0340 	orr.w	r3, r3, #12582912	; 0xc00000
 80011d8:	6093      	str	r3, [r2, #8]
  GPIOX_OSPEEDR(MODE_SPD_VHIGH, LCD_D6);
 80011da:	4b12      	ldr	r3, [pc, #72]	; (8001224 <LCD_IO_Init+0x1c4>)
 80011dc:	689b      	ldr	r3, [r3, #8]
 80011de:	4a11      	ldr	r2, [pc, #68]	; (8001224 <LCD_IO_Init+0x1c4>)
 80011e0:	f443 3340 	orr.w	r3, r3, #196608	; 0x30000
 80011e4:	6093      	str	r3, [r2, #8]
  GPIOX_OSPEEDR(MODE_SPD_VHIGH, LCD_D7);
 80011e6:	4b10      	ldr	r3, [pc, #64]	; (8001228 <LCD_IO_Init+0x1c8>)
 80011e8:	689b      	ldr	r3, [r3, #8]
 80011ea:	4a0f      	ldr	r2, [pc, #60]	; (8001228 <LCD_IO_Init+0x1c8>)
 80011ec:	f043 7340 	orr.w	r3, r3, #50331648	; 0x3000000
 80011f0:	6093      	str	r3, [r2, #8]

  /* Reset the LCD */
  #if GPIOX_PORTNUM(LCD_RST) >= GPIOX_PORTNUM_A
  LCD_Delay(1);
 80011f2:	2001      	movs	r0, #1
 80011f4:	f7ff ff1d 	bl	8001032 <LCD_Delay>
  LCD_RST_ON;                           /* RST = 0 */
 80011f8:	4b08      	ldr	r3, [pc, #32]	; (800121c <LCD_IO_Init+0x1bc>)
 80011fa:	f44f 2280 	mov.w	r2, #262144	; 0x40000
 80011fe:	619a      	str	r2, [r3, #24]
  LCD_Delay(1);
 8001200:	2001      	movs	r0, #1
 8001202:	f7ff ff16 	bl	8001032 <LCD_Delay>
  LCD_RST_OFF;                          /* RST = 1 */
 8001206:	4b05      	ldr	r3, [pc, #20]	; (800121c <LCD_IO_Init+0x1bc>)
 8001208:	2204      	movs	r2, #4
 800120a:	619a      	str	r2, [r3, #24]
  #endif
  LCD_Delay(1);
 800120c:	2001      	movs	r0, #1
 800120e:	f7ff ff10 	bl	8001032 <LCD_Delay>
}
 8001212:	bf00      	nop
 8001214:	bd80      	pop	{r7, pc}
 8001216:	bf00      	nop
 8001218:	58024400 	.word	0x58024400
 800121c:	58020800 	.word	0x58020800
 8001220:	58020400 	.word	0x58020400
 8001224:	58020000 	.word	0x58020000
 8001228:	58021800 	.word	0x58021800
 800122c:	58020c00 	.word	0x58020c00
 8001230:	58021000 	.word	0x58021000

08001234 <LCD_IO_WriteCmd8>:

//-----------------------------------------------------------------------------
void LCD_IO_WriteCmd8(uint8_t Cmd)
{
 8001234:	b580      	push	{r7, lr}
 8001236:	b082      	sub	sp, #8
 8001238:	af00      	add	r7, sp, #0
 800123a:	4603      	mov	r3, r0
 800123c:	71fb      	strb	r3, [r7, #7]
  LCD_CS_ON;
 800123e:	4b4b      	ldr	r3, [pc, #300]	; (800136c <LCD_IO_WriteCmd8+0x138>)
 8001240:	f44f 3200 	mov.w	r2, #131072	; 0x20000
 8001244:	619a      	str	r2, [r3, #24]
  LCD_CMD8_WRITE(Cmd);
 8001246:	4b4a      	ldr	r3, [pc, #296]	; (8001370 <LCD_IO_WriteCmd8+0x13c>)
 8001248:	f44f 2200 	mov.w	r2, #524288	; 0x80000
 800124c:	619a      	str	r2, [r3, #24]
 800124e:	4a49      	ldr	r2, [pc, #292]	; (8001374 <LCD_IO_WriteCmd8+0x140>)
 8001250:	79fb      	ldrb	r3, [r7, #7]
 8001252:	7013      	strb	r3, [r2, #0]
 8001254:	4b47      	ldr	r3, [pc, #284]	; (8001374 <LCD_IO_WriteCmd8+0x140>)
 8001256:	781b      	ldrb	r3, [r3, #0]
 8001258:	f003 0301 	and.w	r3, r3, #1
 800125c:	2b00      	cmp	r3, #0
 800125e:	d004      	beq.n	800126a <LCD_IO_WriteCmd8+0x36>
 8001260:	4b45      	ldr	r3, [pc, #276]	; (8001378 <LCD_IO_WriteCmd8+0x144>)
 8001262:	f44f 7200 	mov.w	r2, #512	; 0x200
 8001266:	619a      	str	r2, [r3, #24]
 8001268:	e003      	b.n	8001272 <LCD_IO_WriteCmd8+0x3e>
 800126a:	4b43      	ldr	r3, [pc, #268]	; (8001378 <LCD_IO_WriteCmd8+0x144>)
 800126c:	f04f 7200 	mov.w	r2, #33554432	; 0x2000000
 8001270:	619a      	str	r2, [r3, #24]
 8001272:	4b40      	ldr	r3, [pc, #256]	; (8001374 <LCD_IO_WriteCmd8+0x140>)
 8001274:	781b      	ldrb	r3, [r3, #0]
 8001276:	f003 0302 	and.w	r3, r3, #2
 800127a:	2b00      	cmp	r3, #0
 800127c:	d004      	beq.n	8001288 <LCD_IO_WriteCmd8+0x54>
 800127e:	4b3f      	ldr	r3, [pc, #252]	; (800137c <LCD_IO_WriteCmd8+0x148>)
 8001280:	f44f 4200 	mov.w	r2, #32768	; 0x8000
 8001284:	619a      	str	r2, [r3, #24]
 8001286:	e003      	b.n	8001290 <LCD_IO_WriteCmd8+0x5c>
 8001288:	4b3c      	ldr	r3, [pc, #240]	; (800137c <LCD_IO_WriteCmd8+0x148>)
 800128a:	f04f 4200 	mov.w	r2, #2147483648	; 0x80000000
 800128e:	619a      	str	r2, [r3, #24]
 8001290:	4b38      	ldr	r3, [pc, #224]	; (8001374 <LCD_IO_WriteCmd8+0x140>)
 8001292:	781b      	ldrb	r3, [r3, #0]
 8001294:	f003 0304 	and.w	r3, r3, #4
 8001298:	2b00      	cmp	r3, #0
 800129a:	d004      	beq.n	80012a6 <LCD_IO_WriteCmd8+0x72>
 800129c:	4b36      	ldr	r3, [pc, #216]	; (8001378 <LCD_IO_WriteCmd8+0x144>)
 800129e:	f44f 4280 	mov.w	r2, #16384	; 0x4000
 80012a2:	619a      	str	r2, [r3, #24]
 80012a4:	e003      	b.n	80012ae <LCD_IO_WriteCmd8+0x7a>
 80012a6:	4b34      	ldr	r3, [pc, #208]	; (8001378 <LCD_IO_WriteCmd8+0x144>)
 80012a8:	f04f 4280 	mov.w	r2, #1073741824	; 0x40000000
 80012ac:	619a      	str	r2, [r3, #24]
 80012ae:	4b31      	ldr	r3, [pc, #196]	; (8001374 <LCD_IO_WriteCmd8+0x140>)
 80012b0:	781b      	ldrb	r3, [r3, #0]
 80012b2:	f003 0308 	and.w	r3, r3, #8
 80012b6:	2b00      	cmp	r3, #0
 80012b8:	d004      	beq.n	80012c4 <LCD_IO_WriteCmd8+0x90>
 80012ba:	4b31      	ldr	r3, [pc, #196]	; (8001380 <LCD_IO_WriteCmd8+0x14c>)
 80012bc:	f44f 5200 	mov.w	r2, #8192	; 0x2000
 80012c0:	619a      	str	r2, [r3, #24]
 80012c2:	e003      	b.n	80012cc <LCD_IO_WriteCmd8+0x98>
 80012c4:	4b2e      	ldr	r3, [pc, #184]	; (8001380 <LCD_IO_WriteCmd8+0x14c>)
 80012c6:	f04f 5200 	mov.w	r2, #536870912	; 0x20000000
 80012ca:	619a      	str	r2, [r3, #24]
 80012cc:	4b29      	ldr	r3, [pc, #164]	; (8001374 <LCD_IO_WriteCmd8+0x140>)
 80012ce:	781b      	ldrb	r3, [r3, #0]
 80012d0:	f003 0310 	and.w	r3, r3, #16
 80012d4:	2b00      	cmp	r3, #0
 80012d6:	d004      	beq.n	80012e2 <LCD_IO_WriteCmd8+0xae>
 80012d8:	4b29      	ldr	r3, [pc, #164]	; (8001380 <LCD_IO_WriteCmd8+0x14c>)
 80012da:	f44f 4280 	mov.w	r2, #16384	; 0x4000
 80012de:	619a      	str	r2, [r3, #24]
 80012e0:	e003      	b.n	80012ea <LCD_IO_WriteCmd8+0xb6>
 80012e2:	4b27      	ldr	r3, [pc, #156]	; (8001380 <LCD_IO_WriteCmd8+0x14c>)
 80012e4:	f04f 4280 	mov.w	r2, #1073741824	; 0x40000000
 80012e8:	619a      	str	r2, [r3, #24]
 80012ea:	4b22      	ldr	r3, [pc, #136]	; (8001374 <LCD_IO_WriteCmd8+0x140>)
 80012ec:	781b      	ldrb	r3, [r3, #0]
 80012ee:	f003 0320 	and.w	r3, r3, #32
 80012f2:	2b00      	cmp	r3, #0
 80012f4:	d004      	beq.n	8001300 <LCD_IO_WriteCmd8+0xcc>
 80012f6:	4b22      	ldr	r3, [pc, #136]	; (8001380 <LCD_IO_WriteCmd8+0x14c>)
 80012f8:	f44f 6200 	mov.w	r2, #2048	; 0x800
 80012fc:	619a      	str	r2, [r3, #24]
 80012fe:	e003      	b.n	8001308 <LCD_IO_WriteCmd8+0xd4>
 8001300:	4b1f      	ldr	r3, [pc, #124]	; (8001380 <LCD_IO_WriteCmd8+0x14c>)
 8001302:	f04f 6200 	mov.w	r2, #134217728	; 0x8000000
 8001306:	619a      	str	r2, [r3, #24]
 8001308:	4b1a      	ldr	r3, [pc, #104]	; (8001374 <LCD_IO_WriteCmd8+0x140>)
 800130a:	781b      	ldrb	r3, [r3, #0]
 800130c:	f003 0340 	and.w	r3, r3, #64	; 0x40
 8001310:	2b00      	cmp	r3, #0
 8001312:	d004      	beq.n	800131e <LCD_IO_WriteCmd8+0xea>
 8001314:	4b1b      	ldr	r3, [pc, #108]	; (8001384 <LCD_IO_WriteCmd8+0x150>)
 8001316:	f44f 7280 	mov.w	r2, #256	; 0x100
 800131a:	619a      	str	r2, [r3, #24]
 800131c:	e003      	b.n	8001326 <LCD_IO_WriteCmd8+0xf2>
 800131e:	4b19      	ldr	r3, [pc, #100]	; (8001384 <LCD_IO_WriteCmd8+0x150>)
 8001320:	f04f 7280 	mov.w	r2, #16777216	; 0x1000000
 8001324:	619a      	str	r2, [r3, #24]
 8001326:	4b13      	ldr	r3, [pc, #76]	; (8001374 <LCD_IO_WriteCmd8+0x140>)
 8001328:	781b      	ldrb	r3, [r3, #0]
 800132a:	b25b      	sxtb	r3, r3
 800132c:	2b00      	cmp	r3, #0
 800132e:	da04      	bge.n	800133a <LCD_IO_WriteCmd8+0x106>
 8001330:	4b11      	ldr	r3, [pc, #68]	; (8001378 <LCD_IO_WriteCmd8+0x144>)
 8001332:	f44f 5280 	mov.w	r2, #4096	; 0x1000
 8001336:	619a      	str	r2, [r3, #24]
 8001338:	e003      	b.n	8001342 <LCD_IO_WriteCmd8+0x10e>
 800133a:	4b0f      	ldr	r3, [pc, #60]	; (8001378 <LCD_IO_WriteCmd8+0x144>)
 800133c:	f04f 5280 	mov.w	r2, #268435456	; 0x10000000
 8001340:	619a      	str	r2, [r3, #24]
 8001342:	4b0b      	ldr	r3, [pc, #44]	; (8001370 <LCD_IO_WriteCmd8+0x13c>)
 8001344:	f44f 3280 	mov.w	r2, #65536	; 0x10000
 8001348:	619a      	str	r2, [r3, #24]
 800134a:	2008      	movs	r0, #8
 800134c:	f7ff fe60 	bl	8001010 <LCD_IO_Delay>
 8001350:	4b07      	ldr	r3, [pc, #28]	; (8001370 <LCD_IO_WriteCmd8+0x13c>)
 8001352:	2201      	movs	r2, #1
 8001354:	619a      	str	r2, [r3, #24]
 8001356:	4b06      	ldr	r3, [pc, #24]	; (8001370 <LCD_IO_WriteCmd8+0x13c>)
 8001358:	2208      	movs	r2, #8
 800135a:	619a      	str	r2, [r3, #24]
  LCD_CS_OFF;
 800135c:	4b03      	ldr	r3, [pc, #12]	; (800136c <LCD_IO_WriteCmd8+0x138>)
 800135e:	2202      	movs	r2, #2
 8001360:	619a      	str	r2, [r3, #24]
}
 8001362:	bf00      	nop
 8001364:	3708      	adds	r7, #8
 8001366:	46bd      	mov	sp, r7
 8001368:	bd80      	pop	{r7, pc}
 800136a:	bf00      	nop
 800136c:	58020400 	.word	0x58020400
 8001370:	58020800 	.word	0x58020800
 8001374:	240000ac 	.word	0x240000ac
 8001378:	58021800 	.word	0x58021800
 800137c:	58020c00 	.word	0x58020c00
 8001380:	58021000 	.word	0x58021000
 8001384:	58020000 	.word	0x58020000

08001388 <LCD_IO_WriteData8>:
  LCD_CS_OFF;
}

//-----------------------------------------------------------------------------
void LCD_IO_WriteData8(uint8_t Data)
{
 8001388:	b580      	push	{r7, lr}
 800138a:	b082      	sub	sp, #8
 800138c:	af00      	add	r7, sp, #0
 800138e:	4603      	mov	r3, r0
 8001390:	71fb      	strb	r3, [r7, #7]
  LCD_CS_ON;
 8001392:	4b47      	ldr	r3, [pc, #284]	; (80014b0 <LCD_IO_WriteData8+0x128>)
 8001394:	f44f 3200 	mov.w	r2, #131072	; 0x20000
 8001398:	619a      	str	r2, [r3, #24]
  LCD_DATA8_WRITE(Data);
 800139a:	4a46      	ldr	r2, [pc, #280]	; (80014b4 <LCD_IO_WriteData8+0x12c>)
 800139c:	79fb      	ldrb	r3, [r7, #7]
 800139e:	7013      	strb	r3, [r2, #0]
 80013a0:	4b44      	ldr	r3, [pc, #272]	; (80014b4 <LCD_IO_WriteData8+0x12c>)
 80013a2:	781b      	ldrb	r3, [r3, #0]
 80013a4:	f003 0301 	and.w	r3, r3, #1
 80013a8:	2b00      	cmp	r3, #0
 80013aa:	d004      	beq.n	80013b6 <LCD_IO_WriteData8+0x2e>
 80013ac:	4b42      	ldr	r3, [pc, #264]	; (80014b8 <LCD_IO_WriteData8+0x130>)
 80013ae:	f44f 7200 	mov.w	r2, #512	; 0x200
 80013b2:	619a      	str	r2, [r3, #24]
 80013b4:	e003      	b.n	80013be <LCD_IO_WriteData8+0x36>
 80013b6:	4b40      	ldr	r3, [pc, #256]	; (80014b8 <LCD_IO_WriteData8+0x130>)
 80013b8:	f04f 7200 	mov.w	r2, #33554432	; 0x2000000
 80013bc:	619a      	str	r2, [r3, #24]
 80013be:	4b3d      	ldr	r3, [pc, #244]	; (80014b4 <LCD_IO_WriteData8+0x12c>)
 80013c0:	781b      	ldrb	r3, [r3, #0]
 80013c2:	f003 0302 	and.w	r3, r3, #2
 80013c6:	2b00      	cmp	r3, #0
 80013c8:	d004      	beq.n	80013d4 <LCD_IO_WriteData8+0x4c>
 80013ca:	4b3c      	ldr	r3, [pc, #240]	; (80014bc <LCD_IO_WriteData8+0x134>)
 80013cc:	f44f 4200 	mov.w	r2, #32768	; 0x8000
 80013d0:	619a      	str	r2, [r3, #24]
 80013d2:	e003      	b.n	80013dc <LCD_IO_WriteData8+0x54>
 80013d4:	4b39      	ldr	r3, [pc, #228]	; (80014bc <LCD_IO_WriteData8+0x134>)
 80013d6:	f04f 4200 	mov.w	r2, #2147483648	; 0x80000000
 80013da:	619a      	str	r2, [r3, #24]
 80013dc:	4b35      	ldr	r3, [pc, #212]	; (80014b4 <LCD_IO_WriteData8+0x12c>)
 80013de:	781b      	ldrb	r3, [r3, #0]
 80013e0:	f003 0304 	and.w	r3, r3, #4
 80013e4:	2b00      	cmp	r3, #0
 80013e6:	d004      	beq.n	80013f2 <LCD_IO_WriteData8+0x6a>
 80013e8:	4b33      	ldr	r3, [pc, #204]	; (80014b8 <LCD_IO_WriteData8+0x130>)
 80013ea:	f44f 4280 	mov.w	r2, #16384	; 0x4000
 80013ee:	619a      	str	r2, [r3, #24]
 80013f0:	e003      	b.n	80013fa <LCD_IO_WriteData8+0x72>
 80013f2:	4b31      	ldr	r3, [pc, #196]	; (80014b8 <LCD_IO_WriteData8+0x130>)
 80013f4:	f04f 4280 	mov.w	r2, #1073741824	; 0x40000000
 80013f8:	619a      	str	r2, [r3, #24]
 80013fa:	4b2e      	ldr	r3, [pc, #184]	; (80014b4 <LCD_IO_WriteData8+0x12c>)
 80013fc:	781b      	ldrb	r3, [r3, #0]
 80013fe:	f003 0308 	and.w	r3, r3, #8
 8001402:	2b00      	cmp	r3, #0
 8001404:	d004      	beq.n	8001410 <LCD_IO_WriteData8+0x88>
 8001406:	4b2e      	ldr	r3, [pc, #184]	; (80014c0 <LCD_IO_WriteData8+0x138>)
 8001408:	f44f 5200 	mov.w	r2, #8192	; 0x2000
 800140c:	619a      	str	r2, [r3, #24]
 800140e:	e003      	b.n	8001418 <LCD_IO_WriteData8+0x90>
 8001410:	4b2b      	ldr	r3, [pc, #172]	; (80014c0 <LCD_IO_WriteData8+0x138>)
 8001412:	f04f 5200 	mov.w	r2, #536870912	; 0x20000000
 8001416:	619a      	str	r2, [r3, #24]
 8001418:	4b26      	ldr	r3, [pc, #152]	; (80014b4 <LCD_IO_WriteData8+0x12c>)
 800141a:	781b      	ldrb	r3, [r3, #0]
 800141c:	f003 0310 	and.w	r3, r3, #16
 8001420:	2b00      	cmp	r3, #0
 8001422:	d004      	beq.n	800142e <LCD_IO_WriteData8+0xa6>
 8001424:	4b26      	ldr	r3, [pc, #152]	; (80014c0 <LCD_IO_WriteData8+0x138>)
 8001426:	f44f 4280 	mov.w	r2, #16384	; 0x4000
 800142a:	619a      	str	r2, [r3, #24]
 800142c:	e003      	b.n	8001436 <LCD_IO_WriteData8+0xae>
 800142e:	4b24      	ldr	r3, [pc, #144]	; (80014c0 <LCD_IO_WriteData8+0x138>)
 8001430:	f04f 4280 	mov.w	r2, #1073741824	; 0x40000000
 8001434:	619a      	str	r2, [r3, #24]
 8001436:	4b1f      	ldr	r3, [pc, #124]	; (80014b4 <LCD_IO_WriteData8+0x12c>)
 8001438:	781b      	ldrb	r3, [r3, #0]
 800143a:	f003 0320 	and.w	r3, r3, #32
 800143e:	2b00      	cmp	r3, #0
 8001440:	d004      	beq.n	800144c <LCD_IO_WriteData8+0xc4>
 8001442:	4b1f      	ldr	r3, [pc, #124]	; (80014c0 <LCD_IO_WriteData8+0x138>)
 8001444:	f44f 6200 	mov.w	r2, #2048	; 0x800
 8001448:	619a      	str	r2, [r3, #24]
 800144a:	e003      	b.n	8001454 <LCD_IO_WriteData8+0xcc>
 800144c:	4b1c      	ldr	r3, [pc, #112]	; (80014c0 <LCD_IO_WriteData8+0x138>)
 800144e:	f04f 6200 	mov.w	r2, #134217728	; 0x8000000
 8001452:	619a      	str	r2, [r3, #24]
 8001454:	4b17      	ldr	r3, [pc, #92]	; (80014b4 <LCD_IO_WriteData8+0x12c>)
 8001456:	781b      	ldrb	r3, [r3, #0]
 8001458:	f003 0340 	and.w	r3, r3, #64	; 0x40
 800145c:	2b00      	cmp	r3, #0
 800145e:	d004      	beq.n	800146a <LCD_IO_WriteData8+0xe2>
 8001460:	4b18      	ldr	r3, [pc, #96]	; (80014c4 <LCD_IO_WriteData8+0x13c>)
 8001462:	f44f 7280 	mov.w	r2, #256	; 0x100
 8001466:	619a      	str	r2, [r3, #24]
 8001468:	e003      	b.n	8001472 <LCD_IO_WriteData8+0xea>
 800146a:	4b16      	ldr	r3, [pc, #88]	; (80014c4 <LCD_IO_WriteData8+0x13c>)
 800146c:	f04f 7280 	mov.w	r2, #16777216	; 0x1000000
 8001470:	619a      	str	r2, [r3, #24]
 8001472:	4b10      	ldr	r3, [pc, #64]	; (80014b4 <LCD_IO_WriteData8+0x12c>)
 8001474:	781b      	ldrb	r3, [r3, #0]
 8001476:	b25b      	sxtb	r3, r3
 8001478:	2b00      	cmp	r3, #0
 800147a:	da04      	bge.n	8001486 <LCD_IO_WriteData8+0xfe>
 800147c:	4b0e      	ldr	r3, [pc, #56]	; (80014b8 <LCD_IO_WriteData8+0x130>)
 800147e:	f44f 5280 	mov.w	r2, #4096	; 0x1000
 8001482:	619a      	str	r2, [r3, #24]
 8001484:	e003      	b.n	800148e <LCD_IO_WriteData8+0x106>
 8001486:	4b0c      	ldr	r3, [pc, #48]	; (80014b8 <LCD_IO_WriteData8+0x130>)
 8001488:	f04f 5280 	mov.w	r2, #268435456	; 0x10000000
 800148c:	619a      	str	r2, [r3, #24]
 800148e:	4b0e      	ldr	r3, [pc, #56]	; (80014c8 <LCD_IO_WriteData8+0x140>)
 8001490:	f44f 3280 	mov.w	r2, #65536	; 0x10000
 8001494:	619a      	str	r2, [r3, #24]
 8001496:	2008      	movs	r0, #8
 8001498:	f7ff fdba 	bl	8001010 <LCD_IO_Delay>
 800149c:	4b0a      	ldr	r3, [pc, #40]	; (80014c8 <LCD_IO_WriteData8+0x140>)
 800149e:	2201      	movs	r2, #1
 80014a0:	619a      	str	r2, [r3, #24]
  LCD_CS_OFF;
 80014a2:	4b03      	ldr	r3, [pc, #12]	; (80014b0 <LCD_IO_WriteData8+0x128>)
 80014a4:	2202      	movs	r2, #2
 80014a6:	619a      	str	r2, [r3, #24]
}
 80014a8:	bf00      	nop
 80014aa:	3708      	adds	r7, #8
 80014ac:	46bd      	mov	sp, r7
 80014ae:	bd80      	pop	{r7, pc}
 80014b0:	58020400 	.word	0x58020400
 80014b4:	240000ac 	.word	0x240000ac
 80014b8:	58021800 	.word	0x58021800
 80014bc:	58020c00 	.word	0x58020c00
 80014c0:	58021000 	.word	0x58021000
 80014c4:	58020000 	.word	0x58020000
 80014c8:	58020800 	.word	0x58020800

080014cc <LCD_IO_WriteData16>:

//-----------------------------------------------------------------------------
void LCD_IO_WriteData16(uint16_t Data)
{
 80014cc:	b580      	push	{r7, lr}
 80014ce:	b082      	sub	sp, #8
 80014d0:	af00      	add	r7, sp, #0
 80014d2:	4603      	mov	r3, r0
 80014d4:	80fb      	strh	r3, [r7, #6]
  LCD_CS_ON;
 80014d6:	4b8b      	ldr	r3, [pc, #556]	; (8001704 <LCD_IO_WriteData16+0x238>)
 80014d8:	f44f 3200 	mov.w	r2, #131072	; 0x20000
 80014dc:	619a      	str	r2, [r3, #24]
  LCD_DATA16_WRITE(Data);
 80014de:	88fb      	ldrh	r3, [r7, #6]
 80014e0:	0a1b      	lsrs	r3, r3, #8
 80014e2:	b29b      	uxth	r3, r3
 80014e4:	b2da      	uxtb	r2, r3
 80014e6:	4b88      	ldr	r3, [pc, #544]	; (8001708 <LCD_IO_WriteData16+0x23c>)
 80014e8:	701a      	strb	r2, [r3, #0]
 80014ea:	4b87      	ldr	r3, [pc, #540]	; (8001708 <LCD_IO_WriteData16+0x23c>)
 80014ec:	781b      	ldrb	r3, [r3, #0]
 80014ee:	f003 0301 	and.w	r3, r3, #1
 80014f2:	2b00      	cmp	r3, #0
 80014f4:	d004      	beq.n	8001500 <LCD_IO_WriteData16+0x34>
 80014f6:	4b85      	ldr	r3, [pc, #532]	; (800170c <LCD_IO_WriteData16+0x240>)
 80014f8:	f44f 7200 	mov.w	r2, #512	; 0x200
 80014fc:	619a      	str	r2, [r3, #24]
 80014fe:	e003      	b.n	8001508 <LCD_IO_WriteData16+0x3c>
 8001500:	4b82      	ldr	r3, [pc, #520]	; (800170c <LCD_IO_WriteData16+0x240>)
 8001502:	f04f 7200 	mov.w	r2, #33554432	; 0x2000000
 8001506:	619a      	str	r2, [r3, #24]
 8001508:	4b7f      	ldr	r3, [pc, #508]	; (8001708 <LCD_IO_WriteData16+0x23c>)
 800150a:	781b      	ldrb	r3, [r3, #0]
 800150c:	f003 0302 	and.w	r3, r3, #2
 8001510:	2b00      	cmp	r3, #0
 8001512:	d004      	beq.n	800151e <LCD_IO_WriteData16+0x52>
 8001514:	4b7e      	ldr	r3, [pc, #504]	; (8001710 <LCD_IO_WriteData16+0x244>)
 8001516:	f44f 4200 	mov.w	r2, #32768	; 0x8000
 800151a:	619a      	str	r2, [r3, #24]
 800151c:	e003      	b.n	8001526 <LCD_IO_WriteData16+0x5a>
 800151e:	4b7c      	ldr	r3, [pc, #496]	; (8001710 <LCD_IO_WriteData16+0x244>)
 8001520:	f04f 4200 	mov.w	r2, #2147483648	; 0x80000000
 8001524:	619a      	str	r2, [r3, #24]
 8001526:	4b78      	ldr	r3, [pc, #480]	; (8001708 <LCD_IO_WriteData16+0x23c>)
 8001528:	781b      	ldrb	r3, [r3, #0]
 800152a:	f003 0304 	and.w	r3, r3, #4
 800152e:	2b00      	cmp	r3, #0
 8001530:	d004      	beq.n	800153c <LCD_IO_WriteData16+0x70>
 8001532:	4b76      	ldr	r3, [pc, #472]	; (800170c <LCD_IO_WriteData16+0x240>)
 8001534:	f44f 4280 	mov.w	r2, #16384	; 0x4000
 8001538:	619a      	str	r2, [r3, #24]
 800153a:	e003      	b.n	8001544 <LCD_IO_WriteData16+0x78>
 800153c:	4b73      	ldr	r3, [pc, #460]	; (800170c <LCD_IO_WriteData16+0x240>)
 800153e:	f04f 4280 	mov.w	r2, #1073741824	; 0x40000000
 8001542:	619a      	str	r2, [r3, #24]
 8001544:	4b70      	ldr	r3, [pc, #448]	; (8001708 <LCD_IO_WriteData16+0x23c>)
 8001546:	781b      	ldrb	r3, [r3, #0]
 8001548:	f003 0308 	and.w	r3, r3, #8
 800154c:	2b00      	cmp	r3, #0
 800154e:	d004      	beq.n	800155a <LCD_IO_WriteData16+0x8e>
 8001550:	4b70      	ldr	r3, [pc, #448]	; (8001714 <LCD_IO_WriteData16+0x248>)
 8001552:	f44f 5200 	mov.w	r2, #8192	; 0x2000
 8001556:	619a      	str	r2, [r3, #24]
 8001558:	e003      	b.n	8001562 <LCD_IO_WriteData16+0x96>
 800155a:	4b6e      	ldr	r3, [pc, #440]	; (8001714 <LCD_IO_WriteData16+0x248>)
 800155c:	f04f 5200 	mov.w	r2, #536870912	; 0x20000000
 8001560:	619a      	str	r2, [r3, #24]
 8001562:	4b69      	ldr	r3, [pc, #420]	; (8001708 <LCD_IO_WriteData16+0x23c>)
 8001564:	781b      	ldrb	r3, [r3, #0]
 8001566:	f003 0310 	and.w	r3, r3, #16
 800156a:	2b00      	cmp	r3, #0
 800156c:	d004      	beq.n	8001578 <LCD_IO_WriteData16+0xac>
 800156e:	4b69      	ldr	r3, [pc, #420]	; (8001714 <LCD_IO_WriteData16+0x248>)
 8001570:	f44f 4280 	mov.w	r2, #16384	; 0x4000
 8001574:	619a      	str	r2, [r3, #24]
 8001576:	e003      	b.n	8001580 <LCD_IO_WriteData16+0xb4>
 8001578:	4b66      	ldr	r3, [pc, #408]	; (8001714 <LCD_IO_WriteData16+0x248>)
 800157a:	f04f 4280 	mov.w	r2, #1073741824	; 0x40000000
 800157e:	619a      	str	r2, [r3, #24]
 8001580:	4b61      	ldr	r3, [pc, #388]	; (8001708 <LCD_IO_WriteData16+0x23c>)
 8001582:	781b      	ldrb	r3, [r3, #0]
 8001584:	f003 0320 	and.w	r3, r3, #32
 8001588:	2b00      	cmp	r3, #0
 800158a:	d004      	beq.n	8001596 <LCD_IO_WriteData16+0xca>
 800158c:	4b61      	ldr	r3, [pc, #388]	; (8001714 <LCD_IO_WriteData16+0x248>)
 800158e:	f44f 6200 	mov.w	r2, #2048	; 0x800
 8001592:	619a      	str	r2, [r3, #24]
 8001594:	e003      	b.n	800159e <LCD_IO_WriteData16+0xd2>
 8001596:	4b5f      	ldr	r3, [pc, #380]	; (8001714 <LCD_IO_WriteData16+0x248>)
 8001598:	f04f 6200 	mov.w	r2, #134217728	; 0x8000000
 800159c:	619a      	str	r2, [r3, #24]
 800159e:	4b5a      	ldr	r3, [pc, #360]	; (8001708 <LCD_IO_WriteData16+0x23c>)
 80015a0:	781b      	ldrb	r3, [r3, #0]
 80015a2:	f003 0340 	and.w	r3, r3, #64	; 0x40
 80015a6:	2b00      	cmp	r3, #0
 80015a8:	d004      	beq.n	80015b4 <LCD_IO_WriteData16+0xe8>
 80015aa:	4b5b      	ldr	r3, [pc, #364]	; (8001718 <LCD_IO_WriteData16+0x24c>)
 80015ac:	f44f 7280 	mov.w	r2, #256	; 0x100
 80015b0:	619a      	str	r2, [r3, #24]
 80015b2:	e003      	b.n	80015bc <LCD_IO_WriteData16+0xf0>
 80015b4:	4b58      	ldr	r3, [pc, #352]	; (8001718 <LCD_IO_WriteData16+0x24c>)
 80015b6:	f04f 7280 	mov.w	r2, #16777216	; 0x1000000
 80015ba:	619a      	str	r2, [r3, #24]
 80015bc:	4b52      	ldr	r3, [pc, #328]	; (8001708 <LCD_IO_WriteData16+0x23c>)
 80015be:	781b      	ldrb	r3, [r3, #0]
 80015c0:	b25b      	sxtb	r3, r3
 80015c2:	2b00      	cmp	r3, #0
 80015c4:	da04      	bge.n	80015d0 <LCD_IO_WriteData16+0x104>
 80015c6:	4b51      	ldr	r3, [pc, #324]	; (800170c <LCD_IO_WriteData16+0x240>)
 80015c8:	f44f 5280 	mov.w	r2, #4096	; 0x1000
 80015cc:	619a      	str	r2, [r3, #24]
 80015ce:	e003      	b.n	80015d8 <LCD_IO_WriteData16+0x10c>
 80015d0:	4b4e      	ldr	r3, [pc, #312]	; (800170c <LCD_IO_WriteData16+0x240>)
 80015d2:	f04f 5280 	mov.w	r2, #268435456	; 0x10000000
 80015d6:	619a      	str	r2, [r3, #24]
 80015d8:	4b50      	ldr	r3, [pc, #320]	; (800171c <LCD_IO_WriteData16+0x250>)
 80015da:	f44f 3280 	mov.w	r2, #65536	; 0x10000
 80015de:	619a      	str	r2, [r3, #24]
 80015e0:	2008      	movs	r0, #8
 80015e2:	f7ff fd15 	bl	8001010 <LCD_IO_Delay>
 80015e6:	4b4d      	ldr	r3, [pc, #308]	; (800171c <LCD_IO_WriteData16+0x250>)
 80015e8:	2201      	movs	r2, #1
 80015ea:	619a      	str	r2, [r3, #24]
 80015ec:	88fb      	ldrh	r3, [r7, #6]
 80015ee:	b2da      	uxtb	r2, r3
 80015f0:	4b45      	ldr	r3, [pc, #276]	; (8001708 <LCD_IO_WriteData16+0x23c>)
 80015f2:	701a      	strb	r2, [r3, #0]
 80015f4:	4b44      	ldr	r3, [pc, #272]	; (8001708 <LCD_IO_WriteData16+0x23c>)
 80015f6:	781b      	ldrb	r3, [r3, #0]
 80015f8:	f003 0301 	and.w	r3, r3, #1
 80015fc:	2b00      	cmp	r3, #0
 80015fe:	d004      	beq.n	800160a <LCD_IO_WriteData16+0x13e>
 8001600:	4b42      	ldr	r3, [pc, #264]	; (800170c <LCD_IO_WriteData16+0x240>)
 8001602:	f44f 7200 	mov.w	r2, #512	; 0x200
 8001606:	619a      	str	r2, [r3, #24]
 8001608:	e003      	b.n	8001612 <LCD_IO_WriteData16+0x146>
 800160a:	4b40      	ldr	r3, [pc, #256]	; (800170c <LCD_IO_WriteData16+0x240>)
 800160c:	f04f 7200 	mov.w	r2, #33554432	; 0x2000000
 8001610:	619a      	str	r2, [r3, #24]
 8001612:	4b3d      	ldr	r3, [pc, #244]	; (8001708 <LCD_IO_WriteData16+0x23c>)
 8001614:	781b      	ldrb	r3, [r3, #0]
 8001616:	f003 0302 	and.w	r3, r3, #2
 800161a:	2b00      	cmp	r3, #0
 800161c:	d004      	beq.n	8001628 <LCD_IO_WriteData16+0x15c>
 800161e:	4b3c      	ldr	r3, [pc, #240]	; (8001710 <LCD_IO_WriteData16+0x244>)
 8001620:	f44f 4200 	mov.w	r2, #32768	; 0x8000
 8001624:	619a      	str	r2, [r3, #24]
 8001626:	e003      	b.n	8001630 <LCD_IO_WriteData16+0x164>
 8001628:	4b39      	ldr	r3, [pc, #228]	; (8001710 <LCD_IO_WriteData16+0x244>)
 800162a:	f04f 4200 	mov.w	r2, #2147483648	; 0x80000000
 800162e:	619a      	str	r2, [r3, #24]
 8001630:	4b35      	ldr	r3, [pc, #212]	; (8001708 <LCD_IO_WriteData16+0x23c>)
 8001632:	781b      	ldrb	r3, [r3, #0]
 8001634:	f003 0304 	and.w	r3, r3, #4
 8001638:	2b00      	cmp	r3, #0
 800163a:	d004      	beq.n	8001646 <LCD_IO_WriteData16+0x17a>
 800163c:	4b33      	ldr	r3, [pc, #204]	; (800170c <LCD_IO_WriteData16+0x240>)
 800163e:	f44f 4280 	mov.w	r2, #16384	; 0x4000
 8001642:	619a      	str	r2, [r3, #24]
 8001644:	e003      	b.n	800164e <LCD_IO_WriteData16+0x182>
 8001646:	4b31      	ldr	r3, [pc, #196]	; (800170c <LCD_IO_WriteData16+0x240>)
 8001648:	f04f 4280 	mov.w	r2, #1073741824	; 0x40000000
 800164c:	619a      	str	r2, [r3, #24]
 800164e:	4b2e      	ldr	r3, [pc, #184]	; (8001708 <LCD_IO_WriteData16+0x23c>)
 8001650:	781b      	ldrb	r3, [r3, #0]
 8001652:	f003 0308 	and.w	r3, r3, #8
 8001656:	2b00      	cmp	r3, #0
 8001658:	d004      	beq.n	8001664 <LCD_IO_WriteData16+0x198>
 800165a:	4b2e      	ldr	r3, [pc, #184]	; (8001714 <LCD_IO_WriteData16+0x248>)
 800165c:	f44f 5200 	mov.w	r2, #8192	; 0x2000
 8001660:	619a      	str	r2, [r3, #24]
 8001662:	e003      	b.n	800166c <LCD_IO_WriteData16+0x1a0>
 8001664:	4b2b      	ldr	r3, [pc, #172]	; (8001714 <LCD_IO_WriteData16+0x248>)
 8001666:	f04f 5200 	mov.w	r2, #536870912	; 0x20000000
 800166a:	619a      	str	r2, [r3, #24]
 800166c:	4b26      	ldr	r3, [pc, #152]	; (8001708 <LCD_IO_WriteData16+0x23c>)
 800166e:	781b      	ldrb	r3, [r3, #0]
 8001670:	f003 0310 	and.w	r3, r3, #16
 8001674:	2b00      	cmp	r3, #0
 8001676:	d004      	beq.n	8001682 <LCD_IO_WriteData16+0x1b6>
 8001678:	4b26      	ldr	r3, [pc, #152]	; (8001714 <LCD_IO_WriteData16+0x248>)
 800167a:	f44f 4280 	mov.w	r2, #16384	; 0x4000
 800167e:	619a      	str	r2, [r3, #24]
 8001680:	e003      	b.n	800168a <LCD_IO_WriteData16+0x1be>
 8001682:	4b24      	ldr	r3, [pc, #144]	; (8001714 <LCD_IO_WriteData16+0x248>)
 8001684:	f04f 4280 	mov.w	r2, #1073741824	; 0x40000000
 8001688:	619a      	str	r2, [r3, #24]
 800168a:	4b1f      	ldr	r3, [pc, #124]	; (8001708 <LCD_IO_WriteData16+0x23c>)
 800168c:	781b      	ldrb	r3, [r3, #0]
 800168e:	f003 0320 	and.w	r3, r3, #32
 8001692:	2b00      	cmp	r3, #0
 8001694:	d004      	beq.n	80016a0 <LCD_IO_WriteData16+0x1d4>
 8001696:	4b1f      	ldr	r3, [pc, #124]	; (8001714 <LCD_IO_WriteData16+0x248>)
 8001698:	f44f 6200 	mov.w	r2, #2048	; 0x800
 800169c:	619a      	str	r2, [r3, #24]
 800169e:	e003      	b.n	80016a8 <LCD_IO_WriteData16+0x1dc>
 80016a0:	4b1c      	ldr	r3, [pc, #112]	; (8001714 <LCD_IO_WriteData16+0x248>)
 80016a2:	f04f 6200 	mov.w	r2, #134217728	; 0x8000000
 80016a6:	619a      	str	r2, [r3, #24]
 80016a8:	4b17      	ldr	r3, [pc, #92]	; (8001708 <LCD_IO_WriteData16+0x23c>)
 80016aa:	781b      	ldrb	r3, [r3, #0]
 80016ac:	f003 0340 	and.w	r3, r3, #64	; 0x40
 80016b0:	2b00      	cmp	r3, #0
 80016b2:	d004      	beq.n	80016be <LCD_IO_WriteData16+0x1f2>
 80016b4:	4b18      	ldr	r3, [pc, #96]	; (8001718 <LCD_IO_WriteData16+0x24c>)
 80016b6:	f44f 7280 	mov.w	r2, #256	; 0x100
 80016ba:	619a      	str	r2, [r3, #24]
 80016bc:	e003      	b.n	80016c6 <LCD_IO_WriteData16+0x1fa>
 80016be:	4b16      	ldr	r3, [pc, #88]	; (8001718 <LCD_IO_WriteData16+0x24c>)
 80016c0:	f04f 7280 	mov.w	r2, #16777216	; 0x1000000
 80016c4:	619a      	str	r2, [r3, #24]
 80016c6:	4b10      	ldr	r3, [pc, #64]	; (8001708 <LCD_IO_WriteData16+0x23c>)
 80016c8:	781b      	ldrb	r3, [r3, #0]
 80016ca:	b25b      	sxtb	r3, r3
 80016cc:	2b00      	cmp	r3, #0
 80016ce:	da04      	bge.n	80016da <LCD_IO_WriteData16+0x20e>
 80016d0:	4b0e      	ldr	r3, [pc, #56]	; (800170c <LCD_IO_WriteData16+0x240>)
 80016d2:	f44f 5280 	mov.w	r2, #4096	; 0x1000
 80016d6:	619a      	str	r2, [r3, #24]
 80016d8:	e003      	b.n	80016e2 <LCD_IO_WriteData16+0x216>
 80016da:	4b0c      	ldr	r3, [pc, #48]	; (800170c <LCD_IO_WriteData16+0x240>)
 80016dc:	f04f 5280 	mov.w	r2, #268435456	; 0x10000000
 80016e0:	619a      	str	r2, [r3, #24]
 80016e2:	4b0e      	ldr	r3, [pc, #56]	; (800171c <LCD_IO_WriteData16+0x250>)
 80016e4:	f44f 3280 	mov.w	r2, #65536	; 0x10000
 80016e8:	619a      	str	r2, [r3, #24]
 80016ea:	2008      	movs	r0, #8
 80016ec:	f7ff fc90 	bl	8001010 <LCD_IO_Delay>
 80016f0:	4b0a      	ldr	r3, [pc, #40]	; (800171c <LCD_IO_WriteData16+0x250>)
 80016f2:	2201      	movs	r2, #1
 80016f4:	619a      	str	r2, [r3, #24]
  LCD_CS_OFF;
 80016f6:	4b03      	ldr	r3, [pc, #12]	; (8001704 <LCD_IO_WriteData16+0x238>)
 80016f8:	2202      	movs	r2, #2
 80016fa:	619a      	str	r2, [r3, #24]
}
 80016fc:	bf00      	nop
 80016fe:	3708      	adds	r7, #8
 8001700:	46bd      	mov	sp, r7
 8001702:	bd80      	pop	{r7, pc}
 8001704:	58020400 	.word	0x58020400
 8001708:	240000ac 	.word	0x240000ac
 800170c:	58021800 	.word	0x58021800
 8001710:	58020c00 	.word	0x58020c00
 8001714:	58021000 	.word	0x58021000
 8001718:	58020000 	.word	0x58020000
 800171c:	58020800 	.word	0x58020800

08001720 <LCD_IO_WriteCmd8DataFill16>:

//-----------------------------------------------------------------------------
void LCD_IO_WriteCmd8DataFill16(uint8_t Cmd, uint16_t Data, uint32_t Size)
{
 8001720:	b580      	push	{r7, lr}
 8001722:	b082      	sub	sp, #8
 8001724:	af00      	add	r7, sp, #0
 8001726:	4603      	mov	r3, r0
 8001728:	603a      	str	r2, [r7, #0]
 800172a:	71fb      	strb	r3, [r7, #7]
 800172c:	460b      	mov	r3, r1
 800172e:	80bb      	strh	r3, [r7, #4]
  LCD_CS_ON;
 8001730:	4b9a      	ldr	r3, [pc, #616]	; (800199c <LCD_IO_WriteCmd8DataFill16+0x27c>)
 8001732:	f44f 3200 	mov.w	r2, #131072	; 0x20000
 8001736:	619a      	str	r2, [r3, #24]
  LCD_CMD8_WRITE(Cmd);
 8001738:	4b99      	ldr	r3, [pc, #612]	; (80019a0 <LCD_IO_WriteCmd8DataFill16+0x280>)
 800173a:	f44f 2200 	mov.w	r2, #524288	; 0x80000
 800173e:	619a      	str	r2, [r3, #24]
 8001740:	4a98      	ldr	r2, [pc, #608]	; (80019a4 <LCD_IO_WriteCmd8DataFill16+0x284>)
 8001742:	79fb      	ldrb	r3, [r7, #7]
 8001744:	7013      	strb	r3, [r2, #0]
 8001746:	4b97      	ldr	r3, [pc, #604]	; (80019a4 <LCD_IO_WriteCmd8DataFill16+0x284>)
 8001748:	781b      	ldrb	r3, [r3, #0]
 800174a:	f003 0301 	and.w	r3, r3, #1
 800174e:	2b00      	cmp	r3, #0
 8001750:	d004      	beq.n	800175c <LCD_IO_WriteCmd8DataFill16+0x3c>
 8001752:	4b95      	ldr	r3, [pc, #596]	; (80019a8 <LCD_IO_WriteCmd8DataFill16+0x288>)
 8001754:	f44f 7200 	mov.w	r2, #512	; 0x200
 8001758:	619a      	str	r2, [r3, #24]
 800175a:	e003      	b.n	8001764 <LCD_IO_WriteCmd8DataFill16+0x44>
 800175c:	4b92      	ldr	r3, [pc, #584]	; (80019a8 <LCD_IO_WriteCmd8DataFill16+0x288>)
 800175e:	f04f 7200 	mov.w	r2, #33554432	; 0x2000000
 8001762:	619a      	str	r2, [r3, #24]
 8001764:	4b8f      	ldr	r3, [pc, #572]	; (80019a4 <LCD_IO_WriteCmd8DataFill16+0x284>)
 8001766:	781b      	ldrb	r3, [r3, #0]
 8001768:	f003 0302 	and.w	r3, r3, #2
 800176c:	2b00      	cmp	r3, #0
 800176e:	d004      	beq.n	800177a <LCD_IO_WriteCmd8DataFill16+0x5a>
 8001770:	4b8e      	ldr	r3, [pc, #568]	; (80019ac <LCD_IO_WriteCmd8DataFill16+0x28c>)
 8001772:	f44f 4200 	mov.w	r2, #32768	; 0x8000
 8001776:	619a      	str	r2, [r3, #24]
 8001778:	e003      	b.n	8001782 <LCD_IO_WriteCmd8DataFill16+0x62>
 800177a:	4b8c      	ldr	r3, [pc, #560]	; (80019ac <LCD_IO_WriteCmd8DataFill16+0x28c>)
 800177c:	f04f 4200 	mov.w	r2, #2147483648	; 0x80000000
 8001780:	619a      	str	r2, [r3, #24]
 8001782:	4b88      	ldr	r3, [pc, #544]	; (80019a4 <LCD_IO_WriteCmd8DataFill16+0x284>)
 8001784:	781b      	ldrb	r3, [r3, #0]
 8001786:	f003 0304 	and.w	r3, r3, #4
 800178a:	2b00      	cmp	r3, #0
 800178c:	d004      	beq.n	8001798 <LCD_IO_WriteCmd8DataFill16+0x78>
 800178e:	4b86      	ldr	r3, [pc, #536]	; (80019a8 <LCD_IO_WriteCmd8DataFill16+0x288>)
 8001790:	f44f 4280 	mov.w	r2, #16384	; 0x4000
 8001794:	619a      	str	r2, [r3, #24]
 8001796:	e003      	b.n	80017a0 <LCD_IO_WriteCmd8DataFill16+0x80>
 8001798:	4b83      	ldr	r3, [pc, #524]	; (80019a8 <LCD_IO_WriteCmd8DataFill16+0x288>)
 800179a:	f04f 4280 	mov.w	r2, #1073741824	; 0x40000000
 800179e:	619a      	str	r2, [r3, #24]
 80017a0:	4b80      	ldr	r3, [pc, #512]	; (80019a4 <LCD_IO_WriteCmd8DataFill16+0x284>)
 80017a2:	781b      	ldrb	r3, [r3, #0]
 80017a4:	f003 0308 	and.w	r3, r3, #8
 80017a8:	2b00      	cmp	r3, #0
 80017aa:	d004      	beq.n	80017b6 <LCD_IO_WriteCmd8DataFill16+0x96>
 80017ac:	4b80      	ldr	r3, [pc, #512]	; (80019b0 <LCD_IO_WriteCmd8DataFill16+0x290>)
 80017ae:	f44f 5200 	mov.w	r2, #8192	; 0x2000
 80017b2:	619a      	str	r2, [r3, #24]
 80017b4:	e003      	b.n	80017be <LCD_IO_WriteCmd8DataFill16+0x9e>
 80017b6:	4b7e      	ldr	r3, [pc, #504]	; (80019b0 <LCD_IO_WriteCmd8DataFill16+0x290>)
 80017b8:	f04f 5200 	mov.w	r2, #536870912	; 0x20000000
 80017bc:	619a      	str	r2, [r3, #24]
 80017be:	4b79      	ldr	r3, [pc, #484]	; (80019a4 <LCD_IO_WriteCmd8DataFill16+0x284>)
 80017c0:	781b      	ldrb	r3, [r3, #0]
 80017c2:	f003 0310 	and.w	r3, r3, #16
 80017c6:	2b00      	cmp	r3, #0
 80017c8:	d004      	beq.n	80017d4 <LCD_IO_WriteCmd8DataFill16+0xb4>
 80017ca:	4b79      	ldr	r3, [pc, #484]	; (80019b0 <LCD_IO_WriteCmd8DataFill16+0x290>)
 80017cc:	f44f 4280 	mov.w	r2, #16384	; 0x4000
 80017d0:	619a      	str	r2, [r3, #24]
 80017d2:	e003      	b.n	80017dc <LCD_IO_WriteCmd8DataFill16+0xbc>
 80017d4:	4b76      	ldr	r3, [pc, #472]	; (80019b0 <LCD_IO_WriteCmd8DataFill16+0x290>)
 80017d6:	f04f 4280 	mov.w	r2, #1073741824	; 0x40000000
 80017da:	619a      	str	r2, [r3, #24]
 80017dc:	4b71      	ldr	r3, [pc, #452]	; (80019a4 <LCD_IO_WriteCmd8DataFill16+0x284>)
 80017de:	781b      	ldrb	r3, [r3, #0]
 80017e0:	f003 0320 	and.w	r3, r3, #32
 80017e4:	2b00      	cmp	r3, #0
 80017e6:	d004      	beq.n	80017f2 <LCD_IO_WriteCmd8DataFill16+0xd2>
 80017e8:	4b71      	ldr	r3, [pc, #452]	; (80019b0 <LCD_IO_WriteCmd8DataFill16+0x290>)
 80017ea:	f44f 6200 	mov.w	r2, #2048	; 0x800
 80017ee:	619a      	str	r2, [r3, #24]
 80017f0:	e003      	b.n	80017fa <LCD_IO_WriteCmd8DataFill16+0xda>
 80017f2:	4b6f      	ldr	r3, [pc, #444]	; (80019b0 <LCD_IO_WriteCmd8DataFill16+0x290>)
 80017f4:	f04f 6200 	mov.w	r2, #134217728	; 0x8000000
 80017f8:	619a      	str	r2, [r3, #24]
 80017fa:	4b6a      	ldr	r3, [pc, #424]	; (80019a4 <LCD_IO_WriteCmd8DataFill16+0x284>)
 80017fc:	781b      	ldrb	r3, [r3, #0]
 80017fe:	f003 0340 	and.w	r3, r3, #64	; 0x40
 8001802:	2b00      	cmp	r3, #0
 8001804:	d004      	beq.n	8001810 <LCD_IO_WriteCmd8DataFill16+0xf0>
 8001806:	4b6b      	ldr	r3, [pc, #428]	; (80019b4 <LCD_IO_WriteCmd8DataFill16+0x294>)
 8001808:	f44f 7280 	mov.w	r2, #256	; 0x100
 800180c:	619a      	str	r2, [r3, #24]
 800180e:	e003      	b.n	8001818 <LCD_IO_WriteCmd8DataFill16+0xf8>
 8001810:	4b68      	ldr	r3, [pc, #416]	; (80019b4 <LCD_IO_WriteCmd8DataFill16+0x294>)
 8001812:	f04f 7280 	mov.w	r2, #16777216	; 0x1000000
 8001816:	619a      	str	r2, [r3, #24]
 8001818:	4b62      	ldr	r3, [pc, #392]	; (80019a4 <LCD_IO_WriteCmd8DataFill16+0x284>)
 800181a:	781b      	ldrb	r3, [r3, #0]
 800181c:	b25b      	sxtb	r3, r3
 800181e:	2b00      	cmp	r3, #0
 8001820:	da04      	bge.n	800182c <LCD_IO_WriteCmd8DataFill16+0x10c>
 8001822:	4b61      	ldr	r3, [pc, #388]	; (80019a8 <LCD_IO_WriteCmd8DataFill16+0x288>)
 8001824:	f44f 5280 	mov.w	r2, #4096	; 0x1000
 8001828:	619a      	str	r2, [r3, #24]
 800182a:	e003      	b.n	8001834 <LCD_IO_WriteCmd8DataFill16+0x114>
 800182c:	4b5e      	ldr	r3, [pc, #376]	; (80019a8 <LCD_IO_WriteCmd8DataFill16+0x288>)
 800182e:	f04f 5280 	mov.w	r2, #268435456	; 0x10000000
 8001832:	619a      	str	r2, [r3, #24]
 8001834:	4b5a      	ldr	r3, [pc, #360]	; (80019a0 <LCD_IO_WriteCmd8DataFill16+0x280>)
 8001836:	f44f 3280 	mov.w	r2, #65536	; 0x10000
 800183a:	619a      	str	r2, [r3, #24]
 800183c:	2008      	movs	r0, #8
 800183e:	f7ff fbe7 	bl	8001010 <LCD_IO_Delay>
 8001842:	4b57      	ldr	r3, [pc, #348]	; (80019a0 <LCD_IO_WriteCmd8DataFill16+0x280>)
 8001844:	2201      	movs	r2, #1
 8001846:	619a      	str	r2, [r3, #24]
 8001848:	4b55      	ldr	r3, [pc, #340]	; (80019a0 <LCD_IO_WriteCmd8DataFill16+0x280>)
 800184a:	2208      	movs	r2, #8
 800184c:	619a      	str	r2, [r3, #24]
  while(Size--)
 800184e:	e11a      	b.n	8001a86 <LCD_IO_WriteCmd8DataFill16+0x366>
  {
    LCD_DATA16_WRITE(Data);
 8001850:	88bb      	ldrh	r3, [r7, #4]
 8001852:	0a1b      	lsrs	r3, r3, #8
 8001854:	b29b      	uxth	r3, r3
 8001856:	b2da      	uxtb	r2, r3
 8001858:	4b52      	ldr	r3, [pc, #328]	; (80019a4 <LCD_IO_WriteCmd8DataFill16+0x284>)
 800185a:	701a      	strb	r2, [r3, #0]
 800185c:	4b51      	ldr	r3, [pc, #324]	; (80019a4 <LCD_IO_WriteCmd8DataFill16+0x284>)
 800185e:	781b      	ldrb	r3, [r3, #0]
 8001860:	f003 0301 	and.w	r3, r3, #1
 8001864:	2b00      	cmp	r3, #0
 8001866:	d004      	beq.n	8001872 <LCD_IO_WriteCmd8DataFill16+0x152>
 8001868:	4b4f      	ldr	r3, [pc, #316]	; (80019a8 <LCD_IO_WriteCmd8DataFill16+0x288>)
 800186a:	f44f 7200 	mov.w	r2, #512	; 0x200
 800186e:	619a      	str	r2, [r3, #24]
 8001870:	e003      	b.n	800187a <LCD_IO_WriteCmd8DataFill16+0x15a>
 8001872:	4b4d      	ldr	r3, [pc, #308]	; (80019a8 <LCD_IO_WriteCmd8DataFill16+0x288>)
 8001874:	f04f 7200 	mov.w	r2, #33554432	; 0x2000000
 8001878:	619a      	str	r2, [r3, #24]
 800187a:	4b4a      	ldr	r3, [pc, #296]	; (80019a4 <LCD_IO_WriteCmd8DataFill16+0x284>)
 800187c:	781b      	ldrb	r3, [r3, #0]
 800187e:	f003 0302 	and.w	r3, r3, #2
 8001882:	2b00      	cmp	r3, #0
 8001884:	d004      	beq.n	8001890 <LCD_IO_WriteCmd8DataFill16+0x170>
 8001886:	4b49      	ldr	r3, [pc, #292]	; (80019ac <LCD_IO_WriteCmd8DataFill16+0x28c>)
 8001888:	f44f 4200 	mov.w	r2, #32768	; 0x8000
 800188c:	619a      	str	r2, [r3, #24]
 800188e:	e003      	b.n	8001898 <LCD_IO_WriteCmd8DataFill16+0x178>
 8001890:	4b46      	ldr	r3, [pc, #280]	; (80019ac <LCD_IO_WriteCmd8DataFill16+0x28c>)
 8001892:	f04f 4200 	mov.w	r2, #2147483648	; 0x80000000
 8001896:	619a      	str	r2, [r3, #24]
 8001898:	4b42      	ldr	r3, [pc, #264]	; (80019a4 <LCD_IO_WriteCmd8DataFill16+0x284>)
 800189a:	781b      	ldrb	r3, [r3, #0]
 800189c:	f003 0304 	and.w	r3, r3, #4
 80018a0:	2b00      	cmp	r3, #0
 80018a2:	d004      	beq.n	80018ae <LCD_IO_WriteCmd8DataFill16+0x18e>
 80018a4:	4b40      	ldr	r3, [pc, #256]	; (80019a8 <LCD_IO_WriteCmd8DataFill16+0x288>)
 80018a6:	f44f 4280 	mov.w	r2, #16384	; 0x4000
 80018aa:	619a      	str	r2, [r3, #24]
 80018ac:	e003      	b.n	80018b6 <LCD_IO_WriteCmd8DataFill16+0x196>
 80018ae:	4b3e      	ldr	r3, [pc, #248]	; (80019a8 <LCD_IO_WriteCmd8DataFill16+0x288>)
 80018b0:	f04f 4280 	mov.w	r2, #1073741824	; 0x40000000
 80018b4:	619a      	str	r2, [r3, #24]
 80018b6:	4b3b      	ldr	r3, [pc, #236]	; (80019a4 <LCD_IO_WriteCmd8DataFill16+0x284>)
 80018b8:	781b      	ldrb	r3, [r3, #0]
 80018ba:	f003 0308 	and.w	r3, r3, #8
 80018be:	2b00      	cmp	r3, #0
 80018c0:	d004      	beq.n	80018cc <LCD_IO_WriteCmd8DataFill16+0x1ac>
 80018c2:	4b3b      	ldr	r3, [pc, #236]	; (80019b0 <LCD_IO_WriteCmd8DataFill16+0x290>)
 80018c4:	f44f 5200 	mov.w	r2, #8192	; 0x2000
 80018c8:	619a      	str	r2, [r3, #24]
 80018ca:	e003      	b.n	80018d4 <LCD_IO_WriteCmd8DataFill16+0x1b4>
 80018cc:	4b38      	ldr	r3, [pc, #224]	; (80019b0 <LCD_IO_WriteCmd8DataFill16+0x290>)
 80018ce:	f04f 5200 	mov.w	r2, #536870912	; 0x20000000
 80018d2:	619a      	str	r2, [r3, #24]
 80018d4:	4b33      	ldr	r3, [pc, #204]	; (80019a4 <LCD_IO_WriteCmd8DataFill16+0x284>)
 80018d6:	781b      	ldrb	r3, [r3, #0]
 80018d8:	f003 0310 	and.w	r3, r3, #16
 80018dc:	2b00      	cmp	r3, #0
 80018de:	d004      	beq.n	80018ea <LCD_IO_WriteCmd8DataFill16+0x1ca>
 80018e0:	4b33      	ldr	r3, [pc, #204]	; (80019b0 <LCD_IO_WriteCmd8DataFill16+0x290>)
 80018e2:	f44f 4280 	mov.w	r2, #16384	; 0x4000
 80018e6:	619a      	str	r2, [r3, #24]
 80018e8:	e003      	b.n	80018f2 <LCD_IO_WriteCmd8DataFill16+0x1d2>
 80018ea:	4b31      	ldr	r3, [pc, #196]	; (80019b0 <LCD_IO_WriteCmd8DataFill16+0x290>)
 80018ec:	f04f 4280 	mov.w	r2, #1073741824	; 0x40000000
 80018f0:	619a      	str	r2, [r3, #24]
 80018f2:	4b2c      	ldr	r3, [pc, #176]	; (80019a4 <LCD_IO_WriteCmd8DataFill16+0x284>)
 80018f4:	781b      	ldrb	r3, [r3, #0]
 80018f6:	f003 0320 	and.w	r3, r3, #32
 80018fa:	2b00      	cmp	r3, #0
 80018fc:	d004      	beq.n	8001908 <LCD_IO_WriteCmd8DataFill16+0x1e8>
 80018fe:	4b2c      	ldr	r3, [pc, #176]	; (80019b0 <LCD_IO_WriteCmd8DataFill16+0x290>)
 8001900:	f44f 6200 	mov.w	r2, #2048	; 0x800
 8001904:	619a      	str	r2, [r3, #24]
 8001906:	e003      	b.n	8001910 <LCD_IO_WriteCmd8DataFill16+0x1f0>
 8001908:	4b29      	ldr	r3, [pc, #164]	; (80019b0 <LCD_IO_WriteCmd8DataFill16+0x290>)
 800190a:	f04f 6200 	mov.w	r2, #134217728	; 0x8000000
 800190e:	619a      	str	r2, [r3, #24]
 8001910:	4b24      	ldr	r3, [pc, #144]	; (80019a4 <LCD_IO_WriteCmd8DataFill16+0x284>)
 8001912:	781b      	ldrb	r3, [r3, #0]
 8001914:	f003 0340 	and.w	r3, r3, #64	; 0x40
 8001918:	2b00      	cmp	r3, #0
 800191a:	d004      	beq.n	8001926 <LCD_IO_WriteCmd8DataFill16+0x206>
 800191c:	4b25      	ldr	r3, [pc, #148]	; (80019b4 <LCD_IO_WriteCmd8DataFill16+0x294>)
 800191e:	f44f 7280 	mov.w	r2, #256	; 0x100
 8001922:	619a      	str	r2, [r3, #24]
 8001924:	e003      	b.n	800192e <LCD_IO_WriteCmd8DataFill16+0x20e>
 8001926:	4b23      	ldr	r3, [pc, #140]	; (80019b4 <LCD_IO_WriteCmd8DataFill16+0x294>)
 8001928:	f04f 7280 	mov.w	r2, #16777216	; 0x1000000
 800192c:	619a      	str	r2, [r3, #24]
 800192e:	4b1d      	ldr	r3, [pc, #116]	; (80019a4 <LCD_IO_WriteCmd8DataFill16+0x284>)
 8001930:	781b      	ldrb	r3, [r3, #0]
 8001932:	b25b      	sxtb	r3, r3
 8001934:	2b00      	cmp	r3, #0
 8001936:	da04      	bge.n	8001942 <LCD_IO_WriteCmd8DataFill16+0x222>
 8001938:	4b1b      	ldr	r3, [pc, #108]	; (80019a8 <LCD_IO_WriteCmd8DataFill16+0x288>)
 800193a:	f44f 5280 	mov.w	r2, #4096	; 0x1000
 800193e:	619a      	str	r2, [r3, #24]
 8001940:	e003      	b.n	800194a <LCD_IO_WriteCmd8DataFill16+0x22a>
 8001942:	4b19      	ldr	r3, [pc, #100]	; (80019a8 <LCD_IO_WriteCmd8DataFill16+0x288>)
 8001944:	f04f 5280 	mov.w	r2, #268435456	; 0x10000000
 8001948:	619a      	str	r2, [r3, #24]
 800194a:	4b15      	ldr	r3, [pc, #84]	; (80019a0 <LCD_IO_WriteCmd8DataFill16+0x280>)
 800194c:	f44f 3280 	mov.w	r2, #65536	; 0x10000
 8001950:	619a      	str	r2, [r3, #24]
 8001952:	2008      	movs	r0, #8
 8001954:	f7ff fb5c 	bl	8001010 <LCD_IO_Delay>
 8001958:	4b11      	ldr	r3, [pc, #68]	; (80019a0 <LCD_IO_WriteCmd8DataFill16+0x280>)
 800195a:	2201      	movs	r2, #1
 800195c:	619a      	str	r2, [r3, #24]
 800195e:	88bb      	ldrh	r3, [r7, #4]
 8001960:	b2da      	uxtb	r2, r3
 8001962:	4b10      	ldr	r3, [pc, #64]	; (80019a4 <LCD_IO_WriteCmd8DataFill16+0x284>)
 8001964:	701a      	strb	r2, [r3, #0]
 8001966:	4b0f      	ldr	r3, [pc, #60]	; (80019a4 <LCD_IO_WriteCmd8DataFill16+0x284>)
 8001968:	781b      	ldrb	r3, [r3, #0]
 800196a:	f003 0301 	and.w	r3, r3, #1
 800196e:	2b00      	cmp	r3, #0
 8001970:	d004      	beq.n	800197c <LCD_IO_WriteCmd8DataFill16+0x25c>
 8001972:	4b0d      	ldr	r3, [pc, #52]	; (80019a8 <LCD_IO_WriteCmd8DataFill16+0x288>)
 8001974:	f44f 7200 	mov.w	r2, #512	; 0x200
 8001978:	619a      	str	r2, [r3, #24]
 800197a:	e003      	b.n	8001984 <LCD_IO_WriteCmd8DataFill16+0x264>
 800197c:	4b0a      	ldr	r3, [pc, #40]	; (80019a8 <LCD_IO_WriteCmd8DataFill16+0x288>)
 800197e:	f04f 7200 	mov.w	r2, #33554432	; 0x2000000
 8001982:	619a      	str	r2, [r3, #24]
 8001984:	4b07      	ldr	r3, [pc, #28]	; (80019a4 <LCD_IO_WriteCmd8DataFill16+0x284>)
 8001986:	781b      	ldrb	r3, [r3, #0]
 8001988:	f003 0302 	and.w	r3, r3, #2
 800198c:	2b00      	cmp	r3, #0
 800198e:	d013      	beq.n	80019b8 <LCD_IO_WriteCmd8DataFill16+0x298>
 8001990:	4b06      	ldr	r3, [pc, #24]	; (80019ac <LCD_IO_WriteCmd8DataFill16+0x28c>)
 8001992:	f44f 4200 	mov.w	r2, #32768	; 0x8000
 8001996:	619a      	str	r2, [r3, #24]
 8001998:	e012      	b.n	80019c0 <LCD_IO_WriteCmd8DataFill16+0x2a0>
 800199a:	bf00      	nop
 800199c:	58020400 	.word	0x58020400
 80019a0:	58020800 	.word	0x58020800
 80019a4:	240000ac 	.word	0x240000ac
 80019a8:	58021800 	.word	0x58021800
 80019ac:	58020c00 	.word	0x58020c00
 80019b0:	58021000 	.word	0x58021000
 80019b4:	58020000 	.word	0x58020000
 80019b8:	4b39      	ldr	r3, [pc, #228]	; (8001aa0 <LCD_IO_WriteCmd8DataFill16+0x380>)
 80019ba:	f04f 4200 	mov.w	r2, #2147483648	; 0x80000000
 80019be:	619a      	str	r2, [r3, #24]
 80019c0:	4b38      	ldr	r3, [pc, #224]	; (8001aa4 <LCD_IO_WriteCmd8DataFill16+0x384>)
 80019c2:	781b      	ldrb	r3, [r3, #0]
 80019c4:	f003 0304 	and.w	r3, r3, #4
 80019c8:	2b00      	cmp	r3, #0
 80019ca:	d004      	beq.n	80019d6 <LCD_IO_WriteCmd8DataFill16+0x2b6>
 80019cc:	4b36      	ldr	r3, [pc, #216]	; (8001aa8 <LCD_IO_WriteCmd8DataFill16+0x388>)
 80019ce:	f44f 4280 	mov.w	r2, #16384	; 0x4000
 80019d2:	619a      	str	r2, [r3, #24]
 80019d4:	e003      	b.n	80019de <LCD_IO_WriteCmd8DataFill16+0x2be>
 80019d6:	4b34      	ldr	r3, [pc, #208]	; (8001aa8 <LCD_IO_WriteCmd8DataFill16+0x388>)
 80019d8:	f04f 4280 	mov.w	r2, #1073741824	; 0x40000000
 80019dc:	619a      	str	r2, [r3, #24]
 80019de:	4b31      	ldr	r3, [pc, #196]	; (8001aa4 <LCD_IO_WriteCmd8DataFill16+0x384>)
 80019e0:	781b      	ldrb	r3, [r3, #0]
 80019e2:	f003 0308 	and.w	r3, r3, #8
 80019e6:	2b00      	cmp	r3, #0
 80019e8:	d004      	beq.n	80019f4 <LCD_IO_WriteCmd8DataFill16+0x2d4>
 80019ea:	4b30      	ldr	r3, [pc, #192]	; (8001aac <LCD_IO_WriteCmd8DataFill16+0x38c>)
 80019ec:	f44f 5200 	mov.w	r2, #8192	; 0x2000
 80019f0:	619a      	str	r2, [r3, #24]
 80019f2:	e003      	b.n	80019fc <LCD_IO_WriteCmd8DataFill16+0x2dc>
 80019f4:	4b2d      	ldr	r3, [pc, #180]	; (8001aac <LCD_IO_WriteCmd8DataFill16+0x38c>)
 80019f6:	f04f 5200 	mov.w	r2, #536870912	; 0x20000000
 80019fa:	619a      	str	r2, [r3, #24]
 80019fc:	4b29      	ldr	r3, [pc, #164]	; (8001aa4 <LCD_IO_WriteCmd8DataFill16+0x384>)
 80019fe:	781b      	ldrb	r3, [r3, #0]
 8001a00:	f003 0310 	and.w	r3, r3, #16
 8001a04:	2b00      	cmp	r3, #0
 8001a06:	d004      	beq.n	8001a12 <LCD_IO_WriteCmd8DataFill16+0x2f2>
 8001a08:	4b28      	ldr	r3, [pc, #160]	; (8001aac <LCD_IO_WriteCmd8DataFill16+0x38c>)
 8001a0a:	f44f 4280 	mov.w	r2, #16384	; 0x4000
 8001a0e:	619a      	str	r2, [r3, #24]
 8001a10:	e003      	b.n	8001a1a <LCD_IO_WriteCmd8DataFill16+0x2fa>
 8001a12:	4b26      	ldr	r3, [pc, #152]	; (8001aac <LCD_IO_WriteCmd8DataFill16+0x38c>)
 8001a14:	f04f 4280 	mov.w	r2, #1073741824	; 0x40000000
 8001a18:	619a      	str	r2, [r3, #24]
 8001a1a:	4b22      	ldr	r3, [pc, #136]	; (8001aa4 <LCD_IO_WriteCmd8DataFill16+0x384>)
 8001a1c:	781b      	ldrb	r3, [r3, #0]
 8001a1e:	f003 0320 	and.w	r3, r3, #32
 8001a22:	2b00      	cmp	r3, #0
 8001a24:	d004      	beq.n	8001a30 <LCD_IO_WriteCmd8DataFill16+0x310>
 8001a26:	4b21      	ldr	r3, [pc, #132]	; (8001aac <LCD_IO_WriteCmd8DataFill16+0x38c>)
 8001a28:	f44f 6200 	mov.w	r2, #2048	; 0x800
 8001a2c:	619a      	str	r2, [r3, #24]
 8001a2e:	e003      	b.n	8001a38 <LCD_IO_WriteCmd8DataFill16+0x318>
 8001a30:	4b1e      	ldr	r3, [pc, #120]	; (8001aac <LCD_IO_WriteCmd8DataFill16+0x38c>)
 8001a32:	f04f 6200 	mov.w	r2, #134217728	; 0x8000000
 8001a36:	619a      	str	r2, [r3, #24]
 8001a38:	4b1a      	ldr	r3, [pc, #104]	; (8001aa4 <LCD_IO_WriteCmd8DataFill16+0x384>)
 8001a3a:	781b      	ldrb	r3, [r3, #0]
 8001a3c:	f003 0340 	and.w	r3, r3, #64	; 0x40
 8001a40:	2b00      	cmp	r3, #0
 8001a42:	d004      	beq.n	8001a4e <LCD_IO_WriteCmd8DataFill16+0x32e>
 8001a44:	4b1a      	ldr	r3, [pc, #104]	; (8001ab0 <LCD_IO_WriteCmd8DataFill16+0x390>)
 8001a46:	f44f 7280 	mov.w	r2, #256	; 0x100
 8001a4a:	619a      	str	r2, [r3, #24]
 8001a4c:	e003      	b.n	8001a56 <LCD_IO_WriteCmd8DataFill16+0x336>
 8001a4e:	4b18      	ldr	r3, [pc, #96]	; (8001ab0 <LCD_IO_WriteCmd8DataFill16+0x390>)
 8001a50:	f04f 7280 	mov.w	r2, #16777216	; 0x1000000
 8001a54:	619a      	str	r2, [r3, #24]
 8001a56:	4b13      	ldr	r3, [pc, #76]	; (8001aa4 <LCD_IO_WriteCmd8DataFill16+0x384>)
 8001a58:	781b      	ldrb	r3, [r3, #0]
 8001a5a:	b25b      	sxtb	r3, r3
 8001a5c:	2b00      	cmp	r3, #0
 8001a5e:	da04      	bge.n	8001a6a <LCD_IO_WriteCmd8DataFill16+0x34a>
 8001a60:	4b11      	ldr	r3, [pc, #68]	; (8001aa8 <LCD_IO_WriteCmd8DataFill16+0x388>)
 8001a62:	f44f 5280 	mov.w	r2, #4096	; 0x1000
 8001a66:	619a      	str	r2, [r3, #24]
 8001a68:	e003      	b.n	8001a72 <LCD_IO_WriteCmd8DataFill16+0x352>
 8001a6a:	4b0f      	ldr	r3, [pc, #60]	; (8001aa8 <LCD_IO_WriteCmd8DataFill16+0x388>)
 8001a6c:	f04f 5280 	mov.w	r2, #268435456	; 0x10000000
 8001a70:	619a      	str	r2, [r3, #24]
 8001a72:	4b10      	ldr	r3, [pc, #64]	; (8001ab4 <LCD_IO_WriteCmd8DataFill16+0x394>)
 8001a74:	f44f 3280 	mov.w	r2, #65536	; 0x10000
 8001a78:	619a      	str	r2, [r3, #24]
 8001a7a:	2008      	movs	r0, #8
 8001a7c:	f7ff fac8 	bl	8001010 <LCD_IO_Delay>
 8001a80:	4b0c      	ldr	r3, [pc, #48]	; (8001ab4 <LCD_IO_WriteCmd8DataFill16+0x394>)
 8001a82:	2201      	movs	r2, #1
 8001a84:	619a      	str	r2, [r3, #24]
  while(Size--)
 8001a86:	683b      	ldr	r3, [r7, #0]
 8001a88:	1e5a      	subs	r2, r3, #1
 8001a8a:	603a      	str	r2, [r7, #0]
 8001a8c:	2b00      	cmp	r3, #0
 8001a8e:	f47f aedf 	bne.w	8001850 <LCD_IO_WriteCmd8DataFill16+0x130>
  }
  LCD_CS_OFF;
 8001a92:	4b09      	ldr	r3, [pc, #36]	; (8001ab8 <LCD_IO_WriteCmd8DataFill16+0x398>)
 8001a94:	2202      	movs	r2, #2
 8001a96:	619a      	str	r2, [r3, #24]
}
 8001a98:	bf00      	nop
 8001a9a:	3708      	adds	r7, #8
 8001a9c:	46bd      	mov	sp, r7
 8001a9e:	bd80      	pop	{r7, pc}
 8001aa0:	58020c00 	.word	0x58020c00
 8001aa4:	240000ac 	.word	0x240000ac
 8001aa8:	58021800 	.word	0x58021800
 8001aac:	58021000 	.word	0x58021000
 8001ab0:	58020000 	.word	0x58020000
 8001ab4:	58020800 	.word	0x58020800
 8001ab8:	58020400 	.word	0x58020400

08001abc <LCD_IO_WriteCmd8MultipleData8>:

//-----------------------------------------------------------------------------
void LCD_IO_WriteCmd8MultipleData8(uint8_t Cmd, uint8_t *pData, uint32_t Size)
{
 8001abc:	b580      	push	{r7, lr}
 8001abe:	b084      	sub	sp, #16
 8001ac0:	af00      	add	r7, sp, #0
 8001ac2:	4603      	mov	r3, r0
 8001ac4:	60b9      	str	r1, [r7, #8]
 8001ac6:	607a      	str	r2, [r7, #4]
 8001ac8:	73fb      	strb	r3, [r7, #15]
  LCD_CS_ON;
 8001aca:	4b92      	ldr	r3, [pc, #584]	; (8001d14 <LCD_IO_WriteCmd8MultipleData8+0x258>)
 8001acc:	f44f 3200 	mov.w	r2, #131072	; 0x20000
 8001ad0:	619a      	str	r2, [r3, #24]
  LCD_CMD8_WRITE(Cmd);
 8001ad2:	4b91      	ldr	r3, [pc, #580]	; (8001d18 <LCD_IO_WriteCmd8MultipleData8+0x25c>)
 8001ad4:	f44f 2200 	mov.w	r2, #524288	; 0x80000
 8001ad8:	619a      	str	r2, [r3, #24]
 8001ada:	4a90      	ldr	r2, [pc, #576]	; (8001d1c <LCD_IO_WriteCmd8MultipleData8+0x260>)
 8001adc:	7bfb      	ldrb	r3, [r7, #15]
 8001ade:	7013      	strb	r3, [r2, #0]
 8001ae0:	4b8e      	ldr	r3, [pc, #568]	; (8001d1c <LCD_IO_WriteCmd8MultipleData8+0x260>)
 8001ae2:	781b      	ldrb	r3, [r3, #0]
 8001ae4:	f003 0301 	and.w	r3, r3, #1
 8001ae8:	2b00      	cmp	r3, #0
 8001aea:	d004      	beq.n	8001af6 <LCD_IO_WriteCmd8MultipleData8+0x3a>
 8001aec:	4b8c      	ldr	r3, [pc, #560]	; (8001d20 <LCD_IO_WriteCmd8MultipleData8+0x264>)
 8001aee:	f44f 7200 	mov.w	r2, #512	; 0x200
 8001af2:	619a      	str	r2, [r3, #24]
 8001af4:	e003      	b.n	8001afe <LCD_IO_WriteCmd8MultipleData8+0x42>
 8001af6:	4b8a      	ldr	r3, [pc, #552]	; (8001d20 <LCD_IO_WriteCmd8MultipleData8+0x264>)
 8001af8:	f04f 7200 	mov.w	r2, #33554432	; 0x2000000
 8001afc:	619a      	str	r2, [r3, #24]
 8001afe:	4b87      	ldr	r3, [pc, #540]	; (8001d1c <LCD_IO_WriteCmd8MultipleData8+0x260>)
 8001b00:	781b      	ldrb	r3, [r3, #0]
 8001b02:	f003 0302 	and.w	r3, r3, #2
 8001b06:	2b00      	cmp	r3, #0
 8001b08:	d004      	beq.n	8001b14 <LCD_IO_WriteCmd8MultipleData8+0x58>
 8001b0a:	4b86      	ldr	r3, [pc, #536]	; (8001d24 <LCD_IO_WriteCmd8MultipleData8+0x268>)
 8001b0c:	f44f 4200 	mov.w	r2, #32768	; 0x8000
 8001b10:	619a      	str	r2, [r3, #24]
 8001b12:	e003      	b.n	8001b1c <LCD_IO_WriteCmd8MultipleData8+0x60>
 8001b14:	4b83      	ldr	r3, [pc, #524]	; (8001d24 <LCD_IO_WriteCmd8MultipleData8+0x268>)
 8001b16:	f04f 4200 	mov.w	r2, #2147483648	; 0x80000000
 8001b1a:	619a      	str	r2, [r3, #24]
 8001b1c:	4b7f      	ldr	r3, [pc, #508]	; (8001d1c <LCD_IO_WriteCmd8MultipleData8+0x260>)
 8001b1e:	781b      	ldrb	r3, [r3, #0]
 8001b20:	f003 0304 	and.w	r3, r3, #4
 8001b24:	2b00      	cmp	r3, #0
 8001b26:	d004      	beq.n	8001b32 <LCD_IO_WriteCmd8MultipleData8+0x76>
 8001b28:	4b7d      	ldr	r3, [pc, #500]	; (8001d20 <LCD_IO_WriteCmd8MultipleData8+0x264>)
 8001b2a:	f44f 4280 	mov.w	r2, #16384	; 0x4000
 8001b2e:	619a      	str	r2, [r3, #24]
 8001b30:	e003      	b.n	8001b3a <LCD_IO_WriteCmd8MultipleData8+0x7e>
 8001b32:	4b7b      	ldr	r3, [pc, #492]	; (8001d20 <LCD_IO_WriteCmd8MultipleData8+0x264>)
 8001b34:	f04f 4280 	mov.w	r2, #1073741824	; 0x40000000
 8001b38:	619a      	str	r2, [r3, #24]
 8001b3a:	4b78      	ldr	r3, [pc, #480]	; (8001d1c <LCD_IO_WriteCmd8MultipleData8+0x260>)
 8001b3c:	781b      	ldrb	r3, [r3, #0]
 8001b3e:	f003 0308 	and.w	r3, r3, #8
 8001b42:	2b00      	cmp	r3, #0
 8001b44:	d004      	beq.n	8001b50 <LCD_IO_WriteCmd8MultipleData8+0x94>
 8001b46:	4b78      	ldr	r3, [pc, #480]	; (8001d28 <LCD_IO_WriteCmd8MultipleData8+0x26c>)
 8001b48:	f44f 5200 	mov.w	r2, #8192	; 0x2000
 8001b4c:	619a      	str	r2, [r3, #24]
 8001b4e:	e003      	b.n	8001b58 <LCD_IO_WriteCmd8MultipleData8+0x9c>
 8001b50:	4b75      	ldr	r3, [pc, #468]	; (8001d28 <LCD_IO_WriteCmd8MultipleData8+0x26c>)
 8001b52:	f04f 5200 	mov.w	r2, #536870912	; 0x20000000
 8001b56:	619a      	str	r2, [r3, #24]
 8001b58:	4b70      	ldr	r3, [pc, #448]	; (8001d1c <LCD_IO_WriteCmd8MultipleData8+0x260>)
 8001b5a:	781b      	ldrb	r3, [r3, #0]
 8001b5c:	f003 0310 	and.w	r3, r3, #16
 8001b60:	2b00      	cmp	r3, #0
 8001b62:	d004      	beq.n	8001b6e <LCD_IO_WriteCmd8MultipleData8+0xb2>
 8001b64:	4b70      	ldr	r3, [pc, #448]	; (8001d28 <LCD_IO_WriteCmd8MultipleData8+0x26c>)
 8001b66:	f44f 4280 	mov.w	r2, #16384	; 0x4000
 8001b6a:	619a      	str	r2, [r3, #24]
 8001b6c:	e003      	b.n	8001b76 <LCD_IO_WriteCmd8MultipleData8+0xba>
 8001b6e:	4b6e      	ldr	r3, [pc, #440]	; (8001d28 <LCD_IO_WriteCmd8MultipleData8+0x26c>)
 8001b70:	f04f 4280 	mov.w	r2, #1073741824	; 0x40000000
 8001b74:	619a      	str	r2, [r3, #24]
 8001b76:	4b69      	ldr	r3, [pc, #420]	; (8001d1c <LCD_IO_WriteCmd8MultipleData8+0x260>)
 8001b78:	781b      	ldrb	r3, [r3, #0]
 8001b7a:	f003 0320 	and.w	r3, r3, #32
 8001b7e:	2b00      	cmp	r3, #0
 8001b80:	d004      	beq.n	8001b8c <LCD_IO_WriteCmd8MultipleData8+0xd0>
 8001b82:	4b69      	ldr	r3, [pc, #420]	; (8001d28 <LCD_IO_WriteCmd8MultipleData8+0x26c>)
 8001b84:	f44f 6200 	mov.w	r2, #2048	; 0x800
 8001b88:	619a      	str	r2, [r3, #24]
 8001b8a:	e003      	b.n	8001b94 <LCD_IO_WriteCmd8MultipleData8+0xd8>
 8001b8c:	4b66      	ldr	r3, [pc, #408]	; (8001d28 <LCD_IO_WriteCmd8MultipleData8+0x26c>)
 8001b8e:	f04f 6200 	mov.w	r2, #134217728	; 0x8000000
 8001b92:	619a      	str	r2, [r3, #24]
 8001b94:	4b61      	ldr	r3, [pc, #388]	; (8001d1c <LCD_IO_WriteCmd8MultipleData8+0x260>)
 8001b96:	781b      	ldrb	r3, [r3, #0]
 8001b98:	f003 0340 	and.w	r3, r3, #64	; 0x40
 8001b9c:	2b00      	cmp	r3, #0
 8001b9e:	d004      	beq.n	8001baa <LCD_IO_WriteCmd8MultipleData8+0xee>
 8001ba0:	4b62      	ldr	r3, [pc, #392]	; (8001d2c <LCD_IO_WriteCmd8MultipleData8+0x270>)
 8001ba2:	f44f 7280 	mov.w	r2, #256	; 0x100
 8001ba6:	619a      	str	r2, [r3, #24]
 8001ba8:	e003      	b.n	8001bb2 <LCD_IO_WriteCmd8MultipleData8+0xf6>
 8001baa:	4b60      	ldr	r3, [pc, #384]	; (8001d2c <LCD_IO_WriteCmd8MultipleData8+0x270>)
 8001bac:	f04f 7280 	mov.w	r2, #16777216	; 0x1000000
 8001bb0:	619a      	str	r2, [r3, #24]
 8001bb2:	4b5a      	ldr	r3, [pc, #360]	; (8001d1c <LCD_IO_WriteCmd8MultipleData8+0x260>)
 8001bb4:	781b      	ldrb	r3, [r3, #0]
 8001bb6:	b25b      	sxtb	r3, r3
 8001bb8:	2b00      	cmp	r3, #0
 8001bba:	da04      	bge.n	8001bc6 <LCD_IO_WriteCmd8MultipleData8+0x10a>
 8001bbc:	4b58      	ldr	r3, [pc, #352]	; (8001d20 <LCD_IO_WriteCmd8MultipleData8+0x264>)
 8001bbe:	f44f 5280 	mov.w	r2, #4096	; 0x1000
 8001bc2:	619a      	str	r2, [r3, #24]
 8001bc4:	e003      	b.n	8001bce <LCD_IO_WriteCmd8MultipleData8+0x112>
 8001bc6:	4b56      	ldr	r3, [pc, #344]	; (8001d20 <LCD_IO_WriteCmd8MultipleData8+0x264>)
 8001bc8:	f04f 5280 	mov.w	r2, #268435456	; 0x10000000
 8001bcc:	619a      	str	r2, [r3, #24]
 8001bce:	4b52      	ldr	r3, [pc, #328]	; (8001d18 <LCD_IO_WriteCmd8MultipleData8+0x25c>)
 8001bd0:	f44f 3280 	mov.w	r2, #65536	; 0x10000
 8001bd4:	619a      	str	r2, [r3, #24]
 8001bd6:	2008      	movs	r0, #8
 8001bd8:	f7ff fa1a 	bl	8001010 <LCD_IO_Delay>
 8001bdc:	4b4e      	ldr	r3, [pc, #312]	; (8001d18 <LCD_IO_WriteCmd8MultipleData8+0x25c>)
 8001bde:	2201      	movs	r2, #1
 8001be0:	619a      	str	r2, [r3, #24]
 8001be2:	4b4d      	ldr	r3, [pc, #308]	; (8001d18 <LCD_IO_WriteCmd8MultipleData8+0x25c>)
 8001be4:	2208      	movs	r2, #8
 8001be6:	619a      	str	r2, [r3, #24]

  while(Size--)
 8001be8:	e087      	b.n	8001cfa <LCD_IO_WriteCmd8MultipleData8+0x23e>
  {
    LCD_DATA8_WRITE(*pData);
 8001bea:	68bb      	ldr	r3, [r7, #8]
 8001bec:	781a      	ldrb	r2, [r3, #0]
 8001bee:	4b4b      	ldr	r3, [pc, #300]	; (8001d1c <LCD_IO_WriteCmd8MultipleData8+0x260>)
 8001bf0:	701a      	strb	r2, [r3, #0]
 8001bf2:	4b4a      	ldr	r3, [pc, #296]	; (8001d1c <LCD_IO_WriteCmd8MultipleData8+0x260>)
 8001bf4:	781b      	ldrb	r3, [r3, #0]
 8001bf6:	f003 0301 	and.w	r3, r3, #1
 8001bfa:	2b00      	cmp	r3, #0
 8001bfc:	d004      	beq.n	8001c08 <LCD_IO_WriteCmd8MultipleData8+0x14c>
 8001bfe:	4b48      	ldr	r3, [pc, #288]	; (8001d20 <LCD_IO_WriteCmd8MultipleData8+0x264>)
 8001c00:	f44f 7200 	mov.w	r2, #512	; 0x200
 8001c04:	619a      	str	r2, [r3, #24]
 8001c06:	e003      	b.n	8001c10 <LCD_IO_WriteCmd8MultipleData8+0x154>
 8001c08:	4b45      	ldr	r3, [pc, #276]	; (8001d20 <LCD_IO_WriteCmd8MultipleData8+0x264>)
 8001c0a:	f04f 7200 	mov.w	r2, #33554432	; 0x2000000
 8001c0e:	619a      	str	r2, [r3, #24]
 8001c10:	4b42      	ldr	r3, [pc, #264]	; (8001d1c <LCD_IO_WriteCmd8MultipleData8+0x260>)
 8001c12:	781b      	ldrb	r3, [r3, #0]
 8001c14:	f003 0302 	and.w	r3, r3, #2
 8001c18:	2b00      	cmp	r3, #0
 8001c1a:	d004      	beq.n	8001c26 <LCD_IO_WriteCmd8MultipleData8+0x16a>
 8001c1c:	4b41      	ldr	r3, [pc, #260]	; (8001d24 <LCD_IO_WriteCmd8MultipleData8+0x268>)
 8001c1e:	f44f 4200 	mov.w	r2, #32768	; 0x8000
 8001c22:	619a      	str	r2, [r3, #24]
 8001c24:	e003      	b.n	8001c2e <LCD_IO_WriteCmd8MultipleData8+0x172>
 8001c26:	4b3f      	ldr	r3, [pc, #252]	; (8001d24 <LCD_IO_WriteCmd8MultipleData8+0x268>)
 8001c28:	f04f 4200 	mov.w	r2, #2147483648	; 0x80000000
 8001c2c:	619a      	str	r2, [r3, #24]
 8001c2e:	4b3b      	ldr	r3, [pc, #236]	; (8001d1c <LCD_IO_WriteCmd8MultipleData8+0x260>)
 8001c30:	781b      	ldrb	r3, [r3, #0]
 8001c32:	f003 0304 	and.w	r3, r3, #4
 8001c36:	2b00      	cmp	r3, #0
 8001c38:	d004      	beq.n	8001c44 <LCD_IO_WriteCmd8MultipleData8+0x188>
 8001c3a:	4b39      	ldr	r3, [pc, #228]	; (8001d20 <LCD_IO_WriteCmd8MultipleData8+0x264>)
 8001c3c:	f44f 4280 	mov.w	r2, #16384	; 0x4000
 8001c40:	619a      	str	r2, [r3, #24]
 8001c42:	e003      	b.n	8001c4c <LCD_IO_WriteCmd8MultipleData8+0x190>
 8001c44:	4b36      	ldr	r3, [pc, #216]	; (8001d20 <LCD_IO_WriteCmd8MultipleData8+0x264>)
 8001c46:	f04f 4280 	mov.w	r2, #1073741824	; 0x40000000
 8001c4a:	619a      	str	r2, [r3, #24]
 8001c4c:	4b33      	ldr	r3, [pc, #204]	; (8001d1c <LCD_IO_WriteCmd8MultipleData8+0x260>)
 8001c4e:	781b      	ldrb	r3, [r3, #0]
 8001c50:	f003 0308 	and.w	r3, r3, #8
 8001c54:	2b00      	cmp	r3, #0
 8001c56:	d004      	beq.n	8001c62 <LCD_IO_WriteCmd8MultipleData8+0x1a6>
 8001c58:	4b33      	ldr	r3, [pc, #204]	; (8001d28 <LCD_IO_WriteCmd8MultipleData8+0x26c>)
 8001c5a:	f44f 5200 	mov.w	r2, #8192	; 0x2000
 8001c5e:	619a      	str	r2, [r3, #24]
 8001c60:	e003      	b.n	8001c6a <LCD_IO_WriteCmd8MultipleData8+0x1ae>
 8001c62:	4b31      	ldr	r3, [pc, #196]	; (8001d28 <LCD_IO_WriteCmd8MultipleData8+0x26c>)
 8001c64:	f04f 5200 	mov.w	r2, #536870912	; 0x20000000
 8001c68:	619a      	str	r2, [r3, #24]
 8001c6a:	4b2c      	ldr	r3, [pc, #176]	; (8001d1c <LCD_IO_WriteCmd8MultipleData8+0x260>)
 8001c6c:	781b      	ldrb	r3, [r3, #0]
 8001c6e:	f003 0310 	and.w	r3, r3, #16
 8001c72:	2b00      	cmp	r3, #0
 8001c74:	d004      	beq.n	8001c80 <LCD_IO_WriteCmd8MultipleData8+0x1c4>
 8001c76:	4b2c      	ldr	r3, [pc, #176]	; (8001d28 <LCD_IO_WriteCmd8MultipleData8+0x26c>)
 8001c78:	f44f 4280 	mov.w	r2, #16384	; 0x4000
 8001c7c:	619a      	str	r2, [r3, #24]
 8001c7e:	e003      	b.n	8001c88 <LCD_IO_WriteCmd8MultipleData8+0x1cc>
 8001c80:	4b29      	ldr	r3, [pc, #164]	; (8001d28 <LCD_IO_WriteCmd8MultipleData8+0x26c>)
 8001c82:	f04f 4280 	mov.w	r2, #1073741824	; 0x40000000
 8001c86:	619a      	str	r2, [r3, #24]
 8001c88:	4b24      	ldr	r3, [pc, #144]	; (8001d1c <LCD_IO_WriteCmd8MultipleData8+0x260>)
 8001c8a:	781b      	ldrb	r3, [r3, #0]
 8001c8c:	f003 0320 	and.w	r3, r3, #32
 8001c90:	2b00      	cmp	r3, #0
 8001c92:	d004      	beq.n	8001c9e <LCD_IO_WriteCmd8MultipleData8+0x1e2>
 8001c94:	4b24      	ldr	r3, [pc, #144]	; (8001d28 <LCD_IO_WriteCmd8MultipleData8+0x26c>)
 8001c96:	f44f 6200 	mov.w	r2, #2048	; 0x800
 8001c9a:	619a      	str	r2, [r3, #24]
 8001c9c:	e003      	b.n	8001ca6 <LCD_IO_WriteCmd8MultipleData8+0x1ea>
 8001c9e:	4b22      	ldr	r3, [pc, #136]	; (8001d28 <LCD_IO_WriteCmd8MultipleData8+0x26c>)
 8001ca0:	f04f 6200 	mov.w	r2, #134217728	; 0x8000000
 8001ca4:	619a      	str	r2, [r3, #24]
 8001ca6:	4b1d      	ldr	r3, [pc, #116]	; (8001d1c <LCD_IO_WriteCmd8MultipleData8+0x260>)
 8001ca8:	781b      	ldrb	r3, [r3, #0]
 8001caa:	f003 0340 	and.w	r3, r3, #64	; 0x40
 8001cae:	2b00      	cmp	r3, #0
 8001cb0:	d004      	beq.n	8001cbc <LCD_IO_WriteCmd8MultipleData8+0x200>
 8001cb2:	4b1e      	ldr	r3, [pc, #120]	; (8001d2c <LCD_IO_WriteCmd8MultipleData8+0x270>)
 8001cb4:	f44f 7280 	mov.w	r2, #256	; 0x100
 8001cb8:	619a      	str	r2, [r3, #24]
 8001cba:	e003      	b.n	8001cc4 <LCD_IO_WriteCmd8MultipleData8+0x208>
 8001cbc:	4b1b      	ldr	r3, [pc, #108]	; (8001d2c <LCD_IO_WriteCmd8MultipleData8+0x270>)
 8001cbe:	f04f 7280 	mov.w	r2, #16777216	; 0x1000000
 8001cc2:	619a      	str	r2, [r3, #24]
 8001cc4:	4b15      	ldr	r3, [pc, #84]	; (8001d1c <LCD_IO_WriteCmd8MultipleData8+0x260>)
 8001cc6:	781b      	ldrb	r3, [r3, #0]
 8001cc8:	b25b      	sxtb	r3, r3
 8001cca:	2b00      	cmp	r3, #0
 8001ccc:	da04      	bge.n	8001cd8 <LCD_IO_WriteCmd8MultipleData8+0x21c>
 8001cce:	4b14      	ldr	r3, [pc, #80]	; (8001d20 <LCD_IO_WriteCmd8MultipleData8+0x264>)
 8001cd0:	f44f 5280 	mov.w	r2, #4096	; 0x1000
 8001cd4:	619a      	str	r2, [r3, #24]
 8001cd6:	e003      	b.n	8001ce0 <LCD_IO_WriteCmd8MultipleData8+0x224>
 8001cd8:	4b11      	ldr	r3, [pc, #68]	; (8001d20 <LCD_IO_WriteCmd8MultipleData8+0x264>)
 8001cda:	f04f 5280 	mov.w	r2, #268435456	; 0x10000000
 8001cde:	619a      	str	r2, [r3, #24]
 8001ce0:	4b0d      	ldr	r3, [pc, #52]	; (8001d18 <LCD_IO_WriteCmd8MultipleData8+0x25c>)
 8001ce2:	f44f 3280 	mov.w	r2, #65536	; 0x10000
 8001ce6:	619a      	str	r2, [r3, #24]
 8001ce8:	2008      	movs	r0, #8
 8001cea:	f7ff f991 	bl	8001010 <LCD_IO_Delay>
 8001cee:	4b0a      	ldr	r3, [pc, #40]	; (8001d18 <LCD_IO_WriteCmd8MultipleData8+0x25c>)
 8001cf0:	2201      	movs	r2, #1
 8001cf2:	619a      	str	r2, [r3, #24]
    pData ++;
 8001cf4:	68bb      	ldr	r3, [r7, #8]
 8001cf6:	3301      	adds	r3, #1
 8001cf8:	60bb      	str	r3, [r7, #8]
  while(Size--)
 8001cfa:	687b      	ldr	r3, [r7, #4]
 8001cfc:	1e5a      	subs	r2, r3, #1
 8001cfe:	607a      	str	r2, [r7, #4]
 8001d00:	2b00      	cmp	r3, #0
 8001d02:	f47f af72 	bne.w	8001bea <LCD_IO_WriteCmd8MultipleData8+0x12e>
  }
  LCD_CS_OFF;
 8001d06:	4b03      	ldr	r3, [pc, #12]	; (8001d14 <LCD_IO_WriteCmd8MultipleData8+0x258>)
 8001d08:	2202      	movs	r2, #2
 8001d0a:	619a      	str	r2, [r3, #24]
}
 8001d0c:	bf00      	nop
 8001d0e:	3710      	adds	r7, #16
 8001d10:	46bd      	mov	sp, r7
 8001d12:	bd80      	pop	{r7, pc}
 8001d14:	58020400 	.word	0x58020400
 8001d18:	58020800 	.word	0x58020800
 8001d1c:	240000ac 	.word	0x240000ac
 8001d20:	58021800 	.word	0x58021800
 8001d24:	58020c00 	.word	0x58020c00
 8001d28:	58021000 	.word	0x58021000
 8001d2c:	58020000 	.word	0x58020000

08001d30 <LCD_IO_WriteCmd8MultipleData16>:

//-----------------------------------------------------------------------------
void LCD_IO_WriteCmd8MultipleData16(uint8_t Cmd, uint16_t *pData, uint32_t Size)
{
 8001d30:	b580      	push	{r7, lr}
 8001d32:	b084      	sub	sp, #16
 8001d34:	af00      	add	r7, sp, #0
 8001d36:	4603      	mov	r3, r0
 8001d38:	60b9      	str	r1, [r7, #8]
 8001d3a:	607a      	str	r2, [r7, #4]
 8001d3c:	73fb      	strb	r3, [r7, #15]
  LCD_CS_ON;
 8001d3e:	4b9b      	ldr	r3, [pc, #620]	; (8001fac <LCD_IO_WriteCmd8MultipleData16+0x27c>)
 8001d40:	f44f 3200 	mov.w	r2, #131072	; 0x20000
 8001d44:	619a      	str	r2, [r3, #24]
  LCD_CMD8_WRITE(Cmd);
 8001d46:	4b9a      	ldr	r3, [pc, #616]	; (8001fb0 <LCD_IO_WriteCmd8MultipleData16+0x280>)
 8001d48:	f44f 2200 	mov.w	r2, #524288	; 0x80000
 8001d4c:	619a      	str	r2, [r3, #24]
 8001d4e:	4a99      	ldr	r2, [pc, #612]	; (8001fb4 <LCD_IO_WriteCmd8MultipleData16+0x284>)
 8001d50:	7bfb      	ldrb	r3, [r7, #15]
 8001d52:	7013      	strb	r3, [r2, #0]
 8001d54:	4b97      	ldr	r3, [pc, #604]	; (8001fb4 <LCD_IO_WriteCmd8MultipleData16+0x284>)
 8001d56:	781b      	ldrb	r3, [r3, #0]
 8001d58:	f003 0301 	and.w	r3, r3, #1
 8001d5c:	2b00      	cmp	r3, #0
 8001d5e:	d004      	beq.n	8001d6a <LCD_IO_WriteCmd8MultipleData16+0x3a>
 8001d60:	4b95      	ldr	r3, [pc, #596]	; (8001fb8 <LCD_IO_WriteCmd8MultipleData16+0x288>)
 8001d62:	f44f 7200 	mov.w	r2, #512	; 0x200
 8001d66:	619a      	str	r2, [r3, #24]
 8001d68:	e003      	b.n	8001d72 <LCD_IO_WriteCmd8MultipleData16+0x42>
 8001d6a:	4b93      	ldr	r3, [pc, #588]	; (8001fb8 <LCD_IO_WriteCmd8MultipleData16+0x288>)
 8001d6c:	f04f 7200 	mov.w	r2, #33554432	; 0x2000000
 8001d70:	619a      	str	r2, [r3, #24]
 8001d72:	4b90      	ldr	r3, [pc, #576]	; (8001fb4 <LCD_IO_WriteCmd8MultipleData16+0x284>)
 8001d74:	781b      	ldrb	r3, [r3, #0]
 8001d76:	f003 0302 	and.w	r3, r3, #2
 8001d7a:	2b00      	cmp	r3, #0
 8001d7c:	d004      	beq.n	8001d88 <LCD_IO_WriteCmd8MultipleData16+0x58>
 8001d7e:	4b8f      	ldr	r3, [pc, #572]	; (8001fbc <LCD_IO_WriteCmd8MultipleData16+0x28c>)
 8001d80:	f44f 4200 	mov.w	r2, #32768	; 0x8000
 8001d84:	619a      	str	r2, [r3, #24]
 8001d86:	e003      	b.n	8001d90 <LCD_IO_WriteCmd8MultipleData16+0x60>
 8001d88:	4b8c      	ldr	r3, [pc, #560]	; (8001fbc <LCD_IO_WriteCmd8MultipleData16+0x28c>)
 8001d8a:	f04f 4200 	mov.w	r2, #2147483648	; 0x80000000
 8001d8e:	619a      	str	r2, [r3, #24]
 8001d90:	4b88      	ldr	r3, [pc, #544]	; (8001fb4 <LCD_IO_WriteCmd8MultipleData16+0x284>)
 8001d92:	781b      	ldrb	r3, [r3, #0]
 8001d94:	f003 0304 	and.w	r3, r3, #4
 8001d98:	2b00      	cmp	r3, #0
 8001d9a:	d004      	beq.n	8001da6 <LCD_IO_WriteCmd8MultipleData16+0x76>
 8001d9c:	4b86      	ldr	r3, [pc, #536]	; (8001fb8 <LCD_IO_WriteCmd8MultipleData16+0x288>)
 8001d9e:	f44f 4280 	mov.w	r2, #16384	; 0x4000
 8001da2:	619a      	str	r2, [r3, #24]
 8001da4:	e003      	b.n	8001dae <LCD_IO_WriteCmd8MultipleData16+0x7e>
 8001da6:	4b84      	ldr	r3, [pc, #528]	; (8001fb8 <LCD_IO_WriteCmd8MultipleData16+0x288>)
 8001da8:	f04f 4280 	mov.w	r2, #1073741824	; 0x40000000
 8001dac:	619a      	str	r2, [r3, #24]
 8001dae:	4b81      	ldr	r3, [pc, #516]	; (8001fb4 <LCD_IO_WriteCmd8MultipleData16+0x284>)
 8001db0:	781b      	ldrb	r3, [r3, #0]
 8001db2:	f003 0308 	and.w	r3, r3, #8
 8001db6:	2b00      	cmp	r3, #0
 8001db8:	d004      	beq.n	8001dc4 <LCD_IO_WriteCmd8MultipleData16+0x94>
 8001dba:	4b81      	ldr	r3, [pc, #516]	; (8001fc0 <LCD_IO_WriteCmd8MultipleData16+0x290>)
 8001dbc:	f44f 5200 	mov.w	r2, #8192	; 0x2000
 8001dc0:	619a      	str	r2, [r3, #24]
 8001dc2:	e003      	b.n	8001dcc <LCD_IO_WriteCmd8MultipleData16+0x9c>
 8001dc4:	4b7e      	ldr	r3, [pc, #504]	; (8001fc0 <LCD_IO_WriteCmd8MultipleData16+0x290>)
 8001dc6:	f04f 5200 	mov.w	r2, #536870912	; 0x20000000
 8001dca:	619a      	str	r2, [r3, #24]
 8001dcc:	4b79      	ldr	r3, [pc, #484]	; (8001fb4 <LCD_IO_WriteCmd8MultipleData16+0x284>)
 8001dce:	781b      	ldrb	r3, [r3, #0]
 8001dd0:	f003 0310 	and.w	r3, r3, #16
 8001dd4:	2b00      	cmp	r3, #0
 8001dd6:	d004      	beq.n	8001de2 <LCD_IO_WriteCmd8MultipleData16+0xb2>
 8001dd8:	4b79      	ldr	r3, [pc, #484]	; (8001fc0 <LCD_IO_WriteCmd8MultipleData16+0x290>)
 8001dda:	f44f 4280 	mov.w	r2, #16384	; 0x4000
 8001dde:	619a      	str	r2, [r3, #24]
 8001de0:	e003      	b.n	8001dea <LCD_IO_WriteCmd8MultipleData16+0xba>
 8001de2:	4b77      	ldr	r3, [pc, #476]	; (8001fc0 <LCD_IO_WriteCmd8MultipleData16+0x290>)
 8001de4:	f04f 4280 	mov.w	r2, #1073741824	; 0x40000000
 8001de8:	619a      	str	r2, [r3, #24]
 8001dea:	4b72      	ldr	r3, [pc, #456]	; (8001fb4 <LCD_IO_WriteCmd8MultipleData16+0x284>)
 8001dec:	781b      	ldrb	r3, [r3, #0]
 8001dee:	f003 0320 	and.w	r3, r3, #32
 8001df2:	2b00      	cmp	r3, #0
 8001df4:	d004      	beq.n	8001e00 <LCD_IO_WriteCmd8MultipleData16+0xd0>
 8001df6:	4b72      	ldr	r3, [pc, #456]	; (8001fc0 <LCD_IO_WriteCmd8MultipleData16+0x290>)
 8001df8:	f44f 6200 	mov.w	r2, #2048	; 0x800
 8001dfc:	619a      	str	r2, [r3, #24]
 8001dfe:	e003      	b.n	8001e08 <LCD_IO_WriteCmd8MultipleData16+0xd8>
 8001e00:	4b6f      	ldr	r3, [pc, #444]	; (8001fc0 <LCD_IO_WriteCmd8MultipleData16+0x290>)
 8001e02:	f04f 6200 	mov.w	r2, #134217728	; 0x8000000
 8001e06:	619a      	str	r2, [r3, #24]
 8001e08:	4b6a      	ldr	r3, [pc, #424]	; (8001fb4 <LCD_IO_WriteCmd8MultipleData16+0x284>)
 8001e0a:	781b      	ldrb	r3, [r3, #0]
 8001e0c:	f003 0340 	and.w	r3, r3, #64	; 0x40
 8001e10:	2b00      	cmp	r3, #0
 8001e12:	d004      	beq.n	8001e1e <LCD_IO_WriteCmd8MultipleData16+0xee>
 8001e14:	4b6b      	ldr	r3, [pc, #428]	; (8001fc4 <LCD_IO_WriteCmd8MultipleData16+0x294>)
 8001e16:	f44f 7280 	mov.w	r2, #256	; 0x100
 8001e1a:	619a      	str	r2, [r3, #24]
 8001e1c:	e003      	b.n	8001e26 <LCD_IO_WriteCmd8MultipleData16+0xf6>
 8001e1e:	4b69      	ldr	r3, [pc, #420]	; (8001fc4 <LCD_IO_WriteCmd8MultipleData16+0x294>)
 8001e20:	f04f 7280 	mov.w	r2, #16777216	; 0x1000000
 8001e24:	619a      	str	r2, [r3, #24]
 8001e26:	4b63      	ldr	r3, [pc, #396]	; (8001fb4 <LCD_IO_WriteCmd8MultipleData16+0x284>)
 8001e28:	781b      	ldrb	r3, [r3, #0]
 8001e2a:	b25b      	sxtb	r3, r3
 8001e2c:	2b00      	cmp	r3, #0
 8001e2e:	da04      	bge.n	8001e3a <LCD_IO_WriteCmd8MultipleData16+0x10a>
 8001e30:	4b61      	ldr	r3, [pc, #388]	; (8001fb8 <LCD_IO_WriteCmd8MultipleData16+0x288>)
 8001e32:	f44f 5280 	mov.w	r2, #4096	; 0x1000
 8001e36:	619a      	str	r2, [r3, #24]
 8001e38:	e003      	b.n	8001e42 <LCD_IO_WriteCmd8MultipleData16+0x112>
 8001e3a:	4b5f      	ldr	r3, [pc, #380]	; (8001fb8 <LCD_IO_WriteCmd8MultipleData16+0x288>)
 8001e3c:	f04f 5280 	mov.w	r2, #268435456	; 0x10000000
 8001e40:	619a      	str	r2, [r3, #24]
 8001e42:	4b5b      	ldr	r3, [pc, #364]	; (8001fb0 <LCD_IO_WriteCmd8MultipleData16+0x280>)
 8001e44:	f44f 3280 	mov.w	r2, #65536	; 0x10000
 8001e48:	619a      	str	r2, [r3, #24]
 8001e4a:	2008      	movs	r0, #8
 8001e4c:	f7ff f8e0 	bl	8001010 <LCD_IO_Delay>
 8001e50:	4b57      	ldr	r3, [pc, #348]	; (8001fb0 <LCD_IO_WriteCmd8MultipleData16+0x280>)
 8001e52:	2201      	movs	r2, #1
 8001e54:	619a      	str	r2, [r3, #24]
 8001e56:	4b56      	ldr	r3, [pc, #344]	; (8001fb0 <LCD_IO_WriteCmd8MultipleData16+0x280>)
 8001e58:	2208      	movs	r2, #8
 8001e5a:	619a      	str	r2, [r3, #24]
  while(Size--)
 8001e5c:	e11e      	b.n	800209c <LCD_IO_WriteCmd8MultipleData16+0x36c>
  {
    LCD_DATA16_WRITE(*pData);
 8001e5e:	68bb      	ldr	r3, [r7, #8]
 8001e60:	881b      	ldrh	r3, [r3, #0]
 8001e62:	0a1b      	lsrs	r3, r3, #8
 8001e64:	b29b      	uxth	r3, r3
 8001e66:	b2da      	uxtb	r2, r3
 8001e68:	4b52      	ldr	r3, [pc, #328]	; (8001fb4 <LCD_IO_WriteCmd8MultipleData16+0x284>)
 8001e6a:	701a      	strb	r2, [r3, #0]
 8001e6c:	4b51      	ldr	r3, [pc, #324]	; (8001fb4 <LCD_IO_WriteCmd8MultipleData16+0x284>)
 8001e6e:	781b      	ldrb	r3, [r3, #0]
 8001e70:	f003 0301 	and.w	r3, r3, #1
 8001e74:	2b00      	cmp	r3, #0
 8001e76:	d004      	beq.n	8001e82 <LCD_IO_WriteCmd8MultipleData16+0x152>
 8001e78:	4b4f      	ldr	r3, [pc, #316]	; (8001fb8 <LCD_IO_WriteCmd8MultipleData16+0x288>)
 8001e7a:	f44f 7200 	mov.w	r2, #512	; 0x200
 8001e7e:	619a      	str	r2, [r3, #24]
 8001e80:	e003      	b.n	8001e8a <LCD_IO_WriteCmd8MultipleData16+0x15a>
 8001e82:	4b4d      	ldr	r3, [pc, #308]	; (8001fb8 <LCD_IO_WriteCmd8MultipleData16+0x288>)
 8001e84:	f04f 7200 	mov.w	r2, #33554432	; 0x2000000
 8001e88:	619a      	str	r2, [r3, #24]
 8001e8a:	4b4a      	ldr	r3, [pc, #296]	; (8001fb4 <LCD_IO_WriteCmd8MultipleData16+0x284>)
 8001e8c:	781b      	ldrb	r3, [r3, #0]
 8001e8e:	f003 0302 	and.w	r3, r3, #2
 8001e92:	2b00      	cmp	r3, #0
 8001e94:	d004      	beq.n	8001ea0 <LCD_IO_WriteCmd8MultipleData16+0x170>
 8001e96:	4b49      	ldr	r3, [pc, #292]	; (8001fbc <LCD_IO_WriteCmd8MultipleData16+0x28c>)
 8001e98:	f44f 4200 	mov.w	r2, #32768	; 0x8000
 8001e9c:	619a      	str	r2, [r3, #24]
 8001e9e:	e003      	b.n	8001ea8 <LCD_IO_WriteCmd8MultipleData16+0x178>
 8001ea0:	4b46      	ldr	r3, [pc, #280]	; (8001fbc <LCD_IO_WriteCmd8MultipleData16+0x28c>)
 8001ea2:	f04f 4200 	mov.w	r2, #2147483648	; 0x80000000
 8001ea6:	619a      	str	r2, [r3, #24]
 8001ea8:	4b42      	ldr	r3, [pc, #264]	; (8001fb4 <LCD_IO_WriteCmd8MultipleData16+0x284>)
 8001eaa:	781b      	ldrb	r3, [r3, #0]
 8001eac:	f003 0304 	and.w	r3, r3, #4
 8001eb0:	2b00      	cmp	r3, #0
 8001eb2:	d004      	beq.n	8001ebe <LCD_IO_WriteCmd8MultipleData16+0x18e>
 8001eb4:	4b40      	ldr	r3, [pc, #256]	; (8001fb8 <LCD_IO_WriteCmd8MultipleData16+0x288>)
 8001eb6:	f44f 4280 	mov.w	r2, #16384	; 0x4000
 8001eba:	619a      	str	r2, [r3, #24]
 8001ebc:	e003      	b.n	8001ec6 <LCD_IO_WriteCmd8MultipleData16+0x196>
 8001ebe:	4b3e      	ldr	r3, [pc, #248]	; (8001fb8 <LCD_IO_WriteCmd8MultipleData16+0x288>)
 8001ec0:	f04f 4280 	mov.w	r2, #1073741824	; 0x40000000
 8001ec4:	619a      	str	r2, [r3, #24]
 8001ec6:	4b3b      	ldr	r3, [pc, #236]	; (8001fb4 <LCD_IO_WriteCmd8MultipleData16+0x284>)
 8001ec8:	781b      	ldrb	r3, [r3, #0]
 8001eca:	f003 0308 	and.w	r3, r3, #8
 8001ece:	2b00      	cmp	r3, #0
 8001ed0:	d004      	beq.n	8001edc <LCD_IO_WriteCmd8MultipleData16+0x1ac>
 8001ed2:	4b3b      	ldr	r3, [pc, #236]	; (8001fc0 <LCD_IO_WriteCmd8MultipleData16+0x290>)
 8001ed4:	f44f 5200 	mov.w	r2, #8192	; 0x2000
 8001ed8:	619a      	str	r2, [r3, #24]
 8001eda:	e003      	b.n	8001ee4 <LCD_IO_WriteCmd8MultipleData16+0x1b4>
 8001edc:	4b38      	ldr	r3, [pc, #224]	; (8001fc0 <LCD_IO_WriteCmd8MultipleData16+0x290>)
 8001ede:	f04f 5200 	mov.w	r2, #536870912	; 0x20000000
 8001ee2:	619a      	str	r2, [r3, #24]
 8001ee4:	4b33      	ldr	r3, [pc, #204]	; (8001fb4 <LCD_IO_WriteCmd8MultipleData16+0x284>)
 8001ee6:	781b      	ldrb	r3, [r3, #0]
 8001ee8:	f003 0310 	and.w	r3, r3, #16
 8001eec:	2b00      	cmp	r3, #0
 8001eee:	d004      	beq.n	8001efa <LCD_IO_WriteCmd8MultipleData16+0x1ca>
 8001ef0:	4b33      	ldr	r3, [pc, #204]	; (8001fc0 <LCD_IO_WriteCmd8MultipleData16+0x290>)
 8001ef2:	f44f 4280 	mov.w	r2, #16384	; 0x4000
 8001ef6:	619a      	str	r2, [r3, #24]
 8001ef8:	e003      	b.n	8001f02 <LCD_IO_WriteCmd8MultipleData16+0x1d2>
 8001efa:	4b31      	ldr	r3, [pc, #196]	; (8001fc0 <LCD_IO_WriteCmd8MultipleData16+0x290>)
 8001efc:	f04f 4280 	mov.w	r2, #1073741824	; 0x40000000
 8001f00:	619a      	str	r2, [r3, #24]
 8001f02:	4b2c      	ldr	r3, [pc, #176]	; (8001fb4 <LCD_IO_WriteCmd8MultipleData16+0x284>)
 8001f04:	781b      	ldrb	r3, [r3, #0]
 8001f06:	f003 0320 	and.w	r3, r3, #32
 8001f0a:	2b00      	cmp	r3, #0
 8001f0c:	d004      	beq.n	8001f18 <LCD_IO_WriteCmd8MultipleData16+0x1e8>
 8001f0e:	4b2c      	ldr	r3, [pc, #176]	; (8001fc0 <LCD_IO_WriteCmd8MultipleData16+0x290>)
 8001f10:	f44f 6200 	mov.w	r2, #2048	; 0x800
 8001f14:	619a      	str	r2, [r3, #24]
 8001f16:	e003      	b.n	8001f20 <LCD_IO_WriteCmd8MultipleData16+0x1f0>
 8001f18:	4b29      	ldr	r3, [pc, #164]	; (8001fc0 <LCD_IO_WriteCmd8MultipleData16+0x290>)
 8001f1a:	f04f 6200 	mov.w	r2, #134217728	; 0x8000000
 8001f1e:	619a      	str	r2, [r3, #24]
 8001f20:	4b24      	ldr	r3, [pc, #144]	; (8001fb4 <LCD_IO_WriteCmd8MultipleData16+0x284>)
 8001f22:	781b      	ldrb	r3, [r3, #0]
 8001f24:	f003 0340 	and.w	r3, r3, #64	; 0x40
 8001f28:	2b00      	cmp	r3, #0
 8001f2a:	d004      	beq.n	8001f36 <LCD_IO_WriteCmd8MultipleData16+0x206>
 8001f2c:	4b25      	ldr	r3, [pc, #148]	; (8001fc4 <LCD_IO_WriteCmd8MultipleData16+0x294>)
 8001f2e:	f44f 7280 	mov.w	r2, #256	; 0x100
 8001f32:	619a      	str	r2, [r3, #24]
 8001f34:	e003      	b.n	8001f3e <LCD_IO_WriteCmd8MultipleData16+0x20e>
 8001f36:	4b23      	ldr	r3, [pc, #140]	; (8001fc4 <LCD_IO_WriteCmd8MultipleData16+0x294>)
 8001f38:	f04f 7280 	mov.w	r2, #16777216	; 0x1000000
 8001f3c:	619a      	str	r2, [r3, #24]
 8001f3e:	4b1d      	ldr	r3, [pc, #116]	; (8001fb4 <LCD_IO_WriteCmd8MultipleData16+0x284>)
 8001f40:	781b      	ldrb	r3, [r3, #0]
 8001f42:	b25b      	sxtb	r3, r3
 8001f44:	2b00      	cmp	r3, #0
 8001f46:	da04      	bge.n	8001f52 <LCD_IO_WriteCmd8MultipleData16+0x222>
 8001f48:	4b1b      	ldr	r3, [pc, #108]	; (8001fb8 <LCD_IO_WriteCmd8MultipleData16+0x288>)
 8001f4a:	f44f 5280 	mov.w	r2, #4096	; 0x1000
 8001f4e:	619a      	str	r2, [r3, #24]
 8001f50:	e003      	b.n	8001f5a <LCD_IO_WriteCmd8MultipleData16+0x22a>
 8001f52:	4b19      	ldr	r3, [pc, #100]	; (8001fb8 <LCD_IO_WriteCmd8MultipleData16+0x288>)
 8001f54:	f04f 5280 	mov.w	r2, #268435456	; 0x10000000
 8001f58:	619a      	str	r2, [r3, #24]
 8001f5a:	4b15      	ldr	r3, [pc, #84]	; (8001fb0 <LCD_IO_WriteCmd8MultipleData16+0x280>)
 8001f5c:	f44f 3280 	mov.w	r2, #65536	; 0x10000
 8001f60:	619a      	str	r2, [r3, #24]
 8001f62:	2008      	movs	r0, #8
 8001f64:	f7ff f854 	bl	8001010 <LCD_IO_Delay>
 8001f68:	4b11      	ldr	r3, [pc, #68]	; (8001fb0 <LCD_IO_WriteCmd8MultipleData16+0x280>)
 8001f6a:	2201      	movs	r2, #1
 8001f6c:	619a      	str	r2, [r3, #24]
 8001f6e:	68bb      	ldr	r3, [r7, #8]
 8001f70:	881b      	ldrh	r3, [r3, #0]
 8001f72:	b2da      	uxtb	r2, r3
 8001f74:	4b0f      	ldr	r3, [pc, #60]	; (8001fb4 <LCD_IO_WriteCmd8MultipleData16+0x284>)
 8001f76:	701a      	strb	r2, [r3, #0]
 8001f78:	4b0e      	ldr	r3, [pc, #56]	; (8001fb4 <LCD_IO_WriteCmd8MultipleData16+0x284>)
 8001f7a:	781b      	ldrb	r3, [r3, #0]
 8001f7c:	f003 0301 	and.w	r3, r3, #1
 8001f80:	2b00      	cmp	r3, #0
 8001f82:	d004      	beq.n	8001f8e <LCD_IO_WriteCmd8MultipleData16+0x25e>
 8001f84:	4b0c      	ldr	r3, [pc, #48]	; (8001fb8 <LCD_IO_WriteCmd8MultipleData16+0x288>)
 8001f86:	f44f 7200 	mov.w	r2, #512	; 0x200
 8001f8a:	619a      	str	r2, [r3, #24]
 8001f8c:	e003      	b.n	8001f96 <LCD_IO_WriteCmd8MultipleData16+0x266>
 8001f8e:	4b0a      	ldr	r3, [pc, #40]	; (8001fb8 <LCD_IO_WriteCmd8MultipleData16+0x288>)
 8001f90:	f04f 7200 	mov.w	r2, #33554432	; 0x2000000
 8001f94:	619a      	str	r2, [r3, #24]
 8001f96:	4b07      	ldr	r3, [pc, #28]	; (8001fb4 <LCD_IO_WriteCmd8MultipleData16+0x284>)
 8001f98:	781b      	ldrb	r3, [r3, #0]
 8001f9a:	f003 0302 	and.w	r3, r3, #2
 8001f9e:	2b00      	cmp	r3, #0
 8001fa0:	d012      	beq.n	8001fc8 <LCD_IO_WriteCmd8MultipleData16+0x298>
 8001fa2:	4b06      	ldr	r3, [pc, #24]	; (8001fbc <LCD_IO_WriteCmd8MultipleData16+0x28c>)
 8001fa4:	f44f 4200 	mov.w	r2, #32768	; 0x8000
 8001fa8:	619a      	str	r2, [r3, #24]
 8001faa:	e011      	b.n	8001fd0 <LCD_IO_WriteCmd8MultipleData16+0x2a0>
 8001fac:	58020400 	.word	0x58020400
 8001fb0:	58020800 	.word	0x58020800
 8001fb4:	240000ac 	.word	0x240000ac
 8001fb8:	58021800 	.word	0x58021800
 8001fbc:	58020c00 	.word	0x58020c00
 8001fc0:	58021000 	.word	0x58021000
 8001fc4:	58020000 	.word	0x58020000
 8001fc8:	4b3b      	ldr	r3, [pc, #236]	; (80020b8 <LCD_IO_WriteCmd8MultipleData16+0x388>)
 8001fca:	f04f 4200 	mov.w	r2, #2147483648	; 0x80000000
 8001fce:	619a      	str	r2, [r3, #24]
 8001fd0:	4b3a      	ldr	r3, [pc, #232]	; (80020bc <LCD_IO_WriteCmd8MultipleData16+0x38c>)
 8001fd2:	781b      	ldrb	r3, [r3, #0]
 8001fd4:	f003 0304 	and.w	r3, r3, #4
 8001fd8:	2b00      	cmp	r3, #0
 8001fda:	d004      	beq.n	8001fe6 <LCD_IO_WriteCmd8MultipleData16+0x2b6>
 8001fdc:	4b38      	ldr	r3, [pc, #224]	; (80020c0 <LCD_IO_WriteCmd8MultipleData16+0x390>)
 8001fde:	f44f 4280 	mov.w	r2, #16384	; 0x4000
 8001fe2:	619a      	str	r2, [r3, #24]
 8001fe4:	e003      	b.n	8001fee <LCD_IO_WriteCmd8MultipleData16+0x2be>
 8001fe6:	4b36      	ldr	r3, [pc, #216]	; (80020c0 <LCD_IO_WriteCmd8MultipleData16+0x390>)
 8001fe8:	f04f 4280 	mov.w	r2, #1073741824	; 0x40000000
 8001fec:	619a      	str	r2, [r3, #24]
 8001fee:	4b33      	ldr	r3, [pc, #204]	; (80020bc <LCD_IO_WriteCmd8MultipleData16+0x38c>)
 8001ff0:	781b      	ldrb	r3, [r3, #0]
 8001ff2:	f003 0308 	and.w	r3, r3, #8
 8001ff6:	2b00      	cmp	r3, #0
 8001ff8:	d004      	beq.n	8002004 <LCD_IO_WriteCmd8MultipleData16+0x2d4>
 8001ffa:	4b32      	ldr	r3, [pc, #200]	; (80020c4 <LCD_IO_WriteCmd8MultipleData16+0x394>)
 8001ffc:	f44f 5200 	mov.w	r2, #8192	; 0x2000
 8002000:	619a      	str	r2, [r3, #24]
 8002002:	e003      	b.n	800200c <LCD_IO_WriteCmd8MultipleData16+0x2dc>
 8002004:	4b2f      	ldr	r3, [pc, #188]	; (80020c4 <LCD_IO_WriteCmd8MultipleData16+0x394>)
 8002006:	f04f 5200 	mov.w	r2, #536870912	; 0x20000000
 800200a:	619a      	str	r2, [r3, #24]
 800200c:	4b2b      	ldr	r3, [pc, #172]	; (80020bc <LCD_IO_WriteCmd8MultipleData16+0x38c>)
 800200e:	781b      	ldrb	r3, [r3, #0]
 8002010:	f003 0310 	and.w	r3, r3, #16
 8002014:	2b00      	cmp	r3, #0
 8002016:	d004      	beq.n	8002022 <LCD_IO_WriteCmd8MultipleData16+0x2f2>
 8002018:	4b2a      	ldr	r3, [pc, #168]	; (80020c4 <LCD_IO_WriteCmd8MultipleData16+0x394>)
 800201a:	f44f 4280 	mov.w	r2, #16384	; 0x4000
 800201e:	619a      	str	r2, [r3, #24]
 8002020:	e003      	b.n	800202a <LCD_IO_WriteCmd8MultipleData16+0x2fa>
 8002022:	4b28      	ldr	r3, [pc, #160]	; (80020c4 <LCD_IO_WriteCmd8MultipleData16+0x394>)
 8002024:	f04f 4280 	mov.w	r2, #1073741824	; 0x40000000
 8002028:	619a      	str	r2, [r3, #24]
 800202a:	4b24      	ldr	r3, [pc, #144]	; (80020bc <LCD_IO_WriteCmd8MultipleData16+0x38c>)
 800202c:	781b      	ldrb	r3, [r3, #0]
 800202e:	f003 0320 	and.w	r3, r3, #32
 8002032:	2b00      	cmp	r3, #0
 8002034:	d004      	beq.n	8002040 <LCD_IO_WriteCmd8MultipleData16+0x310>
 8002036:	4b23      	ldr	r3, [pc, #140]	; (80020c4 <LCD_IO_WriteCmd8MultipleData16+0x394>)
 8002038:	f44f 6200 	mov.w	r2, #2048	; 0x800
 800203c:	619a      	str	r2, [r3, #24]
 800203e:	e003      	b.n	8002048 <LCD_IO_WriteCmd8MultipleData16+0x318>
 8002040:	4b20      	ldr	r3, [pc, #128]	; (80020c4 <LCD_IO_WriteCmd8MultipleData16+0x394>)
 8002042:	f04f 6200 	mov.w	r2, #134217728	; 0x8000000
 8002046:	619a      	str	r2, [r3, #24]
 8002048:	4b1c      	ldr	r3, [pc, #112]	; (80020bc <LCD_IO_WriteCmd8MultipleData16+0x38c>)
 800204a:	781b      	ldrb	r3, [r3, #0]
 800204c:	f003 0340 	and.w	r3, r3, #64	; 0x40
 8002050:	2b00      	cmp	r3, #0
 8002052:	d004      	beq.n	800205e <LCD_IO_WriteCmd8MultipleData16+0x32e>
 8002054:	4b1c      	ldr	r3, [pc, #112]	; (80020c8 <LCD_IO_WriteCmd8MultipleData16+0x398>)
 8002056:	f44f 7280 	mov.w	r2, #256	; 0x100
 800205a:	619a      	str	r2, [r3, #24]
 800205c:	e003      	b.n	8002066 <LCD_IO_WriteCmd8MultipleData16+0x336>
 800205e:	4b1a      	ldr	r3, [pc, #104]	; (80020c8 <LCD_IO_WriteCmd8MultipleData16+0x398>)
 8002060:	f04f 7280 	mov.w	r2, #16777216	; 0x1000000
 8002064:	619a      	str	r2, [r3, #24]
 8002066:	4b15      	ldr	r3, [pc, #84]	; (80020bc <LCD_IO_WriteCmd8MultipleData16+0x38c>)
 8002068:	781b      	ldrb	r3, [r3, #0]
 800206a:	b25b      	sxtb	r3, r3
 800206c:	2b00      	cmp	r3, #0
 800206e:	da04      	bge.n	800207a <LCD_IO_WriteCmd8MultipleData16+0x34a>
 8002070:	4b13      	ldr	r3, [pc, #76]	; (80020c0 <LCD_IO_WriteCmd8MultipleData16+0x390>)
 8002072:	f44f 5280 	mov.w	r2, #4096	; 0x1000
 8002076:	619a      	str	r2, [r3, #24]
 8002078:	e003      	b.n	8002082 <LCD_IO_WriteCmd8MultipleData16+0x352>
 800207a:	4b11      	ldr	r3, [pc, #68]	; (80020c0 <LCD_IO_WriteCmd8MultipleData16+0x390>)
 800207c:	f04f 5280 	mov.w	r2, #268435456	; 0x10000000
 8002080:	619a      	str	r2, [r3, #24]
 8002082:	4b12      	ldr	r3, [pc, #72]	; (80020cc <LCD_IO_WriteCmd8MultipleData16+0x39c>)
 8002084:	f44f 3280 	mov.w	r2, #65536	; 0x10000
 8002088:	619a      	str	r2, [r3, #24]
 800208a:	2008      	movs	r0, #8
 800208c:	f7fe ffc0 	bl	8001010 <LCD_IO_Delay>
 8002090:	4b0e      	ldr	r3, [pc, #56]	; (80020cc <LCD_IO_WriteCmd8MultipleData16+0x39c>)
 8002092:	2201      	movs	r2, #1
 8002094:	619a      	str	r2, [r3, #24]
    pData ++;
 8002096:	68bb      	ldr	r3, [r7, #8]
 8002098:	3302      	adds	r3, #2
 800209a:	60bb      	str	r3, [r7, #8]
  while(Size--)
 800209c:	687b      	ldr	r3, [r7, #4]
 800209e:	1e5a      	subs	r2, r3, #1
 80020a0:	607a      	str	r2, [r7, #4]
 80020a2:	2b00      	cmp	r3, #0
 80020a4:	f47f aedb 	bne.w	8001e5e <LCD_IO_WriteCmd8MultipleData16+0x12e>
  }
  LCD_CS_OFF;
 80020a8:	4b09      	ldr	r3, [pc, #36]	; (80020d0 <LCD_IO_WriteCmd8MultipleData16+0x3a0>)
 80020aa:	2202      	movs	r2, #2
 80020ac:	619a      	str	r2, [r3, #24]
}
 80020ae:	bf00      	nop
 80020b0:	3710      	adds	r7, #16
 80020b2:	46bd      	mov	sp, r7
 80020b4:	bd80      	pop	{r7, pc}
 80020b6:	bf00      	nop
 80020b8:	58020c00 	.word	0x58020c00
 80020bc:	240000ac 	.word	0x240000ac
 80020c0:	58021800 	.word	0x58021800
 80020c4:	58021000 	.word	0x58021000
 80020c8:	58020000 	.word	0x58020000
 80020cc:	58020800 	.word	0x58020800
 80020d0:	58020400 	.word	0x58020400

080020d4 <LCD_IO_ReadCmd8MultipleData8>:
}

//-----------------------------------------------------------------------------
#if GPIOX_PORTNUM(LCD_RD) >=  GPIOX_PORTNUM_A
void LCD_IO_ReadCmd8MultipleData8(uint8_t Cmd, uint8_t *pData, uint32_t Size, uint32_t DummySize)
{
 80020d4:	b580      	push	{r7, lr}
 80020d6:	b086      	sub	sp, #24
 80020d8:	af00      	add	r7, sp, #0
 80020da:	60b9      	str	r1, [r7, #8]
 80020dc:	607a      	str	r2, [r7, #4]
 80020de:	603b      	str	r3, [r7, #0]
 80020e0:	4603      	mov	r3, r0
 80020e2:	73fb      	strb	r3, [r7, #15]
  uint8_t  d;
  LCD_CS_ON;
 80020e4:	4b6f      	ldr	r3, [pc, #444]	; (80022a4 <LCD_IO_ReadCmd8MultipleData8+0x1d0>)
 80020e6:	f44f 3200 	mov.w	r2, #131072	; 0x20000
 80020ea:	619a      	str	r2, [r3, #24]
  LCD_CMD8_WRITE(Cmd);
 80020ec:	4b6e      	ldr	r3, [pc, #440]	; (80022a8 <LCD_IO_ReadCmd8MultipleData8+0x1d4>)
 80020ee:	f44f 2200 	mov.w	r2, #524288	; 0x80000
 80020f2:	619a      	str	r2, [r3, #24]
 80020f4:	4a6d      	ldr	r2, [pc, #436]	; (80022ac <LCD_IO_ReadCmd8MultipleData8+0x1d8>)
 80020f6:	7bfb      	ldrb	r3, [r7, #15]
 80020f8:	7013      	strb	r3, [r2, #0]
 80020fa:	4b6c      	ldr	r3, [pc, #432]	; (80022ac <LCD_IO_ReadCmd8MultipleData8+0x1d8>)
 80020fc:	781b      	ldrb	r3, [r3, #0]
 80020fe:	f003 0301 	and.w	r3, r3, #1
 8002102:	2b00      	cmp	r3, #0
 8002104:	d004      	beq.n	8002110 <LCD_IO_ReadCmd8MultipleData8+0x3c>
 8002106:	4b6a      	ldr	r3, [pc, #424]	; (80022b0 <LCD_IO_ReadCmd8MultipleData8+0x1dc>)
 8002108:	f44f 7200 	mov.w	r2, #512	; 0x200
 800210c:	619a      	str	r2, [r3, #24]
 800210e:	e003      	b.n	8002118 <LCD_IO_ReadCmd8MultipleData8+0x44>
 8002110:	4b67      	ldr	r3, [pc, #412]	; (80022b0 <LCD_IO_ReadCmd8MultipleData8+0x1dc>)
 8002112:	f04f 7200 	mov.w	r2, #33554432	; 0x2000000
 8002116:	619a      	str	r2, [r3, #24]
 8002118:	4b64      	ldr	r3, [pc, #400]	; (80022ac <LCD_IO_ReadCmd8MultipleData8+0x1d8>)
 800211a:	781b      	ldrb	r3, [r3, #0]
 800211c:	f003 0302 	and.w	r3, r3, #2
 8002120:	2b00      	cmp	r3, #0
 8002122:	d004      	beq.n	800212e <LCD_IO_ReadCmd8MultipleData8+0x5a>
 8002124:	4b63      	ldr	r3, [pc, #396]	; (80022b4 <LCD_IO_ReadCmd8MultipleData8+0x1e0>)
 8002126:	f44f 4200 	mov.w	r2, #32768	; 0x8000
 800212a:	619a      	str	r2, [r3, #24]
 800212c:	e003      	b.n	8002136 <LCD_IO_ReadCmd8MultipleData8+0x62>
 800212e:	4b61      	ldr	r3, [pc, #388]	; (80022b4 <LCD_IO_ReadCmd8MultipleData8+0x1e0>)
 8002130:	f04f 4200 	mov.w	r2, #2147483648	; 0x80000000
 8002134:	619a      	str	r2, [r3, #24]
 8002136:	4b5d      	ldr	r3, [pc, #372]	; (80022ac <LCD_IO_ReadCmd8MultipleData8+0x1d8>)
 8002138:	781b      	ldrb	r3, [r3, #0]
 800213a:	f003 0304 	and.w	r3, r3, #4
 800213e:	2b00      	cmp	r3, #0
 8002140:	d004      	beq.n	800214c <LCD_IO_ReadCmd8MultipleData8+0x78>
 8002142:	4b5b      	ldr	r3, [pc, #364]	; (80022b0 <LCD_IO_ReadCmd8MultipleData8+0x1dc>)
 8002144:	f44f 4280 	mov.w	r2, #16384	; 0x4000
 8002148:	619a      	str	r2, [r3, #24]
 800214a:	e003      	b.n	8002154 <LCD_IO_ReadCmd8MultipleData8+0x80>
 800214c:	4b58      	ldr	r3, [pc, #352]	; (80022b0 <LCD_IO_ReadCmd8MultipleData8+0x1dc>)
 800214e:	f04f 4280 	mov.w	r2, #1073741824	; 0x40000000
 8002152:	619a      	str	r2, [r3, #24]
 8002154:	4b55      	ldr	r3, [pc, #340]	; (80022ac <LCD_IO_ReadCmd8MultipleData8+0x1d8>)
 8002156:	781b      	ldrb	r3, [r3, #0]
 8002158:	f003 0308 	and.w	r3, r3, #8
 800215c:	2b00      	cmp	r3, #0
 800215e:	d004      	beq.n	800216a <LCD_IO_ReadCmd8MultipleData8+0x96>
 8002160:	4b55      	ldr	r3, [pc, #340]	; (80022b8 <LCD_IO_ReadCmd8MultipleData8+0x1e4>)
 8002162:	f44f 5200 	mov.w	r2, #8192	; 0x2000
 8002166:	619a      	str	r2, [r3, #24]
 8002168:	e003      	b.n	8002172 <LCD_IO_ReadCmd8MultipleData8+0x9e>
 800216a:	4b53      	ldr	r3, [pc, #332]	; (80022b8 <LCD_IO_ReadCmd8MultipleData8+0x1e4>)
 800216c:	f04f 5200 	mov.w	r2, #536870912	; 0x20000000
 8002170:	619a      	str	r2, [r3, #24]
 8002172:	4b4e      	ldr	r3, [pc, #312]	; (80022ac <LCD_IO_ReadCmd8MultipleData8+0x1d8>)
 8002174:	781b      	ldrb	r3, [r3, #0]
 8002176:	f003 0310 	and.w	r3, r3, #16
 800217a:	2b00      	cmp	r3, #0
 800217c:	d004      	beq.n	8002188 <LCD_IO_ReadCmd8MultipleData8+0xb4>
 800217e:	4b4e      	ldr	r3, [pc, #312]	; (80022b8 <LCD_IO_ReadCmd8MultipleData8+0x1e4>)
 8002180:	f44f 4280 	mov.w	r2, #16384	; 0x4000
 8002184:	619a      	str	r2, [r3, #24]
 8002186:	e003      	b.n	8002190 <LCD_IO_ReadCmd8MultipleData8+0xbc>
 8002188:	4b4b      	ldr	r3, [pc, #300]	; (80022b8 <LCD_IO_ReadCmd8MultipleData8+0x1e4>)
 800218a:	f04f 4280 	mov.w	r2, #1073741824	; 0x40000000
 800218e:	619a      	str	r2, [r3, #24]
 8002190:	4b46      	ldr	r3, [pc, #280]	; (80022ac <LCD_IO_ReadCmd8MultipleData8+0x1d8>)
 8002192:	781b      	ldrb	r3, [r3, #0]
 8002194:	f003 0320 	and.w	r3, r3, #32
 8002198:	2b00      	cmp	r3, #0
 800219a:	d004      	beq.n	80021a6 <LCD_IO_ReadCmd8MultipleData8+0xd2>
 800219c:	4b46      	ldr	r3, [pc, #280]	; (80022b8 <LCD_IO_ReadCmd8MultipleData8+0x1e4>)
 800219e:	f44f 6200 	mov.w	r2, #2048	; 0x800
 80021a2:	619a      	str	r2, [r3, #24]
 80021a4:	e003      	b.n	80021ae <LCD_IO_ReadCmd8MultipleData8+0xda>
 80021a6:	4b44      	ldr	r3, [pc, #272]	; (80022b8 <LCD_IO_ReadCmd8MultipleData8+0x1e4>)
 80021a8:	f04f 6200 	mov.w	r2, #134217728	; 0x8000000
 80021ac:	619a      	str	r2, [r3, #24]
 80021ae:	4b3f      	ldr	r3, [pc, #252]	; (80022ac <LCD_IO_ReadCmd8MultipleData8+0x1d8>)
 80021b0:	781b      	ldrb	r3, [r3, #0]
 80021b2:	f003 0340 	and.w	r3, r3, #64	; 0x40
 80021b6:	2b00      	cmp	r3, #0
 80021b8:	d004      	beq.n	80021c4 <LCD_IO_ReadCmd8MultipleData8+0xf0>
 80021ba:	4b40      	ldr	r3, [pc, #256]	; (80022bc <LCD_IO_ReadCmd8MultipleData8+0x1e8>)
 80021bc:	f44f 7280 	mov.w	r2, #256	; 0x100
 80021c0:	619a      	str	r2, [r3, #24]
 80021c2:	e003      	b.n	80021cc <LCD_IO_ReadCmd8MultipleData8+0xf8>
 80021c4:	4b3d      	ldr	r3, [pc, #244]	; (80022bc <LCD_IO_ReadCmd8MultipleData8+0x1e8>)
 80021c6:	f04f 7280 	mov.w	r2, #16777216	; 0x1000000
 80021ca:	619a      	str	r2, [r3, #24]
 80021cc:	4b37      	ldr	r3, [pc, #220]	; (80022ac <LCD_IO_ReadCmd8MultipleData8+0x1d8>)
 80021ce:	781b      	ldrb	r3, [r3, #0]
 80021d0:	b25b      	sxtb	r3, r3
 80021d2:	2b00      	cmp	r3, #0
 80021d4:	da04      	bge.n	80021e0 <LCD_IO_ReadCmd8MultipleData8+0x10c>
 80021d6:	4b36      	ldr	r3, [pc, #216]	; (80022b0 <LCD_IO_ReadCmd8MultipleData8+0x1dc>)
 80021d8:	f44f 5280 	mov.w	r2, #4096	; 0x1000
 80021dc:	619a      	str	r2, [r3, #24]
 80021de:	e003      	b.n	80021e8 <LCD_IO_ReadCmd8MultipleData8+0x114>
 80021e0:	4b33      	ldr	r3, [pc, #204]	; (80022b0 <LCD_IO_ReadCmd8MultipleData8+0x1dc>)
 80021e2:	f04f 5280 	mov.w	r2, #268435456	; 0x10000000
 80021e6:	619a      	str	r2, [r3, #24]
 80021e8:	4b2f      	ldr	r3, [pc, #188]	; (80022a8 <LCD_IO_ReadCmd8MultipleData8+0x1d4>)
 80021ea:	f44f 3280 	mov.w	r2, #65536	; 0x10000
 80021ee:	619a      	str	r2, [r3, #24]
 80021f0:	2008      	movs	r0, #8
 80021f2:	f7fe ff0d 	bl	8001010 <LCD_IO_Delay>
 80021f6:	4b2c      	ldr	r3, [pc, #176]	; (80022a8 <LCD_IO_ReadCmd8MultipleData8+0x1d4>)
 80021f8:	2201      	movs	r2, #1
 80021fa:	619a      	str	r2, [r3, #24]
 80021fc:	4b2a      	ldr	r3, [pc, #168]	; (80022a8 <LCD_IO_ReadCmd8MultipleData8+0x1d4>)
 80021fe:	2208      	movs	r2, #8
 8002200:	619a      	str	r2, [r3, #24]
  LCD_DIRREAD;
 8002202:	4b2b      	ldr	r3, [pc, #172]	; (80022b0 <LCD_IO_ReadCmd8MultipleData8+0x1dc>)
 8002204:	681b      	ldr	r3, [r3, #0]
 8002206:	4a2a      	ldr	r2, [pc, #168]	; (80022b0 <LCD_IO_ReadCmd8MultipleData8+0x1dc>)
 8002208:	f423 2340 	bic.w	r3, r3, #786432	; 0xc0000
 800220c:	6013      	str	r3, [r2, #0]
 800220e:	4b29      	ldr	r3, [pc, #164]	; (80022b4 <LCD_IO_ReadCmd8MultipleData8+0x1e0>)
 8002210:	681b      	ldr	r3, [r3, #0]
 8002212:	4a28      	ldr	r2, [pc, #160]	; (80022b4 <LCD_IO_ReadCmd8MultipleData8+0x1e0>)
 8002214:	f023 4340 	bic.w	r3, r3, #3221225472	; 0xc0000000
 8002218:	6013      	str	r3, [r2, #0]
 800221a:	4b25      	ldr	r3, [pc, #148]	; (80022b0 <LCD_IO_ReadCmd8MultipleData8+0x1dc>)
 800221c:	681b      	ldr	r3, [r3, #0]
 800221e:	4a24      	ldr	r2, [pc, #144]	; (80022b0 <LCD_IO_ReadCmd8MultipleData8+0x1dc>)
 8002220:	f023 5340 	bic.w	r3, r3, #805306368	; 0x30000000
 8002224:	6013      	str	r3, [r2, #0]
 8002226:	4b24      	ldr	r3, [pc, #144]	; (80022b8 <LCD_IO_ReadCmd8MultipleData8+0x1e4>)
 8002228:	681b      	ldr	r3, [r3, #0]
 800222a:	4a23      	ldr	r2, [pc, #140]	; (80022b8 <LCD_IO_ReadCmd8MultipleData8+0x1e4>)
 800222c:	f023 6340 	bic.w	r3, r3, #201326592	; 0xc000000
 8002230:	6013      	str	r3, [r2, #0]
 8002232:	4b21      	ldr	r3, [pc, #132]	; (80022b8 <LCD_IO_ReadCmd8MultipleData8+0x1e4>)
 8002234:	681b      	ldr	r3, [r3, #0]
 8002236:	4a20      	ldr	r2, [pc, #128]	; (80022b8 <LCD_IO_ReadCmd8MultipleData8+0x1e4>)
 8002238:	f023 5340 	bic.w	r3, r3, #805306368	; 0x30000000
 800223c:	6013      	str	r3, [r2, #0]
 800223e:	4b1e      	ldr	r3, [pc, #120]	; (80022b8 <LCD_IO_ReadCmd8MultipleData8+0x1e4>)
 8002240:	681b      	ldr	r3, [r3, #0]
 8002242:	4a1d      	ldr	r2, [pc, #116]	; (80022b8 <LCD_IO_ReadCmd8MultipleData8+0x1e4>)
 8002244:	f423 0340 	bic.w	r3, r3, #12582912	; 0xc00000
 8002248:	6013      	str	r3, [r2, #0]
 800224a:	4b1c      	ldr	r3, [pc, #112]	; (80022bc <LCD_IO_ReadCmd8MultipleData8+0x1e8>)
 800224c:	681b      	ldr	r3, [r3, #0]
 800224e:	4a1b      	ldr	r2, [pc, #108]	; (80022bc <LCD_IO_ReadCmd8MultipleData8+0x1e8>)
 8002250:	f423 3340 	bic.w	r3, r3, #196608	; 0x30000
 8002254:	6013      	str	r3, [r2, #0]
 8002256:	4b16      	ldr	r3, [pc, #88]	; (80022b0 <LCD_IO_ReadCmd8MultipleData8+0x1dc>)
 8002258:	681b      	ldr	r3, [r3, #0]
 800225a:	4a15      	ldr	r2, [pc, #84]	; (80022b0 <LCD_IO_ReadCmd8MultipleData8+0x1dc>)
 800225c:	f023 7340 	bic.w	r3, r3, #50331648	; 0x3000000
 8002260:	6013      	str	r3, [r2, #0]
  while(DummySize--)
 8002262:	e009      	b.n	8002278 <LCD_IO_ReadCmd8MultipleData8+0x1a4>
    LCD_DUMMY_READ;
 8002264:	4b15      	ldr	r3, [pc, #84]	; (80022bc <LCD_IO_ReadCmd8MultipleData8+0x1e8>)
 8002266:	f44f 2200 	mov.w	r2, #524288	; 0x80000
 800226a:	619a      	str	r2, [r3, #24]
 800226c:	2012      	movs	r0, #18
 800226e:	f7fe fecf 	bl	8001010 <LCD_IO_Delay>
 8002272:	4b12      	ldr	r3, [pc, #72]	; (80022bc <LCD_IO_ReadCmd8MultipleData8+0x1e8>)
 8002274:	2208      	movs	r2, #8
 8002276:	619a      	str	r2, [r3, #24]
  while(DummySize--)
 8002278:	683b      	ldr	r3, [r7, #0]
 800227a:	1e5a      	subs	r2, r3, #1
 800227c:	603a      	str	r2, [r7, #0]
 800227e:	2b00      	cmp	r3, #0
 8002280:	d1f0      	bne.n	8002264 <LCD_IO_ReadCmd8MultipleData8+0x190>
  while(Size--)
 8002282:	e06e      	b.n	8002362 <LCD_IO_ReadCmd8MultipleData8+0x28e>
  {
    LCD_DATA8_READ(d);
 8002284:	4b0d      	ldr	r3, [pc, #52]	; (80022bc <LCD_IO_ReadCmd8MultipleData8+0x1e8>)
 8002286:	f44f 2200 	mov.w	r2, #524288	; 0x80000
 800228a:	619a      	str	r2, [r3, #24]
 800228c:	2012      	movs	r0, #18
 800228e:	f7fe febf 	bl	8001010 <LCD_IO_Delay>
 8002292:	4b07      	ldr	r3, [pc, #28]	; (80022b0 <LCD_IO_ReadCmd8MultipleData8+0x1dc>)
 8002294:	691b      	ldr	r3, [r3, #16]
 8002296:	f403 7300 	and.w	r3, r3, #512	; 0x200
 800229a:	2b00      	cmp	r3, #0
 800229c:	d010      	beq.n	80022c0 <LCD_IO_ReadCmd8MultipleData8+0x1ec>
 800229e:	2301      	movs	r3, #1
 80022a0:	75fb      	strb	r3, [r7, #23]
 80022a2:	e00f      	b.n	80022c4 <LCD_IO_ReadCmd8MultipleData8+0x1f0>
 80022a4:	58020400 	.word	0x58020400
 80022a8:	58020800 	.word	0x58020800
 80022ac:	240000ac 	.word	0x240000ac
 80022b0:	58021800 	.word	0x58021800
 80022b4:	58020c00 	.word	0x58020c00
 80022b8:	58021000 	.word	0x58021000
 80022bc:	58020000 	.word	0x58020000
 80022c0:	2300      	movs	r3, #0
 80022c2:	75fb      	strb	r3, [r7, #23]
 80022c4:	4b4d      	ldr	r3, [pc, #308]	; (80023fc <LCD_IO_ReadCmd8MultipleData8+0x328>)
 80022c6:	691b      	ldr	r3, [r3, #16]
 80022c8:	f403 4300 	and.w	r3, r3, #32768	; 0x8000
 80022cc:	2b00      	cmp	r3, #0
 80022ce:	d003      	beq.n	80022d8 <LCD_IO_ReadCmd8MultipleData8+0x204>
 80022d0:	7dfb      	ldrb	r3, [r7, #23]
 80022d2:	f043 0302 	orr.w	r3, r3, #2
 80022d6:	75fb      	strb	r3, [r7, #23]
 80022d8:	4b49      	ldr	r3, [pc, #292]	; (8002400 <LCD_IO_ReadCmd8MultipleData8+0x32c>)
 80022da:	691b      	ldr	r3, [r3, #16]
 80022dc:	f403 4380 	and.w	r3, r3, #16384	; 0x4000
 80022e0:	2b00      	cmp	r3, #0
 80022e2:	d003      	beq.n	80022ec <LCD_IO_ReadCmd8MultipleData8+0x218>
 80022e4:	7dfb      	ldrb	r3, [r7, #23]
 80022e6:	f043 0304 	orr.w	r3, r3, #4
 80022ea:	75fb      	strb	r3, [r7, #23]
 80022ec:	4b45      	ldr	r3, [pc, #276]	; (8002404 <LCD_IO_ReadCmd8MultipleData8+0x330>)
 80022ee:	691b      	ldr	r3, [r3, #16]
 80022f0:	f403 5300 	and.w	r3, r3, #8192	; 0x2000
 80022f4:	2b00      	cmp	r3, #0
 80022f6:	d003      	beq.n	8002300 <LCD_IO_ReadCmd8MultipleData8+0x22c>
 80022f8:	7dfb      	ldrb	r3, [r7, #23]
 80022fa:	f043 0308 	orr.w	r3, r3, #8
 80022fe:	75fb      	strb	r3, [r7, #23]
 8002300:	4b40      	ldr	r3, [pc, #256]	; (8002404 <LCD_IO_ReadCmd8MultipleData8+0x330>)
 8002302:	691b      	ldr	r3, [r3, #16]
 8002304:	f403 4380 	and.w	r3, r3, #16384	; 0x4000
 8002308:	2b00      	cmp	r3, #0
 800230a:	d003      	beq.n	8002314 <LCD_IO_ReadCmd8MultipleData8+0x240>
 800230c:	7dfb      	ldrb	r3, [r7, #23]
 800230e:	f043 0310 	orr.w	r3, r3, #16
 8002312:	75fb      	strb	r3, [r7, #23]
 8002314:	4b3b      	ldr	r3, [pc, #236]	; (8002404 <LCD_IO_ReadCmd8MultipleData8+0x330>)
 8002316:	691b      	ldr	r3, [r3, #16]
 8002318:	f403 6300 	and.w	r3, r3, #2048	; 0x800
 800231c:	2b00      	cmp	r3, #0
 800231e:	d003      	beq.n	8002328 <LCD_IO_ReadCmd8MultipleData8+0x254>
 8002320:	7dfb      	ldrb	r3, [r7, #23]
 8002322:	f043 0320 	orr.w	r3, r3, #32
 8002326:	75fb      	strb	r3, [r7, #23]
 8002328:	4b37      	ldr	r3, [pc, #220]	; (8002408 <LCD_IO_ReadCmd8MultipleData8+0x334>)
 800232a:	691b      	ldr	r3, [r3, #16]
 800232c:	f403 7380 	and.w	r3, r3, #256	; 0x100
 8002330:	2b00      	cmp	r3, #0
 8002332:	d003      	beq.n	800233c <LCD_IO_ReadCmd8MultipleData8+0x268>
 8002334:	7dfb      	ldrb	r3, [r7, #23]
 8002336:	f043 0340 	orr.w	r3, r3, #64	; 0x40
 800233a:	75fb      	strb	r3, [r7, #23]
 800233c:	4b30      	ldr	r3, [pc, #192]	; (8002400 <LCD_IO_ReadCmd8MultipleData8+0x32c>)
 800233e:	691b      	ldr	r3, [r3, #16]
 8002340:	f403 5380 	and.w	r3, r3, #4096	; 0x1000
 8002344:	2b00      	cmp	r3, #0
 8002346:	d003      	beq.n	8002350 <LCD_IO_ReadCmd8MultipleData8+0x27c>
 8002348:	7dfb      	ldrb	r3, [r7, #23]
 800234a:	f063 037f 	orn	r3, r3, #127	; 0x7f
 800234e:	75fb      	strb	r3, [r7, #23]
 8002350:	4b2d      	ldr	r3, [pc, #180]	; (8002408 <LCD_IO_ReadCmd8MultipleData8+0x334>)
 8002352:	2208      	movs	r2, #8
 8002354:	619a      	str	r2, [r3, #24]
    *pData = d;
 8002356:	68bb      	ldr	r3, [r7, #8]
 8002358:	7dfa      	ldrb	r2, [r7, #23]
 800235a:	701a      	strb	r2, [r3, #0]
    pData++;
 800235c:	68bb      	ldr	r3, [r7, #8]
 800235e:	3301      	adds	r3, #1
 8002360:	60bb      	str	r3, [r7, #8]
  while(Size--)
 8002362:	687b      	ldr	r3, [r7, #4]
 8002364:	1e5a      	subs	r2, r3, #1
 8002366:	607a      	str	r2, [r7, #4]
 8002368:	2b00      	cmp	r3, #0
 800236a:	d18b      	bne.n	8002284 <LCD_IO_ReadCmd8MultipleData8+0x1b0>
  }
  LCD_CS_OFF;
 800236c:	4b27      	ldr	r3, [pc, #156]	; (800240c <LCD_IO_ReadCmd8MultipleData8+0x338>)
 800236e:	2202      	movs	r2, #2
 8002370:	619a      	str	r2, [r3, #24]
  LCD_DIRWRITE;
 8002372:	4b23      	ldr	r3, [pc, #140]	; (8002400 <LCD_IO_ReadCmd8MultipleData8+0x32c>)
 8002374:	681b      	ldr	r3, [r3, #0]
 8002376:	f423 2340 	bic.w	r3, r3, #786432	; 0xc0000
 800237a:	4a21      	ldr	r2, [pc, #132]	; (8002400 <LCD_IO_ReadCmd8MultipleData8+0x32c>)
 800237c:	f443 2380 	orr.w	r3, r3, #262144	; 0x40000
 8002380:	6013      	str	r3, [r2, #0]
 8002382:	4b1e      	ldr	r3, [pc, #120]	; (80023fc <LCD_IO_ReadCmd8MultipleData8+0x328>)
 8002384:	681b      	ldr	r3, [r3, #0]
 8002386:	f023 4340 	bic.w	r3, r3, #3221225472	; 0xc0000000
 800238a:	4a1c      	ldr	r2, [pc, #112]	; (80023fc <LCD_IO_ReadCmd8MultipleData8+0x328>)
 800238c:	f043 4380 	orr.w	r3, r3, #1073741824	; 0x40000000
 8002390:	6013      	str	r3, [r2, #0]
 8002392:	4b1b      	ldr	r3, [pc, #108]	; (8002400 <LCD_IO_ReadCmd8MultipleData8+0x32c>)
 8002394:	681b      	ldr	r3, [r3, #0]
 8002396:	f023 5340 	bic.w	r3, r3, #805306368	; 0x30000000
 800239a:	4a19      	ldr	r2, [pc, #100]	; (8002400 <LCD_IO_ReadCmd8MultipleData8+0x32c>)
 800239c:	f043 5380 	orr.w	r3, r3, #268435456	; 0x10000000
 80023a0:	6013      	str	r3, [r2, #0]
 80023a2:	4b18      	ldr	r3, [pc, #96]	; (8002404 <LCD_IO_ReadCmd8MultipleData8+0x330>)
 80023a4:	681b      	ldr	r3, [r3, #0]
 80023a6:	f023 6340 	bic.w	r3, r3, #201326592	; 0xc000000
 80023aa:	4a16      	ldr	r2, [pc, #88]	; (8002404 <LCD_IO_ReadCmd8MultipleData8+0x330>)
 80023ac:	f043 6380 	orr.w	r3, r3, #67108864	; 0x4000000
 80023b0:	6013      	str	r3, [r2, #0]
 80023b2:	4b14      	ldr	r3, [pc, #80]	; (8002404 <LCD_IO_ReadCmd8MultipleData8+0x330>)
 80023b4:	681b      	ldr	r3, [r3, #0]
 80023b6:	f023 5340 	bic.w	r3, r3, #805306368	; 0x30000000
 80023ba:	4a12      	ldr	r2, [pc, #72]	; (8002404 <LCD_IO_ReadCmd8MultipleData8+0x330>)
 80023bc:	f043 5380 	orr.w	r3, r3, #268435456	; 0x10000000
 80023c0:	6013      	str	r3, [r2, #0]
 80023c2:	4b10      	ldr	r3, [pc, #64]	; (8002404 <LCD_IO_ReadCmd8MultipleData8+0x330>)
 80023c4:	681b      	ldr	r3, [r3, #0]
 80023c6:	f423 0340 	bic.w	r3, r3, #12582912	; 0xc00000
 80023ca:	4a0e      	ldr	r2, [pc, #56]	; (8002404 <LCD_IO_ReadCmd8MultipleData8+0x330>)
 80023cc:	f443 0380 	orr.w	r3, r3, #4194304	; 0x400000
 80023d0:	6013      	str	r3, [r2, #0]
 80023d2:	4b0d      	ldr	r3, [pc, #52]	; (8002408 <LCD_IO_ReadCmd8MultipleData8+0x334>)
 80023d4:	681b      	ldr	r3, [r3, #0]
 80023d6:	f423 3340 	bic.w	r3, r3, #196608	; 0x30000
 80023da:	4a0b      	ldr	r2, [pc, #44]	; (8002408 <LCD_IO_ReadCmd8MultipleData8+0x334>)
 80023dc:	f443 3380 	orr.w	r3, r3, #65536	; 0x10000
 80023e0:	6013      	str	r3, [r2, #0]
 80023e2:	4b07      	ldr	r3, [pc, #28]	; (8002400 <LCD_IO_ReadCmd8MultipleData8+0x32c>)
 80023e4:	681b      	ldr	r3, [r3, #0]
 80023e6:	f023 7340 	bic.w	r3, r3, #50331648	; 0x3000000
 80023ea:	4a05      	ldr	r2, [pc, #20]	; (8002400 <LCD_IO_ReadCmd8MultipleData8+0x32c>)
 80023ec:	f043 7380 	orr.w	r3, r3, #16777216	; 0x1000000
 80023f0:	6013      	str	r3, [r2, #0]
}
 80023f2:	bf00      	nop
 80023f4:	3718      	adds	r7, #24
 80023f6:	46bd      	mov	sp, r7
 80023f8:	bd80      	pop	{r7, pc}
 80023fa:	bf00      	nop
 80023fc:	58020c00 	.word	0x58020c00
 8002400:	58021800 	.word	0x58021800
 8002404:	58021000 	.word	0x58021000
 8002408:	58020000 	.word	0x58020000
 800240c:	58020400 	.word	0x58020400

08002410 <LCD_IO_ReadCmd8MultipleData24to16>:
  LCD_DIRWRITE;
}

//-----------------------------------------------------------------------------
void LCD_IO_ReadCmd8MultipleData24to16(uint8_t Cmd, uint16_t *pData, uint32_t Size, uint32_t DummySize)
{
 8002410:	b580      	push	{r7, lr}
 8002412:	b086      	sub	sp, #24
 8002414:	af00      	add	r7, sp, #0
 8002416:	60b9      	str	r1, [r7, #8]
 8002418:	607a      	str	r2, [r7, #4]
 800241a:	603b      	str	r3, [r7, #0]
 800241c:	4603      	mov	r3, r0
 800241e:	73fb      	strb	r3, [r7, #15]
  uint8_t  rgb888[3];
  LCD_CS_ON;
 8002420:	4ba0      	ldr	r3, [pc, #640]	; (80026a4 <LCD_IO_ReadCmd8MultipleData24to16+0x294>)
 8002422:	f44f 3200 	mov.w	r2, #131072	; 0x20000
 8002426:	619a      	str	r2, [r3, #24]
  LCD_CMD8_WRITE(Cmd);
 8002428:	4b9f      	ldr	r3, [pc, #636]	; (80026a8 <LCD_IO_ReadCmd8MultipleData24to16+0x298>)
 800242a:	f44f 2200 	mov.w	r2, #524288	; 0x80000
 800242e:	619a      	str	r2, [r3, #24]
 8002430:	4a9e      	ldr	r2, [pc, #632]	; (80026ac <LCD_IO_ReadCmd8MultipleData24to16+0x29c>)
 8002432:	7bfb      	ldrb	r3, [r7, #15]
 8002434:	7013      	strb	r3, [r2, #0]
 8002436:	4b9d      	ldr	r3, [pc, #628]	; (80026ac <LCD_IO_ReadCmd8MultipleData24to16+0x29c>)
 8002438:	781b      	ldrb	r3, [r3, #0]
 800243a:	f003 0301 	and.w	r3, r3, #1
 800243e:	2b00      	cmp	r3, #0
 8002440:	d004      	beq.n	800244c <LCD_IO_ReadCmd8MultipleData24to16+0x3c>
 8002442:	4b9b      	ldr	r3, [pc, #620]	; (80026b0 <LCD_IO_ReadCmd8MultipleData24to16+0x2a0>)
 8002444:	f44f 7200 	mov.w	r2, #512	; 0x200
 8002448:	619a      	str	r2, [r3, #24]
 800244a:	e003      	b.n	8002454 <LCD_IO_ReadCmd8MultipleData24to16+0x44>
 800244c:	4b98      	ldr	r3, [pc, #608]	; (80026b0 <LCD_IO_ReadCmd8MultipleData24to16+0x2a0>)
 800244e:	f04f 7200 	mov.w	r2, #33554432	; 0x2000000
 8002452:	619a      	str	r2, [r3, #24]
 8002454:	4b95      	ldr	r3, [pc, #596]	; (80026ac <LCD_IO_ReadCmd8MultipleData24to16+0x29c>)
 8002456:	781b      	ldrb	r3, [r3, #0]
 8002458:	f003 0302 	and.w	r3, r3, #2
 800245c:	2b00      	cmp	r3, #0
 800245e:	d004      	beq.n	800246a <LCD_IO_ReadCmd8MultipleData24to16+0x5a>
 8002460:	4b94      	ldr	r3, [pc, #592]	; (80026b4 <LCD_IO_ReadCmd8MultipleData24to16+0x2a4>)
 8002462:	f44f 4200 	mov.w	r2, #32768	; 0x8000
 8002466:	619a      	str	r2, [r3, #24]
 8002468:	e003      	b.n	8002472 <LCD_IO_ReadCmd8MultipleData24to16+0x62>
 800246a:	4b92      	ldr	r3, [pc, #584]	; (80026b4 <LCD_IO_ReadCmd8MultipleData24to16+0x2a4>)
 800246c:	f04f 4200 	mov.w	r2, #2147483648	; 0x80000000
 8002470:	619a      	str	r2, [r3, #24]
 8002472:	4b8e      	ldr	r3, [pc, #568]	; (80026ac <LCD_IO_ReadCmd8MultipleData24to16+0x29c>)
 8002474:	781b      	ldrb	r3, [r3, #0]
 8002476:	f003 0304 	and.w	r3, r3, #4
 800247a:	2b00      	cmp	r3, #0
 800247c:	d004      	beq.n	8002488 <LCD_IO_ReadCmd8MultipleData24to16+0x78>
 800247e:	4b8c      	ldr	r3, [pc, #560]	; (80026b0 <LCD_IO_ReadCmd8MultipleData24to16+0x2a0>)
 8002480:	f44f 4280 	mov.w	r2, #16384	; 0x4000
 8002484:	619a      	str	r2, [r3, #24]
 8002486:	e003      	b.n	8002490 <LCD_IO_ReadCmd8MultipleData24to16+0x80>
 8002488:	4b89      	ldr	r3, [pc, #548]	; (80026b0 <LCD_IO_ReadCmd8MultipleData24to16+0x2a0>)
 800248a:	f04f 4280 	mov.w	r2, #1073741824	; 0x40000000
 800248e:	619a      	str	r2, [r3, #24]
 8002490:	4b86      	ldr	r3, [pc, #536]	; (80026ac <LCD_IO_ReadCmd8MultipleData24to16+0x29c>)
 8002492:	781b      	ldrb	r3, [r3, #0]
 8002494:	f003 0308 	and.w	r3, r3, #8
 8002498:	2b00      	cmp	r3, #0
 800249a:	d004      	beq.n	80024a6 <LCD_IO_ReadCmd8MultipleData24to16+0x96>
 800249c:	4b86      	ldr	r3, [pc, #536]	; (80026b8 <LCD_IO_ReadCmd8MultipleData24to16+0x2a8>)
 800249e:	f44f 5200 	mov.w	r2, #8192	; 0x2000
 80024a2:	619a      	str	r2, [r3, #24]
 80024a4:	e003      	b.n	80024ae <LCD_IO_ReadCmd8MultipleData24to16+0x9e>
 80024a6:	4b84      	ldr	r3, [pc, #528]	; (80026b8 <LCD_IO_ReadCmd8MultipleData24to16+0x2a8>)
 80024a8:	f04f 5200 	mov.w	r2, #536870912	; 0x20000000
 80024ac:	619a      	str	r2, [r3, #24]
 80024ae:	4b7f      	ldr	r3, [pc, #508]	; (80026ac <LCD_IO_ReadCmd8MultipleData24to16+0x29c>)
 80024b0:	781b      	ldrb	r3, [r3, #0]
 80024b2:	f003 0310 	and.w	r3, r3, #16
 80024b6:	2b00      	cmp	r3, #0
 80024b8:	d004      	beq.n	80024c4 <LCD_IO_ReadCmd8MultipleData24to16+0xb4>
 80024ba:	4b7f      	ldr	r3, [pc, #508]	; (80026b8 <LCD_IO_ReadCmd8MultipleData24to16+0x2a8>)
 80024bc:	f44f 4280 	mov.w	r2, #16384	; 0x4000
 80024c0:	619a      	str	r2, [r3, #24]
 80024c2:	e003      	b.n	80024cc <LCD_IO_ReadCmd8MultipleData24to16+0xbc>
 80024c4:	4b7c      	ldr	r3, [pc, #496]	; (80026b8 <LCD_IO_ReadCmd8MultipleData24to16+0x2a8>)
 80024c6:	f04f 4280 	mov.w	r2, #1073741824	; 0x40000000
 80024ca:	619a      	str	r2, [r3, #24]
 80024cc:	4b77      	ldr	r3, [pc, #476]	; (80026ac <LCD_IO_ReadCmd8MultipleData24to16+0x29c>)
 80024ce:	781b      	ldrb	r3, [r3, #0]
 80024d0:	f003 0320 	and.w	r3, r3, #32
 80024d4:	2b00      	cmp	r3, #0
 80024d6:	d004      	beq.n	80024e2 <LCD_IO_ReadCmd8MultipleData24to16+0xd2>
 80024d8:	4b77      	ldr	r3, [pc, #476]	; (80026b8 <LCD_IO_ReadCmd8MultipleData24to16+0x2a8>)
 80024da:	f44f 6200 	mov.w	r2, #2048	; 0x800
 80024de:	619a      	str	r2, [r3, #24]
 80024e0:	e003      	b.n	80024ea <LCD_IO_ReadCmd8MultipleData24to16+0xda>
 80024e2:	4b75      	ldr	r3, [pc, #468]	; (80026b8 <LCD_IO_ReadCmd8MultipleData24to16+0x2a8>)
 80024e4:	f04f 6200 	mov.w	r2, #134217728	; 0x8000000
 80024e8:	619a      	str	r2, [r3, #24]
 80024ea:	4b70      	ldr	r3, [pc, #448]	; (80026ac <LCD_IO_ReadCmd8MultipleData24to16+0x29c>)
 80024ec:	781b      	ldrb	r3, [r3, #0]
 80024ee:	f003 0340 	and.w	r3, r3, #64	; 0x40
 80024f2:	2b00      	cmp	r3, #0
 80024f4:	d004      	beq.n	8002500 <LCD_IO_ReadCmd8MultipleData24to16+0xf0>
 80024f6:	4b71      	ldr	r3, [pc, #452]	; (80026bc <LCD_IO_ReadCmd8MultipleData24to16+0x2ac>)
 80024f8:	f44f 7280 	mov.w	r2, #256	; 0x100
 80024fc:	619a      	str	r2, [r3, #24]
 80024fe:	e003      	b.n	8002508 <LCD_IO_ReadCmd8MultipleData24to16+0xf8>
 8002500:	4b6e      	ldr	r3, [pc, #440]	; (80026bc <LCD_IO_ReadCmd8MultipleData24to16+0x2ac>)
 8002502:	f04f 7280 	mov.w	r2, #16777216	; 0x1000000
 8002506:	619a      	str	r2, [r3, #24]
 8002508:	4b68      	ldr	r3, [pc, #416]	; (80026ac <LCD_IO_ReadCmd8MultipleData24to16+0x29c>)
 800250a:	781b      	ldrb	r3, [r3, #0]
 800250c:	b25b      	sxtb	r3, r3
 800250e:	2b00      	cmp	r3, #0
 8002510:	da04      	bge.n	800251c <LCD_IO_ReadCmd8MultipleData24to16+0x10c>
 8002512:	4b67      	ldr	r3, [pc, #412]	; (80026b0 <LCD_IO_ReadCmd8MultipleData24to16+0x2a0>)
 8002514:	f44f 5280 	mov.w	r2, #4096	; 0x1000
 8002518:	619a      	str	r2, [r3, #24]
 800251a:	e003      	b.n	8002524 <LCD_IO_ReadCmd8MultipleData24to16+0x114>
 800251c:	4b64      	ldr	r3, [pc, #400]	; (80026b0 <LCD_IO_ReadCmd8MultipleData24to16+0x2a0>)
 800251e:	f04f 5280 	mov.w	r2, #268435456	; 0x10000000
 8002522:	619a      	str	r2, [r3, #24]
 8002524:	4b60      	ldr	r3, [pc, #384]	; (80026a8 <LCD_IO_ReadCmd8MultipleData24to16+0x298>)
 8002526:	f44f 3280 	mov.w	r2, #65536	; 0x10000
 800252a:	619a      	str	r2, [r3, #24]
 800252c:	2008      	movs	r0, #8
 800252e:	f7fe fd6f 	bl	8001010 <LCD_IO_Delay>
 8002532:	4b5d      	ldr	r3, [pc, #372]	; (80026a8 <LCD_IO_ReadCmd8MultipleData24to16+0x298>)
 8002534:	2201      	movs	r2, #1
 8002536:	619a      	str	r2, [r3, #24]
 8002538:	4b5b      	ldr	r3, [pc, #364]	; (80026a8 <LCD_IO_ReadCmd8MultipleData24to16+0x298>)
 800253a:	2208      	movs	r2, #8
 800253c:	619a      	str	r2, [r3, #24]
  LCD_DIRREAD;
 800253e:	4b5c      	ldr	r3, [pc, #368]	; (80026b0 <LCD_IO_ReadCmd8MultipleData24to16+0x2a0>)
 8002540:	681b      	ldr	r3, [r3, #0]
 8002542:	4a5b      	ldr	r2, [pc, #364]	; (80026b0 <LCD_IO_ReadCmd8MultipleData24to16+0x2a0>)
 8002544:	f423 2340 	bic.w	r3, r3, #786432	; 0xc0000
 8002548:	6013      	str	r3, [r2, #0]
 800254a:	4b5a      	ldr	r3, [pc, #360]	; (80026b4 <LCD_IO_ReadCmd8MultipleData24to16+0x2a4>)
 800254c:	681b      	ldr	r3, [r3, #0]
 800254e:	4a59      	ldr	r2, [pc, #356]	; (80026b4 <LCD_IO_ReadCmd8MultipleData24to16+0x2a4>)
 8002550:	f023 4340 	bic.w	r3, r3, #3221225472	; 0xc0000000
 8002554:	6013      	str	r3, [r2, #0]
 8002556:	4b56      	ldr	r3, [pc, #344]	; (80026b0 <LCD_IO_ReadCmd8MultipleData24to16+0x2a0>)
 8002558:	681b      	ldr	r3, [r3, #0]
 800255a:	4a55      	ldr	r2, [pc, #340]	; (80026b0 <LCD_IO_ReadCmd8MultipleData24to16+0x2a0>)
 800255c:	f023 5340 	bic.w	r3, r3, #805306368	; 0x30000000
 8002560:	6013      	str	r3, [r2, #0]
 8002562:	4b55      	ldr	r3, [pc, #340]	; (80026b8 <LCD_IO_ReadCmd8MultipleData24to16+0x2a8>)
 8002564:	681b      	ldr	r3, [r3, #0]
 8002566:	4a54      	ldr	r2, [pc, #336]	; (80026b8 <LCD_IO_ReadCmd8MultipleData24to16+0x2a8>)
 8002568:	f023 6340 	bic.w	r3, r3, #201326592	; 0xc000000
 800256c:	6013      	str	r3, [r2, #0]
 800256e:	4b52      	ldr	r3, [pc, #328]	; (80026b8 <LCD_IO_ReadCmd8MultipleData24to16+0x2a8>)
 8002570:	681b      	ldr	r3, [r3, #0]
 8002572:	4a51      	ldr	r2, [pc, #324]	; (80026b8 <LCD_IO_ReadCmd8MultipleData24to16+0x2a8>)
 8002574:	f023 5340 	bic.w	r3, r3, #805306368	; 0x30000000
 8002578:	6013      	str	r3, [r2, #0]
 800257a:	4b4f      	ldr	r3, [pc, #316]	; (80026b8 <LCD_IO_ReadCmd8MultipleData24to16+0x2a8>)
 800257c:	681b      	ldr	r3, [r3, #0]
 800257e:	4a4e      	ldr	r2, [pc, #312]	; (80026b8 <LCD_IO_ReadCmd8MultipleData24to16+0x2a8>)
 8002580:	f423 0340 	bic.w	r3, r3, #12582912	; 0xc00000
 8002584:	6013      	str	r3, [r2, #0]
 8002586:	4b4d      	ldr	r3, [pc, #308]	; (80026bc <LCD_IO_ReadCmd8MultipleData24to16+0x2ac>)
 8002588:	681b      	ldr	r3, [r3, #0]
 800258a:	4a4c      	ldr	r2, [pc, #304]	; (80026bc <LCD_IO_ReadCmd8MultipleData24to16+0x2ac>)
 800258c:	f423 3340 	bic.w	r3, r3, #196608	; 0x30000
 8002590:	6013      	str	r3, [r2, #0]
 8002592:	4b47      	ldr	r3, [pc, #284]	; (80026b0 <LCD_IO_ReadCmd8MultipleData24to16+0x2a0>)
 8002594:	681b      	ldr	r3, [r3, #0]
 8002596:	4a46      	ldr	r2, [pc, #280]	; (80026b0 <LCD_IO_ReadCmd8MultipleData24to16+0x2a0>)
 8002598:	f023 7340 	bic.w	r3, r3, #50331648	; 0x3000000
 800259c:	6013      	str	r3, [r2, #0]
  while(DummySize--)
 800259e:	e009      	b.n	80025b4 <LCD_IO_ReadCmd8MultipleData24to16+0x1a4>
    LCD_DUMMY_READ;
 80025a0:	4b46      	ldr	r3, [pc, #280]	; (80026bc <LCD_IO_ReadCmd8MultipleData24to16+0x2ac>)
 80025a2:	f44f 2200 	mov.w	r2, #524288	; 0x80000
 80025a6:	619a      	str	r2, [r3, #24]
 80025a8:	2012      	movs	r0, #18
 80025aa:	f7fe fd31 	bl	8001010 <LCD_IO_Delay>
 80025ae:	4b43      	ldr	r3, [pc, #268]	; (80026bc <LCD_IO_ReadCmd8MultipleData24to16+0x2ac>)
 80025b0:	2208      	movs	r2, #8
 80025b2:	619a      	str	r2, [r3, #24]
  while(DummySize--)
 80025b4:	683b      	ldr	r3, [r7, #0]
 80025b6:	1e5a      	subs	r2, r3, #1
 80025b8:	603a      	str	r2, [r7, #0]
 80025ba:	2b00      	cmp	r3, #0
 80025bc:	d1f0      	bne.n	80025a0 <LCD_IO_ReadCmd8MultipleData24to16+0x190>
  while(Size--)
 80025be:	e14d      	b.n	800285c <LCD_IO_ReadCmd8MultipleData24to16+0x44c>
  {
    LCD_DATA8_READ(rgb888[0]);
 80025c0:	4b3e      	ldr	r3, [pc, #248]	; (80026bc <LCD_IO_ReadCmd8MultipleData24to16+0x2ac>)
 80025c2:	f44f 2200 	mov.w	r2, #524288	; 0x80000
 80025c6:	619a      	str	r2, [r3, #24]
 80025c8:	2012      	movs	r0, #18
 80025ca:	f7fe fd21 	bl	8001010 <LCD_IO_Delay>
 80025ce:	4b38      	ldr	r3, [pc, #224]	; (80026b0 <LCD_IO_ReadCmd8MultipleData24to16+0x2a0>)
 80025d0:	691b      	ldr	r3, [r3, #16]
 80025d2:	f403 7300 	and.w	r3, r3, #512	; 0x200
 80025d6:	2b00      	cmp	r3, #0
 80025d8:	d002      	beq.n	80025e0 <LCD_IO_ReadCmd8MultipleData24to16+0x1d0>
 80025da:	2301      	movs	r3, #1
 80025dc:	753b      	strb	r3, [r7, #20]
 80025de:	e001      	b.n	80025e4 <LCD_IO_ReadCmd8MultipleData24to16+0x1d4>
 80025e0:	2300      	movs	r3, #0
 80025e2:	753b      	strb	r3, [r7, #20]
 80025e4:	4b33      	ldr	r3, [pc, #204]	; (80026b4 <LCD_IO_ReadCmd8MultipleData24to16+0x2a4>)
 80025e6:	691b      	ldr	r3, [r3, #16]
 80025e8:	f403 4300 	and.w	r3, r3, #32768	; 0x8000
 80025ec:	2b00      	cmp	r3, #0
 80025ee:	d004      	beq.n	80025fa <LCD_IO_ReadCmd8MultipleData24to16+0x1ea>
 80025f0:	7d3b      	ldrb	r3, [r7, #20]
 80025f2:	f043 0302 	orr.w	r3, r3, #2
 80025f6:	b2db      	uxtb	r3, r3
 80025f8:	753b      	strb	r3, [r7, #20]
 80025fa:	4b2d      	ldr	r3, [pc, #180]	; (80026b0 <LCD_IO_ReadCmd8MultipleData24to16+0x2a0>)
 80025fc:	691b      	ldr	r3, [r3, #16]
 80025fe:	f403 4380 	and.w	r3, r3, #16384	; 0x4000
 8002602:	2b00      	cmp	r3, #0
 8002604:	d004      	beq.n	8002610 <LCD_IO_ReadCmd8MultipleData24to16+0x200>
 8002606:	7d3b      	ldrb	r3, [r7, #20]
 8002608:	f043 0304 	orr.w	r3, r3, #4
 800260c:	b2db      	uxtb	r3, r3
 800260e:	753b      	strb	r3, [r7, #20]
 8002610:	4b29      	ldr	r3, [pc, #164]	; (80026b8 <LCD_IO_ReadCmd8MultipleData24to16+0x2a8>)
 8002612:	691b      	ldr	r3, [r3, #16]
 8002614:	f403 5300 	and.w	r3, r3, #8192	; 0x2000
 8002618:	2b00      	cmp	r3, #0
 800261a:	d004      	beq.n	8002626 <LCD_IO_ReadCmd8MultipleData24to16+0x216>
 800261c:	7d3b      	ldrb	r3, [r7, #20]
 800261e:	f043 0308 	orr.w	r3, r3, #8
 8002622:	b2db      	uxtb	r3, r3
 8002624:	753b      	strb	r3, [r7, #20]
 8002626:	4b24      	ldr	r3, [pc, #144]	; (80026b8 <LCD_IO_ReadCmd8MultipleData24to16+0x2a8>)
 8002628:	691b      	ldr	r3, [r3, #16]
 800262a:	f403 4380 	and.w	r3, r3, #16384	; 0x4000
 800262e:	2b00      	cmp	r3, #0
 8002630:	d004      	beq.n	800263c <LCD_IO_ReadCmd8MultipleData24to16+0x22c>
 8002632:	7d3b      	ldrb	r3, [r7, #20]
 8002634:	f043 0310 	orr.w	r3, r3, #16
 8002638:	b2db      	uxtb	r3, r3
 800263a:	753b      	strb	r3, [r7, #20]
 800263c:	4b1e      	ldr	r3, [pc, #120]	; (80026b8 <LCD_IO_ReadCmd8MultipleData24to16+0x2a8>)
 800263e:	691b      	ldr	r3, [r3, #16]
 8002640:	f403 6300 	and.w	r3, r3, #2048	; 0x800
 8002644:	2b00      	cmp	r3, #0
 8002646:	d004      	beq.n	8002652 <LCD_IO_ReadCmd8MultipleData24to16+0x242>
 8002648:	7d3b      	ldrb	r3, [r7, #20]
 800264a:	f043 0320 	orr.w	r3, r3, #32
 800264e:	b2db      	uxtb	r3, r3
 8002650:	753b      	strb	r3, [r7, #20]
 8002652:	4b1a      	ldr	r3, [pc, #104]	; (80026bc <LCD_IO_ReadCmd8MultipleData24to16+0x2ac>)
 8002654:	691b      	ldr	r3, [r3, #16]
 8002656:	f403 7380 	and.w	r3, r3, #256	; 0x100
 800265a:	2b00      	cmp	r3, #0
 800265c:	d004      	beq.n	8002668 <LCD_IO_ReadCmd8MultipleData24to16+0x258>
 800265e:	7d3b      	ldrb	r3, [r7, #20]
 8002660:	f043 0340 	orr.w	r3, r3, #64	; 0x40
 8002664:	b2db      	uxtb	r3, r3
 8002666:	753b      	strb	r3, [r7, #20]
 8002668:	4b11      	ldr	r3, [pc, #68]	; (80026b0 <LCD_IO_ReadCmd8MultipleData24to16+0x2a0>)
 800266a:	691b      	ldr	r3, [r3, #16]
 800266c:	f403 5380 	and.w	r3, r3, #4096	; 0x1000
 8002670:	2b00      	cmp	r3, #0
 8002672:	d004      	beq.n	800267e <LCD_IO_ReadCmd8MultipleData24to16+0x26e>
 8002674:	7d3b      	ldrb	r3, [r7, #20]
 8002676:	f063 037f 	orn	r3, r3, #127	; 0x7f
 800267a:	b2db      	uxtb	r3, r3
 800267c:	753b      	strb	r3, [r7, #20]
 800267e:	4b0f      	ldr	r3, [pc, #60]	; (80026bc <LCD_IO_ReadCmd8MultipleData24to16+0x2ac>)
 8002680:	2208      	movs	r2, #8
 8002682:	619a      	str	r2, [r3, #24]
    LCD_DATA8_READ(rgb888[1]);
 8002684:	4b0d      	ldr	r3, [pc, #52]	; (80026bc <LCD_IO_ReadCmd8MultipleData24to16+0x2ac>)
 8002686:	f44f 2200 	mov.w	r2, #524288	; 0x80000
 800268a:	619a      	str	r2, [r3, #24]
 800268c:	2012      	movs	r0, #18
 800268e:	f7fe fcbf 	bl	8001010 <LCD_IO_Delay>
 8002692:	4b07      	ldr	r3, [pc, #28]	; (80026b0 <LCD_IO_ReadCmd8MultipleData24to16+0x2a0>)
 8002694:	691b      	ldr	r3, [r3, #16]
 8002696:	f403 7300 	and.w	r3, r3, #512	; 0x200
 800269a:	2b00      	cmp	r3, #0
 800269c:	d010      	beq.n	80026c0 <LCD_IO_ReadCmd8MultipleData24to16+0x2b0>
 800269e:	2301      	movs	r3, #1
 80026a0:	757b      	strb	r3, [r7, #21]
 80026a2:	e00f      	b.n	80026c4 <LCD_IO_ReadCmd8MultipleData24to16+0x2b4>
 80026a4:	58020400 	.word	0x58020400
 80026a8:	58020800 	.word	0x58020800
 80026ac:	240000ac 	.word	0x240000ac
 80026b0:	58021800 	.word	0x58021800
 80026b4:	58020c00 	.word	0x58020c00
 80026b8:	58021000 	.word	0x58021000
 80026bc:	58020000 	.word	0x58020000
 80026c0:	2300      	movs	r3, #0
 80026c2:	757b      	strb	r3, [r7, #21]
 80026c4:	4b8c      	ldr	r3, [pc, #560]	; (80028f8 <LCD_IO_ReadCmd8MultipleData24to16+0x4e8>)
 80026c6:	691b      	ldr	r3, [r3, #16]
 80026c8:	f403 4300 	and.w	r3, r3, #32768	; 0x8000
 80026cc:	2b00      	cmp	r3, #0
 80026ce:	d004      	beq.n	80026da <LCD_IO_ReadCmd8MultipleData24to16+0x2ca>
 80026d0:	7d7b      	ldrb	r3, [r7, #21]
 80026d2:	f043 0302 	orr.w	r3, r3, #2
 80026d6:	b2db      	uxtb	r3, r3
 80026d8:	757b      	strb	r3, [r7, #21]
 80026da:	4b88      	ldr	r3, [pc, #544]	; (80028fc <LCD_IO_ReadCmd8MultipleData24to16+0x4ec>)
 80026dc:	691b      	ldr	r3, [r3, #16]
 80026de:	f403 4380 	and.w	r3, r3, #16384	; 0x4000
 80026e2:	2b00      	cmp	r3, #0
 80026e4:	d004      	beq.n	80026f0 <LCD_IO_ReadCmd8MultipleData24to16+0x2e0>
 80026e6:	7d7b      	ldrb	r3, [r7, #21]
 80026e8:	f043 0304 	orr.w	r3, r3, #4
 80026ec:	b2db      	uxtb	r3, r3
 80026ee:	757b      	strb	r3, [r7, #21]
 80026f0:	4b83      	ldr	r3, [pc, #524]	; (8002900 <LCD_IO_ReadCmd8MultipleData24to16+0x4f0>)
 80026f2:	691b      	ldr	r3, [r3, #16]
 80026f4:	f403 5300 	and.w	r3, r3, #8192	; 0x2000
 80026f8:	2b00      	cmp	r3, #0
 80026fa:	d004      	beq.n	8002706 <LCD_IO_ReadCmd8MultipleData24to16+0x2f6>
 80026fc:	7d7b      	ldrb	r3, [r7, #21]
 80026fe:	f043 0308 	orr.w	r3, r3, #8
 8002702:	b2db      	uxtb	r3, r3
 8002704:	757b      	strb	r3, [r7, #21]
 8002706:	4b7e      	ldr	r3, [pc, #504]	; (8002900 <LCD_IO_ReadCmd8MultipleData24to16+0x4f0>)
 8002708:	691b      	ldr	r3, [r3, #16]
 800270a:	f403 4380 	and.w	r3, r3, #16384	; 0x4000
 800270e:	2b00      	cmp	r3, #0
 8002710:	d004      	beq.n	800271c <LCD_IO_ReadCmd8MultipleData24to16+0x30c>
 8002712:	7d7b      	ldrb	r3, [r7, #21]
 8002714:	f043 0310 	orr.w	r3, r3, #16
 8002718:	b2db      	uxtb	r3, r3
 800271a:	757b      	strb	r3, [r7, #21]
 800271c:	4b78      	ldr	r3, [pc, #480]	; (8002900 <LCD_IO_ReadCmd8MultipleData24to16+0x4f0>)
 800271e:	691b      	ldr	r3, [r3, #16]
 8002720:	f403 6300 	and.w	r3, r3, #2048	; 0x800
 8002724:	2b00      	cmp	r3, #0
 8002726:	d004      	beq.n	8002732 <LCD_IO_ReadCmd8MultipleData24to16+0x322>
 8002728:	7d7b      	ldrb	r3, [r7, #21]
 800272a:	f043 0320 	orr.w	r3, r3, #32
 800272e:	b2db      	uxtb	r3, r3
 8002730:	757b      	strb	r3, [r7, #21]
 8002732:	4b74      	ldr	r3, [pc, #464]	; (8002904 <LCD_IO_ReadCmd8MultipleData24to16+0x4f4>)
 8002734:	691b      	ldr	r3, [r3, #16]
 8002736:	f403 7380 	and.w	r3, r3, #256	; 0x100
 800273a:	2b00      	cmp	r3, #0
 800273c:	d004      	beq.n	8002748 <LCD_IO_ReadCmd8MultipleData24to16+0x338>
 800273e:	7d7b      	ldrb	r3, [r7, #21]
 8002740:	f043 0340 	orr.w	r3, r3, #64	; 0x40
 8002744:	b2db      	uxtb	r3, r3
 8002746:	757b      	strb	r3, [r7, #21]
 8002748:	4b6c      	ldr	r3, [pc, #432]	; (80028fc <LCD_IO_ReadCmd8MultipleData24to16+0x4ec>)
 800274a:	691b      	ldr	r3, [r3, #16]
 800274c:	f403 5380 	and.w	r3, r3, #4096	; 0x1000
 8002750:	2b00      	cmp	r3, #0
 8002752:	d004      	beq.n	800275e <LCD_IO_ReadCmd8MultipleData24to16+0x34e>
 8002754:	7d7b      	ldrb	r3, [r7, #21]
 8002756:	f063 037f 	orn	r3, r3, #127	; 0x7f
 800275a:	b2db      	uxtb	r3, r3
 800275c:	757b      	strb	r3, [r7, #21]
 800275e:	4b69      	ldr	r3, [pc, #420]	; (8002904 <LCD_IO_ReadCmd8MultipleData24to16+0x4f4>)
 8002760:	2208      	movs	r2, #8
 8002762:	619a      	str	r2, [r3, #24]
    LCD_DATA8_READ(rgb888[2]);
 8002764:	4b67      	ldr	r3, [pc, #412]	; (8002904 <LCD_IO_ReadCmd8MultipleData24to16+0x4f4>)
 8002766:	f44f 2200 	mov.w	r2, #524288	; 0x80000
 800276a:	619a      	str	r2, [r3, #24]
 800276c:	2012      	movs	r0, #18
 800276e:	f7fe fc4f 	bl	8001010 <LCD_IO_Delay>
 8002772:	4b62      	ldr	r3, [pc, #392]	; (80028fc <LCD_IO_ReadCmd8MultipleData24to16+0x4ec>)
 8002774:	691b      	ldr	r3, [r3, #16]
 8002776:	f403 7300 	and.w	r3, r3, #512	; 0x200
 800277a:	2b00      	cmp	r3, #0
 800277c:	d002      	beq.n	8002784 <LCD_IO_ReadCmd8MultipleData24to16+0x374>
 800277e:	2301      	movs	r3, #1
 8002780:	75bb      	strb	r3, [r7, #22]
 8002782:	e001      	b.n	8002788 <LCD_IO_ReadCmd8MultipleData24to16+0x378>
 8002784:	2300      	movs	r3, #0
 8002786:	75bb      	strb	r3, [r7, #22]
 8002788:	4b5b      	ldr	r3, [pc, #364]	; (80028f8 <LCD_IO_ReadCmd8MultipleData24to16+0x4e8>)
 800278a:	691b      	ldr	r3, [r3, #16]
 800278c:	f403 4300 	and.w	r3, r3, #32768	; 0x8000
 8002790:	2b00      	cmp	r3, #0
 8002792:	d004      	beq.n	800279e <LCD_IO_ReadCmd8MultipleData24to16+0x38e>
 8002794:	7dbb      	ldrb	r3, [r7, #22]
 8002796:	f043 0302 	orr.w	r3, r3, #2
 800279a:	b2db      	uxtb	r3, r3
 800279c:	75bb      	strb	r3, [r7, #22]
 800279e:	4b57      	ldr	r3, [pc, #348]	; (80028fc <LCD_IO_ReadCmd8MultipleData24to16+0x4ec>)
 80027a0:	691b      	ldr	r3, [r3, #16]
 80027a2:	f403 4380 	and.w	r3, r3, #16384	; 0x4000
 80027a6:	2b00      	cmp	r3, #0
 80027a8:	d004      	beq.n	80027b4 <LCD_IO_ReadCmd8MultipleData24to16+0x3a4>
 80027aa:	7dbb      	ldrb	r3, [r7, #22]
 80027ac:	f043 0304 	orr.w	r3, r3, #4
 80027b0:	b2db      	uxtb	r3, r3
 80027b2:	75bb      	strb	r3, [r7, #22]
 80027b4:	4b52      	ldr	r3, [pc, #328]	; (8002900 <LCD_IO_ReadCmd8MultipleData24to16+0x4f0>)
 80027b6:	691b      	ldr	r3, [r3, #16]
 80027b8:	f403 5300 	and.w	r3, r3, #8192	; 0x2000
 80027bc:	2b00      	cmp	r3, #0
 80027be:	d004      	beq.n	80027ca <LCD_IO_ReadCmd8MultipleData24to16+0x3ba>
 80027c0:	7dbb      	ldrb	r3, [r7, #22]
 80027c2:	f043 0308 	orr.w	r3, r3, #8
 80027c6:	b2db      	uxtb	r3, r3
 80027c8:	75bb      	strb	r3, [r7, #22]
 80027ca:	4b4d      	ldr	r3, [pc, #308]	; (8002900 <LCD_IO_ReadCmd8MultipleData24to16+0x4f0>)
 80027cc:	691b      	ldr	r3, [r3, #16]
 80027ce:	f403 4380 	and.w	r3, r3, #16384	; 0x4000
 80027d2:	2b00      	cmp	r3, #0
 80027d4:	d004      	beq.n	80027e0 <LCD_IO_ReadCmd8MultipleData24to16+0x3d0>
 80027d6:	7dbb      	ldrb	r3, [r7, #22]
 80027d8:	f043 0310 	orr.w	r3, r3, #16
 80027dc:	b2db      	uxtb	r3, r3
 80027de:	75bb      	strb	r3, [r7, #22]
 80027e0:	4b47      	ldr	r3, [pc, #284]	; (8002900 <LCD_IO_ReadCmd8MultipleData24to16+0x4f0>)
 80027e2:	691b      	ldr	r3, [r3, #16]
 80027e4:	f403 6300 	and.w	r3, r3, #2048	; 0x800
 80027e8:	2b00      	cmp	r3, #0
 80027ea:	d004      	beq.n	80027f6 <LCD_IO_ReadCmd8MultipleData24to16+0x3e6>
 80027ec:	7dbb      	ldrb	r3, [r7, #22]
 80027ee:	f043 0320 	orr.w	r3, r3, #32
 80027f2:	b2db      	uxtb	r3, r3
 80027f4:	75bb      	strb	r3, [r7, #22]
 80027f6:	4b43      	ldr	r3, [pc, #268]	; (8002904 <LCD_IO_ReadCmd8MultipleData24to16+0x4f4>)
 80027f8:	691b      	ldr	r3, [r3, #16]
 80027fa:	f403 7380 	and.w	r3, r3, #256	; 0x100
 80027fe:	2b00      	cmp	r3, #0
 8002800:	d004      	beq.n	800280c <LCD_IO_ReadCmd8MultipleData24to16+0x3fc>
 8002802:	7dbb      	ldrb	r3, [r7, #22]
 8002804:	f043 0340 	orr.w	r3, r3, #64	; 0x40
 8002808:	b2db      	uxtb	r3, r3
 800280a:	75bb      	strb	r3, [r7, #22]
 800280c:	4b3b      	ldr	r3, [pc, #236]	; (80028fc <LCD_IO_ReadCmd8MultipleData24to16+0x4ec>)
 800280e:	691b      	ldr	r3, [r3, #16]
 8002810:	f403 5380 	and.w	r3, r3, #4096	; 0x1000
 8002814:	2b00      	cmp	r3, #0
 8002816:	d004      	beq.n	8002822 <LCD_IO_ReadCmd8MultipleData24to16+0x412>
 8002818:	7dbb      	ldrb	r3, [r7, #22]
 800281a:	f063 037f 	orn	r3, r3, #127	; 0x7f
 800281e:	b2db      	uxtb	r3, r3
 8002820:	75bb      	strb	r3, [r7, #22]
 8002822:	4b38      	ldr	r3, [pc, #224]	; (8002904 <LCD_IO_ReadCmd8MultipleData24to16+0x4f4>)
 8002824:	2208      	movs	r2, #8
 8002826:	619a      	str	r2, [r3, #24]
    #if LCD_REVERSE16 == 0
    *pData = ((rgb888[0] & 0xF8) << 8 | (rgb888[1] & 0xFC) << 3 | rgb888[2] >> 3);
 8002828:	7d3b      	ldrb	r3, [r7, #20]
 800282a:	021b      	lsls	r3, r3, #8
 800282c:	b21a      	sxth	r2, r3
 800282e:	4b36      	ldr	r3, [pc, #216]	; (8002908 <LCD_IO_ReadCmd8MultipleData24to16+0x4f8>)
 8002830:	4013      	ands	r3, r2
 8002832:	b21a      	sxth	r2, r3
 8002834:	7d7b      	ldrb	r3, [r7, #21]
 8002836:	00db      	lsls	r3, r3, #3
 8002838:	b21b      	sxth	r3, r3
 800283a:	f403 63fc 	and.w	r3, r3, #2016	; 0x7e0
 800283e:	b21b      	sxth	r3, r3
 8002840:	4313      	orrs	r3, r2
 8002842:	b21a      	sxth	r2, r3
 8002844:	7dbb      	ldrb	r3, [r7, #22]
 8002846:	08db      	lsrs	r3, r3, #3
 8002848:	b2db      	uxtb	r3, r3
 800284a:	b21b      	sxth	r3, r3
 800284c:	4313      	orrs	r3, r2
 800284e:	b21b      	sxth	r3, r3
 8002850:	b29a      	uxth	r2, r3
 8002852:	68bb      	ldr	r3, [r7, #8]
 8002854:	801a      	strh	r2, [r3, #0]
    #else
    *pData = __REVSH((rgb888[0] & 0xF8) << 8 | (rgb888[1] & 0xFC) << 3 | rgb888[2] >> 3);
    #endif
    pData++;
 8002856:	68bb      	ldr	r3, [r7, #8]
 8002858:	3302      	adds	r3, #2
 800285a:	60bb      	str	r3, [r7, #8]
  while(Size--)
 800285c:	687b      	ldr	r3, [r7, #4]
 800285e:	1e5a      	subs	r2, r3, #1
 8002860:	607a      	str	r2, [r7, #4]
 8002862:	2b00      	cmp	r3, #0
 8002864:	f47f aeac 	bne.w	80025c0 <LCD_IO_ReadCmd8MultipleData24to16+0x1b0>
  }
  LCD_CS_OFF;
 8002868:	4b28      	ldr	r3, [pc, #160]	; (800290c <LCD_IO_ReadCmd8MultipleData24to16+0x4fc>)
 800286a:	2202      	movs	r2, #2
 800286c:	619a      	str	r2, [r3, #24]
  LCD_DIRWRITE;
 800286e:	4b23      	ldr	r3, [pc, #140]	; (80028fc <LCD_IO_ReadCmd8MultipleData24to16+0x4ec>)
 8002870:	681b      	ldr	r3, [r3, #0]
 8002872:	f423 2340 	bic.w	r3, r3, #786432	; 0xc0000
 8002876:	4a21      	ldr	r2, [pc, #132]	; (80028fc <LCD_IO_ReadCmd8MultipleData24to16+0x4ec>)
 8002878:	f443 2380 	orr.w	r3, r3, #262144	; 0x40000
 800287c:	6013      	str	r3, [r2, #0]
 800287e:	4b1e      	ldr	r3, [pc, #120]	; (80028f8 <LCD_IO_ReadCmd8MultipleData24to16+0x4e8>)
 8002880:	681b      	ldr	r3, [r3, #0]
 8002882:	f023 4340 	bic.w	r3, r3, #3221225472	; 0xc0000000
 8002886:	4a1c      	ldr	r2, [pc, #112]	; (80028f8 <LCD_IO_ReadCmd8MultipleData24to16+0x4e8>)
 8002888:	f043 4380 	orr.w	r3, r3, #1073741824	; 0x40000000
 800288c:	6013      	str	r3, [r2, #0]
 800288e:	4b1b      	ldr	r3, [pc, #108]	; (80028fc <LCD_IO_ReadCmd8MultipleData24to16+0x4ec>)
 8002890:	681b      	ldr	r3, [r3, #0]
 8002892:	f023 5340 	bic.w	r3, r3, #805306368	; 0x30000000
 8002896:	4a19      	ldr	r2, [pc, #100]	; (80028fc <LCD_IO_ReadCmd8MultipleData24to16+0x4ec>)
 8002898:	f043 5380 	orr.w	r3, r3, #268435456	; 0x10000000
 800289c:	6013      	str	r3, [r2, #0]
 800289e:	4b18      	ldr	r3, [pc, #96]	; (8002900 <LCD_IO_ReadCmd8MultipleData24to16+0x4f0>)
 80028a0:	681b      	ldr	r3, [r3, #0]
 80028a2:	f023 6340 	bic.w	r3, r3, #201326592	; 0xc000000
 80028a6:	4a16      	ldr	r2, [pc, #88]	; (8002900 <LCD_IO_ReadCmd8MultipleData24to16+0x4f0>)
 80028a8:	f043 6380 	orr.w	r3, r3, #67108864	; 0x4000000
 80028ac:	6013      	str	r3, [r2, #0]
 80028ae:	4b14      	ldr	r3, [pc, #80]	; (8002900 <LCD_IO_ReadCmd8MultipleData24to16+0x4f0>)
 80028b0:	681b      	ldr	r3, [r3, #0]
 80028b2:	f023 5340 	bic.w	r3, r3, #805306368	; 0x30000000
 80028b6:	4a12      	ldr	r2, [pc, #72]	; (8002900 <LCD_IO_ReadCmd8MultipleData24to16+0x4f0>)
 80028b8:	f043 5380 	orr.w	r3, r3, #268435456	; 0x10000000
 80028bc:	6013      	str	r3, [r2, #0]
 80028be:	4b10      	ldr	r3, [pc, #64]	; (8002900 <LCD_IO_ReadCmd8MultipleData24to16+0x4f0>)
 80028c0:	681b      	ldr	r3, [r3, #0]
 80028c2:	f423 0340 	bic.w	r3, r3, #12582912	; 0xc00000
 80028c6:	4a0e      	ldr	r2, [pc, #56]	; (8002900 <LCD_IO_ReadCmd8MultipleData24to16+0x4f0>)
 80028c8:	f443 0380 	orr.w	r3, r3, #4194304	; 0x400000
 80028cc:	6013      	str	r3, [r2, #0]
 80028ce:	4b0d      	ldr	r3, [pc, #52]	; (8002904 <LCD_IO_ReadCmd8MultipleData24to16+0x4f4>)
 80028d0:	681b      	ldr	r3, [r3, #0]
 80028d2:	f423 3340 	bic.w	r3, r3, #196608	; 0x30000
 80028d6:	4a0b      	ldr	r2, [pc, #44]	; (8002904 <LCD_IO_ReadCmd8MultipleData24to16+0x4f4>)
 80028d8:	f443 3380 	orr.w	r3, r3, #65536	; 0x10000
 80028dc:	6013      	str	r3, [r2, #0]
 80028de:	4b07      	ldr	r3, [pc, #28]	; (80028fc <LCD_IO_ReadCmd8MultipleData24to16+0x4ec>)
 80028e0:	681b      	ldr	r3, [r3, #0]
 80028e2:	f023 7340 	bic.w	r3, r3, #50331648	; 0x3000000
 80028e6:	4a05      	ldr	r2, [pc, #20]	; (80028fc <LCD_IO_ReadCmd8MultipleData24to16+0x4ec>)
 80028e8:	f043 7380 	orr.w	r3, r3, #16777216	; 0x1000000
 80028ec:	6013      	str	r3, [r2, #0]
}
 80028ee:	bf00      	nop
 80028f0:	3718      	adds	r7, #24
 80028f2:	46bd      	mov	sp, r7
 80028f4:	bd80      	pop	{r7, pc}
 80028f6:	bf00      	nop
 80028f8:	58020c00 	.word	0x58020c00
 80028fc:	58021800 	.word	0x58021800
 8002900:	58021000 	.word	0x58021000
 8002904:	58020000 	.word	0x58020000
 8002908:	fffff800 	.word	0xfffff800
 800290c:	58020400 	.word	0x58020400

08002910 <BSP_LCD_Init>:
  * @brief  Initializes the LCD.
  * @param  None
  * @retval LCD state
  */
uint8_t BSP_LCD_Init(void)
{ 
 8002910:	b580      	push	{r7, lr}
 8002912:	b082      	sub	sp, #8
 8002914:	af00      	add	r7, sp, #0
  uint8_t ret = LCD_ERROR;
 8002916:	2301      	movs	r3, #1
 8002918:	71fb      	strb	r3, [r7, #7]

  /* LCD Init */   
  lcd_drv->Init();
 800291a:	4b0a      	ldr	r3, [pc, #40]	; (8002944 <BSP_LCD_Init+0x34>)
 800291c:	681b      	ldr	r3, [r3, #0]
 800291e:	681b      	ldr	r3, [r3, #0]
 8002920:	4798      	blx	r3
  
  /* Default value for draw propriety */
  DrawProp.BackColor = LCD_DEFAULT_BACKCOLOR;
 8002922:	4b09      	ldr	r3, [pc, #36]	; (8002948 <BSP_LCD_Init+0x38>)
 8002924:	2200      	movs	r2, #0
 8002926:	605a      	str	r2, [r3, #4]
  DrawProp.TextColor = LCD_DEFAULT_TEXTCOLOR;
 8002928:	4b07      	ldr	r3, [pc, #28]	; (8002948 <BSP_LCD_Init+0x38>)
 800292a:	f64f 72ff 	movw	r2, #65535	; 0xffff
 800292e:	601a      	str	r2, [r3, #0]
  DrawProp.pFont     = &LCD_DEFAULT_FONT;
 8002930:	4b05      	ldr	r3, [pc, #20]	; (8002948 <BSP_LCD_Init+0x38>)
 8002932:	4a06      	ldr	r2, [pc, #24]	; (800294c <BSP_LCD_Init+0x3c>)
 8002934:	609a      	str	r2, [r3, #8]
  /* Clear the LCD screen */
  #if LCD_INIT_CLEAR == 1
  BSP_LCD_Clear(LCD_DEFAULT_BACKCOLOR);
  #endif
  
  ret = LCD_OK;
 8002936:	2300      	movs	r3, #0
 8002938:	71fb      	strb	r3, [r7, #7]
  
  return ret;
 800293a:	79fb      	ldrb	r3, [r7, #7]
}
 800293c:	4618      	mov	r0, r3
 800293e:	3708      	adds	r7, #8
 8002940:	46bd      	mov	sp, r7
 8002942:	bd80      	pop	{r7, pc}
 8002944:	2400006c 	.word	0x2400006c
 8002948:	240000b0 	.word	0x240000b0
 800294c:	24000020 	.word	0x24000020

08002950 <BSP_LCD_GetXSize>:
  * @brief  Gets the LCD X size.
  * @param  None    
  * @retval Used LCD X size
  */
uint16_t BSP_LCD_GetXSize(void)
{
 8002950:	b580      	push	{r7, lr}
 8002952:	af00      	add	r7, sp, #0
  return(lcd_drv->GetLcdPixelWidth());
 8002954:	4b03      	ldr	r3, [pc, #12]	; (8002964 <BSP_LCD_GetXSize+0x14>)
 8002956:	681b      	ldr	r3, [r3, #0]
 8002958:	6a9b      	ldr	r3, [r3, #40]	; 0x28
 800295a:	4798      	blx	r3
 800295c:	4603      	mov	r3, r0
}
 800295e:	4618      	mov	r0, r3
 8002960:	bd80      	pop	{r7, pc}
 8002962:	bf00      	nop
 8002964:	2400006c 	.word	0x2400006c

08002968 <BSP_LCD_GetYSize>:
  * @brief  Gets the LCD Y size.
  * @param  None   
  * @retval Used LCD Y size
  */
uint16_t BSP_LCD_GetYSize(void)
{
 8002968:	b580      	push	{r7, lr}
 800296a:	af00      	add	r7, sp, #0
  return(lcd_drv->GetLcdPixelHeight());
 800296c:	4b03      	ldr	r3, [pc, #12]	; (800297c <BSP_LCD_GetYSize+0x14>)
 800296e:	681b      	ldr	r3, [r3, #0]
 8002970:	6adb      	ldr	r3, [r3, #44]	; 0x2c
 8002972:	4798      	blx	r3
 8002974:	4603      	mov	r3, r0
}
 8002976:	4618      	mov	r0, r3
 8002978:	bd80      	pop	{r7, pc}
 800297a:	bf00      	nop
 800297c:	2400006c 	.word	0x2400006c

08002980 <BSP_LCD_Clear>:
  * @brief  Clears the hole LCD.
  * @param  Color: Color of the background
  * @retval None
  */
void BSP_LCD_Clear(uint16_t Color)
{
 8002980:	b5b0      	push	{r4, r5, r7, lr}
 8002982:	b084      	sub	sp, #16
 8002984:	af02      	add	r7, sp, #8
 8002986:	4603      	mov	r3, r0
 8002988:	80fb      	strh	r3, [r7, #6]
  lcd_drv->FillRect(0, 0, BSP_LCD_GetXSize(), BSP_LCD_GetYSize(), Color);
 800298a:	4b0b      	ldr	r3, [pc, #44]	; (80029b8 <BSP_LCD_Clear+0x38>)
 800298c:	681b      	ldr	r3, [r3, #0]
 800298e:	6b9c      	ldr	r4, [r3, #56]	; 0x38
 8002990:	f7ff ffde 	bl	8002950 <BSP_LCD_GetXSize>
 8002994:	4603      	mov	r3, r0
 8002996:	461d      	mov	r5, r3
 8002998:	f7ff ffe6 	bl	8002968 <BSP_LCD_GetYSize>
 800299c:	4603      	mov	r3, r0
 800299e:	461a      	mov	r2, r3
 80029a0:	88fb      	ldrh	r3, [r7, #6]
 80029a2:	9300      	str	r3, [sp, #0]
 80029a4:	4613      	mov	r3, r2
 80029a6:	462a      	mov	r2, r5
 80029a8:	2100      	movs	r1, #0
 80029aa:	2000      	movs	r0, #0
 80029ac:	47a0      	blx	r4
}
 80029ae:	bf00      	nop
 80029b0:	3708      	adds	r7, #8
 80029b2:	46bd      	mov	sp, r7
 80029b4:	bdb0      	pop	{r4, r5, r7, pc}
 80029b6:	bf00      	nop
 80029b8:	2400006c 	.word	0x2400006c

080029bc <BSP_LCD_DrawPixel>:
  * @param  Ypos: Y position
  * @param  RGB_Code: Pixel color in RGB mode (5-6-5)  
  * @retval None
  */
void BSP_LCD_DrawPixel(uint16_t Xpos, uint16_t Ypos, uint16_t RGB_Code)
{
 80029bc:	b580      	push	{r7, lr}
 80029be:	b082      	sub	sp, #8
 80029c0:	af00      	add	r7, sp, #0
 80029c2:	4603      	mov	r3, r0
 80029c4:	80fb      	strh	r3, [r7, #6]
 80029c6:	460b      	mov	r3, r1
 80029c8:	80bb      	strh	r3, [r7, #4]
 80029ca:	4613      	mov	r3, r2
 80029cc:	807b      	strh	r3, [r7, #2]
  if(lcd_drv->WritePixel != NULL)
 80029ce:	4b08      	ldr	r3, [pc, #32]	; (80029f0 <BSP_LCD_DrawPixel+0x34>)
 80029d0:	681b      	ldr	r3, [r3, #0]
 80029d2:	695b      	ldr	r3, [r3, #20]
 80029d4:	2b00      	cmp	r3, #0
 80029d6:	d006      	beq.n	80029e6 <BSP_LCD_DrawPixel+0x2a>
  {
    lcd_drv->WritePixel(Xpos, Ypos, RGB_Code);
 80029d8:	4b05      	ldr	r3, [pc, #20]	; (80029f0 <BSP_LCD_DrawPixel+0x34>)
 80029da:	681b      	ldr	r3, [r3, #0]
 80029dc:	695b      	ldr	r3, [r3, #20]
 80029de:	887a      	ldrh	r2, [r7, #2]
 80029e0:	88b9      	ldrh	r1, [r7, #4]
 80029e2:	88f8      	ldrh	r0, [r7, #6]
 80029e4:	4798      	blx	r3
  }
}
 80029e6:	bf00      	nop
 80029e8:	3708      	adds	r7, #8
 80029ea:	46bd      	mov	sp, r7
 80029ec:	bd80      	pop	{r7, pc}
 80029ee:	bf00      	nop
 80029f0:	2400006c 	.word	0x2400006c

080029f4 <BSP_LCD_DrawHLine>:
  * @param  Ypos: Y position
  * @param  Length: Line length
  * @retval None
  */
void BSP_LCD_DrawHLine(uint16_t Xpos, uint16_t Ypos, uint16_t Length)
{
 80029f4:	b590      	push	{r4, r7, lr}
 80029f6:	b085      	sub	sp, #20
 80029f8:	af00      	add	r7, sp, #0
 80029fa:	4603      	mov	r3, r0
 80029fc:	80fb      	strh	r3, [r7, #6]
 80029fe:	460b      	mov	r3, r1
 8002a00:	80bb      	strh	r3, [r7, #4]
 8002a02:	4613      	mov	r3, r2
 8002a04:	807b      	strh	r3, [r7, #2]
  uint32_t index = 0;
 8002a06:	2300      	movs	r3, #0
 8002a08:	60fb      	str	r3, [r7, #12]
  
  if(lcd_drv->DrawHLine != NULL)
 8002a0a:	4b15      	ldr	r3, [pc, #84]	; (8002a60 <BSP_LCD_DrawHLine+0x6c>)
 8002a0c:	681b      	ldr	r3, [r3, #0]
 8002a0e:	6a1b      	ldr	r3, [r3, #32]
 8002a10:	2b00      	cmp	r3, #0
 8002a12:	d00a      	beq.n	8002a2a <BSP_LCD_DrawHLine+0x36>
  {
    lcd_drv->DrawHLine(DrawProp.TextColor, Xpos, Ypos, Length);
 8002a14:	4b12      	ldr	r3, [pc, #72]	; (8002a60 <BSP_LCD_DrawHLine+0x6c>)
 8002a16:	681b      	ldr	r3, [r3, #0]
 8002a18:	6a1c      	ldr	r4, [r3, #32]
 8002a1a:	4b12      	ldr	r3, [pc, #72]	; (8002a64 <BSP_LCD_DrawHLine+0x70>)
 8002a1c:	681b      	ldr	r3, [r3, #0]
 8002a1e:	b298      	uxth	r0, r3
 8002a20:	887b      	ldrh	r3, [r7, #2]
 8002a22:	88ba      	ldrh	r2, [r7, #4]
 8002a24:	88f9      	ldrh	r1, [r7, #6]
 8002a26:	47a0      	blx	r4
    for(index = 0; index < Length; index++)
    {
      BSP_LCD_DrawPixel((Xpos + index), Ypos, DrawProp.TextColor);
    }
  }
}
 8002a28:	e015      	b.n	8002a56 <BSP_LCD_DrawHLine+0x62>
    for(index = 0; index < Length; index++)
 8002a2a:	2300      	movs	r3, #0
 8002a2c:	60fb      	str	r3, [r7, #12]
 8002a2e:	e00e      	b.n	8002a4e <BSP_LCD_DrawHLine+0x5a>
      BSP_LCD_DrawPixel((Xpos + index), Ypos, DrawProp.TextColor);
 8002a30:	68fb      	ldr	r3, [r7, #12]
 8002a32:	b29a      	uxth	r2, r3
 8002a34:	88fb      	ldrh	r3, [r7, #6]
 8002a36:	4413      	add	r3, r2
 8002a38:	b29b      	uxth	r3, r3
 8002a3a:	4a0a      	ldr	r2, [pc, #40]	; (8002a64 <BSP_LCD_DrawHLine+0x70>)
 8002a3c:	6812      	ldr	r2, [r2, #0]
 8002a3e:	b292      	uxth	r2, r2
 8002a40:	88b9      	ldrh	r1, [r7, #4]
 8002a42:	4618      	mov	r0, r3
 8002a44:	f7ff ffba 	bl	80029bc <BSP_LCD_DrawPixel>
    for(index = 0; index < Length; index++)
 8002a48:	68fb      	ldr	r3, [r7, #12]
 8002a4a:	3301      	adds	r3, #1
 8002a4c:	60fb      	str	r3, [r7, #12]
 8002a4e:	887b      	ldrh	r3, [r7, #2]
 8002a50:	68fa      	ldr	r2, [r7, #12]
 8002a52:	429a      	cmp	r2, r3
 8002a54:	d3ec      	bcc.n	8002a30 <BSP_LCD_DrawHLine+0x3c>
}
 8002a56:	bf00      	nop
 8002a58:	3714      	adds	r7, #20
 8002a5a:	46bd      	mov	sp, r7
 8002a5c:	bd90      	pop	{r4, r7, pc}
 8002a5e:	bf00      	nop
 8002a60:	2400006c 	.word	0x2400006c
 8002a64:	240000b0 	.word	0x240000b0

08002a68 <BSP_LCD_DrawVLine>:
  * @param  Ypos: Y position
  * @param  Length: Line length
  * @retval None
  */
void BSP_LCD_DrawVLine(uint16_t Xpos, uint16_t Ypos, uint16_t Length)
{
 8002a68:	b590      	push	{r4, r7, lr}
 8002a6a:	b085      	sub	sp, #20
 8002a6c:	af00      	add	r7, sp, #0
 8002a6e:	4603      	mov	r3, r0
 8002a70:	80fb      	strh	r3, [r7, #6]
 8002a72:	460b      	mov	r3, r1
 8002a74:	80bb      	strh	r3, [r7, #4]
 8002a76:	4613      	mov	r3, r2
 8002a78:	807b      	strh	r3, [r7, #2]
  uint32_t index = 0;
 8002a7a:	2300      	movs	r3, #0
 8002a7c:	60fb      	str	r3, [r7, #12]
  
  if(lcd_drv->DrawVLine != NULL)
 8002a7e:	4b15      	ldr	r3, [pc, #84]	; (8002ad4 <BSP_LCD_DrawVLine+0x6c>)
 8002a80:	681b      	ldr	r3, [r3, #0]
 8002a82:	6a5b      	ldr	r3, [r3, #36]	; 0x24
 8002a84:	2b00      	cmp	r3, #0
 8002a86:	d00a      	beq.n	8002a9e <BSP_LCD_DrawVLine+0x36>
  {
    lcd_drv->DrawVLine(DrawProp.TextColor, Xpos, Ypos, Length);
 8002a88:	4b12      	ldr	r3, [pc, #72]	; (8002ad4 <BSP_LCD_DrawVLine+0x6c>)
 8002a8a:	681b      	ldr	r3, [r3, #0]
 8002a8c:	6a5c      	ldr	r4, [r3, #36]	; 0x24
 8002a8e:	4b12      	ldr	r3, [pc, #72]	; (8002ad8 <BSP_LCD_DrawVLine+0x70>)
 8002a90:	681b      	ldr	r3, [r3, #0]
 8002a92:	b298      	uxth	r0, r3
 8002a94:	887b      	ldrh	r3, [r7, #2]
 8002a96:	88ba      	ldrh	r2, [r7, #4]
 8002a98:	88f9      	ldrh	r1, [r7, #6]
 8002a9a:	47a0      	blx	r4
    for(index = 0; index < Length; index++)
    {
      BSP_LCD_DrawPixel(Xpos, Ypos + index, DrawProp.TextColor);
    }
  }
}
 8002a9c:	e015      	b.n	8002aca <BSP_LCD_DrawVLine+0x62>
    for(index = 0; index < Length; index++)
 8002a9e:	2300      	movs	r3, #0
 8002aa0:	60fb      	str	r3, [r7, #12]
 8002aa2:	e00e      	b.n	8002ac2 <BSP_LCD_DrawVLine+0x5a>
      BSP_LCD_DrawPixel(Xpos, Ypos + index, DrawProp.TextColor);
 8002aa4:	68fb      	ldr	r3, [r7, #12]
 8002aa6:	b29a      	uxth	r2, r3
 8002aa8:	88bb      	ldrh	r3, [r7, #4]
 8002aaa:	4413      	add	r3, r2
 8002aac:	b299      	uxth	r1, r3
 8002aae:	4b0a      	ldr	r3, [pc, #40]	; (8002ad8 <BSP_LCD_DrawVLine+0x70>)
 8002ab0:	681b      	ldr	r3, [r3, #0]
 8002ab2:	b29a      	uxth	r2, r3
 8002ab4:	88fb      	ldrh	r3, [r7, #6]
 8002ab6:	4618      	mov	r0, r3
 8002ab8:	f7ff ff80 	bl	80029bc <BSP_LCD_DrawPixel>
    for(index = 0; index < Length; index++)
 8002abc:	68fb      	ldr	r3, [r7, #12]
 8002abe:	3301      	adds	r3, #1
 8002ac0:	60fb      	str	r3, [r7, #12]
 8002ac2:	887b      	ldrh	r3, [r7, #2]
 8002ac4:	68fa      	ldr	r2, [r7, #12]
 8002ac6:	429a      	cmp	r2, r3
 8002ac8:	d3ec      	bcc.n	8002aa4 <BSP_LCD_DrawVLine+0x3c>
}
 8002aca:	bf00      	nop
 8002acc:	3714      	adds	r7, #20
 8002ace:	46bd      	mov	sp, r7
 8002ad0:	bd90      	pop	{r4, r7, pc}
 8002ad2:	bf00      	nop
 8002ad4:	2400006c 	.word	0x2400006c
 8002ad8:	240000b0 	.word	0x240000b0

08002adc <BSP_LCD_DrawRect>:
  * @param  Width: Rectangle width  
  * @param  Height: Rectangle height
  * @retval None
  */
void BSP_LCD_DrawRect(uint16_t Xpos, uint16_t Ypos, uint16_t Width, uint16_t Height)
{
 8002adc:	b590      	push	{r4, r7, lr}
 8002ade:	b083      	sub	sp, #12
 8002ae0:	af00      	add	r7, sp, #0
 8002ae2:	4604      	mov	r4, r0
 8002ae4:	4608      	mov	r0, r1
 8002ae6:	4611      	mov	r1, r2
 8002ae8:	461a      	mov	r2, r3
 8002aea:	4623      	mov	r3, r4
 8002aec:	80fb      	strh	r3, [r7, #6]
 8002aee:	4603      	mov	r3, r0
 8002af0:	80bb      	strh	r3, [r7, #4]
 8002af2:	460b      	mov	r3, r1
 8002af4:	807b      	strh	r3, [r7, #2]
 8002af6:	4613      	mov	r3, r2
 8002af8:	803b      	strh	r3, [r7, #0]
  /* Draw horizontal lines */
  BSP_LCD_DrawHLine(Xpos, Ypos, Width);
 8002afa:	887a      	ldrh	r2, [r7, #2]
 8002afc:	88b9      	ldrh	r1, [r7, #4]
 8002afe:	88fb      	ldrh	r3, [r7, #6]
 8002b00:	4618      	mov	r0, r3
 8002b02:	f7ff ff77 	bl	80029f4 <BSP_LCD_DrawHLine>
  BSP_LCD_DrawHLine(Xpos, (Ypos + Height - 1), Width);
 8002b06:	88ba      	ldrh	r2, [r7, #4]
 8002b08:	883b      	ldrh	r3, [r7, #0]
 8002b0a:	4413      	add	r3, r2
 8002b0c:	b29b      	uxth	r3, r3
 8002b0e:	3b01      	subs	r3, #1
 8002b10:	b299      	uxth	r1, r3
 8002b12:	887a      	ldrh	r2, [r7, #2]
 8002b14:	88fb      	ldrh	r3, [r7, #6]
 8002b16:	4618      	mov	r0, r3
 8002b18:	f7ff ff6c 	bl	80029f4 <BSP_LCD_DrawHLine>
  
  /* Draw vertical lines */
  BSP_LCD_DrawVLine(Xpos, Ypos, Height);
 8002b1c:	883a      	ldrh	r2, [r7, #0]
 8002b1e:	88b9      	ldrh	r1, [r7, #4]
 8002b20:	88fb      	ldrh	r3, [r7, #6]
 8002b22:	4618      	mov	r0, r3
 8002b24:	f7ff ffa0 	bl	8002a68 <BSP_LCD_DrawVLine>
  BSP_LCD_DrawVLine((Xpos + Width - 1), Ypos, Height);
 8002b28:	88fa      	ldrh	r2, [r7, #6]
 8002b2a:	887b      	ldrh	r3, [r7, #2]
 8002b2c:	4413      	add	r3, r2
 8002b2e:	b29b      	uxth	r3, r3
 8002b30:	3b01      	subs	r3, #1
 8002b32:	b29b      	uxth	r3, r3
 8002b34:	883a      	ldrh	r2, [r7, #0]
 8002b36:	88b9      	ldrh	r1, [r7, #4]
 8002b38:	4618      	mov	r0, r3
 8002b3a:	f7ff ff95 	bl	8002a68 <BSP_LCD_DrawVLine>
}
 8002b3e:	bf00      	nop
 8002b40:	370c      	adds	r7, #12
 8002b42:	46bd      	mov	sp, r7
 8002b44:	bd90      	pop	{r4, r7, pc}
	...

08002b48 <BSP_LCD_DisplayOn>:
  * @brief  Enables the display.
  * @param  None
  * @retval None
  */
void BSP_LCD_DisplayOn(void)
{
 8002b48:	b580      	push	{r7, lr}
 8002b4a:	af00      	add	r7, sp, #0
  lcd_drv->DisplayOn();
 8002b4c:	4b02      	ldr	r3, [pc, #8]	; (8002b58 <BSP_LCD_DisplayOn+0x10>)
 8002b4e:	681b      	ldr	r3, [r3, #0]
 8002b50:	689b      	ldr	r3, [r3, #8]
 8002b52:	4798      	blx	r3
}
 8002b54:	bf00      	nop
 8002b56:	bd80      	pop	{r7, pc}
 8002b58:	2400006c 	.word	0x2400006c

08002b5c <main>:
/**
  * @brief  The application entry point.
  * @retval int
  */
int main(void)
{
 8002b5c:	b580      	push	{r7, lr}
 8002b5e:	b08a      	sub	sp, #40	; 0x28
 8002b60:	af04      	add	r7, sp, #16
  /* USER CODE END 1 */

  /* MCU Configuration--------------------------------------------------------*/

  /* Reset of all peripherals, Initializes the Flash interface and the Systick. */
  HAL_Init();
 8002b62:	f000 ff6b 	bl	8003a3c <HAL_Init>
  /* USER CODE BEGIN Init */

  /* USER CODE END Init */

  /* Configure the system clock */
  SystemClock_Config();
 8002b66:	f000 fa25 	bl	8002fb4 <SystemClock_Config>
  /* USER CODE BEGIN SysInit */

  /* USER CODE END SysInit */

  /* Initialize all configured peripherals */
  MX_GPIO_Init();
 8002b6a:	f000 fb15 	bl	8003198 <MX_GPIO_Init>
  MX_USART3_UART_Init();
 8002b6e:	f000 fabf 	bl	80030f0 <MX_USART3_UART_Init>
  MX_USB_OTG_HS_USB_Init();
 8002b72:	f000 fb09 	bl	8003188 <MX_USB_OTG_HS_USB_Init>
  MX_TIM17_Init();
 8002b76:	f000 fa93 	bl	80030a0 <MX_TIM17_Init>
  /* USER CODE BEGIN 2 */

  //HAL_TIM_Base_Start_IT(&htim17);
  ili9486_Init();
 8002b7a:	f7fd fd79 	bl	8000670 <ili9486_Init>
  ili9486_DisplayOn();
 8002b7e:	f7fd fd37 	bl	80005f0 <ili9486_DisplayOn>

  BSP_LCD_Init();
 8002b82:	f7ff fec5 	bl	8002910 <BSP_LCD_Init>
  BSP_LCD_DisplayOn();
 8002b86:	f7ff ffdf 	bl	8002b48 <BSP_LCD_DisplayOn>

  baaa[0] = ili9486_GetLcdPixelWidth();
 8002b8a:	f7fd fd45 	bl	8000618 <ili9486_GetLcdPixelWidth>
 8002b8e:	4603      	mov	r3, r0
 8002b90:	b29a      	uxth	r2, r3
 8002b92:	4b39      	ldr	r3, [pc, #228]	; (8002c78 <main+0x11c>)
 8002b94:	801a      	strh	r2, [r3, #0]
  baaa[1] = ili9486_GetLcdPixelHeight();
 8002b96:	f7fd fd48 	bl	800062a <ili9486_GetLcdPixelHeight>
 8002b9a:	4603      	mov	r3, r0
 8002b9c:	b29a      	uxth	r2, r3
 8002b9e:	4b36      	ldr	r3, [pc, #216]	; (8002c78 <main+0x11c>)
 8002ba0:	805a      	strh	r2, [r3, #2]
  baaa[2] = ili9486_ReadID();
 8002ba2:	f7fd fd4b 	bl	800063c <ili9486_ReadID>
 8002ba6:	4603      	mov	r3, r0
 8002ba8:	b29a      	uxth	r2, r3
 8002baa:	4b33      	ldr	r3, [pc, #204]	; (8002c78 <main+0x11c>)
 8002bac:	809a      	strh	r2, [r3, #4]
  ili9486_FillRect(0, 0, 480, 320, 0x0000);
 8002bae:	2300      	movs	r3, #0
 8002bb0:	9300      	str	r3, [sp, #0]
 8002bb2:	f44f 73a0 	mov.w	r3, #320	; 0x140
 8002bb6:	f44f 72f0 	mov.w	r2, #480	; 0x1e0
 8002bba:	2100      	movs	r1, #0
 8002bbc:	2000      	movs	r0, #0
 8002bbe:	f7fd ffc9 	bl	8000b54 <ili9486_FillRect>
  /* Infinite loop */
  /* USER CODE BEGIN WHILE */
  while (1)
  {

	  if(HAL_GetTick() - timestamp_one >= 3000){
 8002bc2:	f000 ffc1 	bl	8003b48 <HAL_GetTick>
 8002bc6:	4602      	mov	r2, r0
 8002bc8:	4b2c      	ldr	r3, [pc, #176]	; (8002c7c <main+0x120>)
 8002bca:	681b      	ldr	r3, [r3, #0]
 8002bcc:	1ad3      	subs	r3, r2, r3
 8002bce:	f640 32b7 	movw	r2, #2999	; 0xbb7
 8002bd2:	4293      	cmp	r3, r2
 8002bd4:	d908      	bls.n	8002be8 <main+0x8c>
		  timestamp_one = HAL_GetTick();
 8002bd6:	f000 ffb7 	bl	8003b48 <HAL_GetTick>
 8002bda:	4603      	mov	r3, r0
 8002bdc:	4a27      	ldr	r2, [pc, #156]	; (8002c7c <main+0x120>)
 8002bde:	6013      	str	r3, [r2, #0]
		  HAL_GPIO_TogglePin(LD2_GPIO_Port, LD2_Pin);
 8002be0:	2102      	movs	r1, #2
 8002be2:	4827      	ldr	r0, [pc, #156]	; (8002c80 <main+0x124>)
 8002be4:	f001 fab9 	bl	800415a <HAL_GPIO_TogglePin>
	  }


	  if(HAL_GetTick() - timestamp_two >= 20){
 8002be8:	f000 ffae 	bl	8003b48 <HAL_GetTick>
 8002bec:	4602      	mov	r2, r0
 8002bee:	4b25      	ldr	r3, [pc, #148]	; (8002c84 <main+0x128>)
 8002bf0:	681b      	ldr	r3, [r3, #0]
 8002bf2:	1ad3      	subs	r3, r2, r3
 8002bf4:	2b13      	cmp	r3, #19
 8002bf6:	d908      	bls.n	8002c0a <main+0xae>
		  timestamp_two = HAL_GetTick();
 8002bf8:	f000 ffa6 	bl	8003b48 <HAL_GetTick>
 8002bfc:	4603      	mov	r3, r0
 8002bfe:	4a21      	ldr	r2, [pc, #132]	; (8002c84 <main+0x128>)
 8002c00:	6013      	str	r3, [r2, #0]
		  HAL_GPIO_TogglePin(LD1_GPIO_Port, LD1_Pin);
 8002c02:	2101      	movs	r1, #1
 8002c04:	4820      	ldr	r0, [pc, #128]	; (8002c88 <main+0x12c>)
 8002c06:	f001 faa8 	bl	800415a <HAL_GPIO_TogglePin>
	  }

	  if(flag_blue == 4){
 8002c0a:	4b20      	ldr	r3, [pc, #128]	; (8002c8c <main+0x130>)
 8002c0c:	781b      	ldrb	r3, [r3, #0]
 8002c0e:	2b04      	cmp	r3, #4
 8002c10:	d10c      	bne.n	8002c2c <main+0xd0>
		  BSP_LCD_Clear(0xff00);
 8002c12:	f44f 407f 	mov.w	r0, #65280	; 0xff00
 8002c16:	f7ff feb3 	bl	8002980 <BSP_LCD_Clear>
		  BSP_LCD_DrawRect(50, 50, 50, 50);
 8002c1a:	2332      	movs	r3, #50	; 0x32
 8002c1c:	2232      	movs	r2, #50	; 0x32
 8002c1e:	2132      	movs	r1, #50	; 0x32
 8002c20:	2032      	movs	r0, #50	; 0x32
 8002c22:	f7ff ff5b 	bl	8002adc <BSP_LCD_DrawRect>
		  flag_blue = 0;
 8002c26:	4b19      	ldr	r3, [pc, #100]	; (8002c8c <main+0x130>)
 8002c28:	2200      	movs	r2, #0
 8002c2a:	701a      	strb	r2, [r3, #0]
	  }

	  if(flag_blue == 3){
 8002c2c:	4b17      	ldr	r3, [pc, #92]	; (8002c8c <main+0x130>)
 8002c2e:	781b      	ldrb	r3, [r3, #0]
 8002c30:	2b03      	cmp	r3, #3
 8002c32:	f040 8145 	bne.w	8002ec0 <main+0x364>
	  		  ili9486_FillRect(0, 0, 480, 320, 0x0000);
 8002c36:	2300      	movs	r3, #0
 8002c38:	9300      	str	r3, [sp, #0]
 8002c3a:	f44f 73a0 	mov.w	r3, #320	; 0x140
 8002c3e:	f44f 72f0 	mov.w	r2, #480	; 0x1e0
 8002c42:	2100      	movs	r1, #0
 8002c44:	2000      	movs	r0, #0
 8002c46:	f7fd ff85 	bl	8000b54 <ili9486_FillRect>
	  		  ili9486_DrawRGBImage(50, 100, 128, 128, (uint16_t*)image_data_ImageoftestN2);
 8002c4a:	4b11      	ldr	r3, [pc, #68]	; (8002c90 <main+0x134>)
 8002c4c:	9300      	str	r3, [sp, #0]
 8002c4e:	2380      	movs	r3, #128	; 0x80
 8002c50:	2280      	movs	r2, #128	; 0x80
 8002c52:	2164      	movs	r1, #100	; 0x64
 8002c54:	2032      	movs	r0, #50	; 0x32
 8002c56:	f7fe f83f 	bl	8000cd8 <ili9486_DrawRGBImage>
	  		  ili9486_DrawRGBImage(300, 100, 128, 90, (uint16_t*)image_data_owlflood);
 8002c5a:	4b0e      	ldr	r3, [pc, #56]	; (8002c94 <main+0x138>)
 8002c5c:	9300      	str	r3, [sp, #0]
 8002c5e:	235a      	movs	r3, #90	; 0x5a
 8002c60:	2280      	movs	r2, #128	; 0x80
 8002c62:	2164      	movs	r1, #100	; 0x64
 8002c64:	f44f 7096 	mov.w	r0, #300	; 0x12c
 8002c68:	f7fe f836 	bl	8000cd8 <ili9486_DrawRGBImage>


	  		  for(int i = 0; i < 40; i = i + 2){
 8002c6c:	2300      	movs	r3, #0
 8002c6e:	617b      	str	r3, [r7, #20]
 8002c70:	e025      	b.n	8002cbe <main+0x162>
	  			  for(int j = 0; j < 60; j = j + 4)
 8002c72:	2300      	movs	r3, #0
 8002c74:	613b      	str	r3, [r7, #16]
 8002c76:	e01c      	b.n	8002cb2 <main+0x156>
 8002c78:	24000198 	.word	0x24000198
 8002c7c:	240001d0 	.word	0x240001d0
 8002c80:	58021000 	.word	0x58021000
 8002c84:	240001d4 	.word	0x240001d4
 8002c88:	58020400 	.word	0x58020400
 8002c8c:	240001a3 	.word	0x240001a3
 8002c90:	0800be8c 	.word	0x0800be8c
 8002c94:	08013e8c 	.word	0x08013e8c
	  			ili9486_WritePixel(210 + i, 80 + j, cl_GREEN);
 8002c98:	697b      	ldr	r3, [r7, #20]
 8002c9a:	f103 00d2 	add.w	r0, r3, #210	; 0xd2
 8002c9e:	693b      	ldr	r3, [r7, #16]
 8002ca0:	3350      	adds	r3, #80	; 0x50
 8002ca2:	f44f 62fc 	mov.w	r2, #2016	; 0x7e0
 8002ca6:	4619      	mov	r1, r3
 8002ca8:	f7fd fd9c 	bl	80007e4 <ili9486_WritePixel>
	  			  for(int j = 0; j < 60; j = j + 4)
 8002cac:	693b      	ldr	r3, [r7, #16]
 8002cae:	3304      	adds	r3, #4
 8002cb0:	613b      	str	r3, [r7, #16]
 8002cb2:	693b      	ldr	r3, [r7, #16]
 8002cb4:	2b3b      	cmp	r3, #59	; 0x3b
 8002cb6:	ddef      	ble.n	8002c98 <main+0x13c>
	  		  for(int i = 0; i < 40; i = i + 2){
 8002cb8:	697b      	ldr	r3, [r7, #20]
 8002cba:	3302      	adds	r3, #2
 8002cbc:	617b      	str	r3, [r7, #20]
 8002cbe:	697b      	ldr	r3, [r7, #20]
 8002cc0:	2b27      	cmp	r3, #39	; 0x27
 8002cc2:	ddd6      	ble.n	8002c72 <main+0x116>
	  		  }

	  		  ili9486_WriteChar(20, 50, "E", Font8, cl_RED, cl_GREEN);
 8002cc4:	4bab      	ldr	r3, [pc, #684]	; (8002f74 <main+0x418>)
 8002cc6:	f44f 62fc 	mov.w	r2, #2016	; 0x7e0
 8002cca:	9202      	str	r2, [sp, #8]
 8002ccc:	f44f 4278 	mov.w	r2, #63488	; 0xf800
 8002cd0:	9201      	str	r2, [sp, #4]
 8002cd2:	685a      	ldr	r2, [r3, #4]
 8002cd4:	9200      	str	r2, [sp, #0]
 8002cd6:	681b      	ldr	r3, [r3, #0]
 8002cd8:	4aa7      	ldr	r2, [pc, #668]	; (8002f78 <main+0x41c>)
 8002cda:	2132      	movs	r1, #50	; 0x32
 8002cdc:	2014      	movs	r0, #20
 8002cde:	f7fe f84f 	bl	8000d80 <ili9486_WriteChar>
			  ili9486_WriteChar(50, 50, "E", Font12, cl_WHITE, cl_BLACK);
 8002ce2:	4ba6      	ldr	r3, [pc, #664]	; (8002f7c <main+0x420>)
 8002ce4:	2200      	movs	r2, #0
 8002ce6:	9202      	str	r2, [sp, #8]
 8002ce8:	f64f 72ff 	movw	r2, #65535	; 0xffff
 8002cec:	9201      	str	r2, [sp, #4]
 8002cee:	685a      	ldr	r2, [r3, #4]
 8002cf0:	9200      	str	r2, [sp, #0]
 8002cf2:	681b      	ldr	r3, [r3, #0]
 8002cf4:	4aa0      	ldr	r2, [pc, #640]	; (8002f78 <main+0x41c>)
 8002cf6:	2132      	movs	r1, #50	; 0x32
 8002cf8:	2032      	movs	r0, #50	; 0x32
 8002cfa:	f7fe f841 	bl	8000d80 <ili9486_WriteChar>
			  ili9486_WriteChar(80, 50, "E", Font16, cl_BLUE, cl_CYAN);
 8002cfe:	4ba0      	ldr	r3, [pc, #640]	; (8002f80 <main+0x424>)
 8002d00:	f240 72ff 	movw	r2, #2047	; 0x7ff
 8002d04:	9202      	str	r2, [sp, #8]
 8002d06:	221f      	movs	r2, #31
 8002d08:	9201      	str	r2, [sp, #4]
 8002d0a:	685a      	ldr	r2, [r3, #4]
 8002d0c:	9200      	str	r2, [sp, #0]
 8002d0e:	681b      	ldr	r3, [r3, #0]
 8002d10:	4a99      	ldr	r2, [pc, #612]	; (8002f78 <main+0x41c>)
 8002d12:	2132      	movs	r1, #50	; 0x32
 8002d14:	2050      	movs	r0, #80	; 0x50
 8002d16:	f7fe f833 	bl	8000d80 <ili9486_WriteChar>
			  ili9486_WriteChar(110, 50, "E", Font20, cl_WHITE, cl_RED);
 8002d1a:	4b9a      	ldr	r3, [pc, #616]	; (8002f84 <main+0x428>)
 8002d1c:	f44f 4278 	mov.w	r2, #63488	; 0xf800
 8002d20:	9202      	str	r2, [sp, #8]
 8002d22:	f64f 72ff 	movw	r2, #65535	; 0xffff
 8002d26:	9201      	str	r2, [sp, #4]
 8002d28:	685a      	ldr	r2, [r3, #4]
 8002d2a:	9200      	str	r2, [sp, #0]
 8002d2c:	681b      	ldr	r3, [r3, #0]
 8002d2e:	4a92      	ldr	r2, [pc, #584]	; (8002f78 <main+0x41c>)
 8002d30:	2132      	movs	r1, #50	; 0x32
 8002d32:	206e      	movs	r0, #110	; 0x6e
 8002d34:	f7fe f824 	bl	8000d80 <ili9486_WriteChar>
			  ili9486_WriteChar(140, 50, "E", Font24, cl_ORANGE, cl_BLACK);
 8002d38:	4b93      	ldr	r3, [pc, #588]	; (8002f88 <main+0x42c>)
 8002d3a:	2200      	movs	r2, #0
 8002d3c:	9202      	str	r2, [sp, #8]
 8002d3e:	f64f 5220 	movw	r2, #64800	; 0xfd20
 8002d42:	9201      	str	r2, [sp, #4]
 8002d44:	685a      	ldr	r2, [r3, #4]
 8002d46:	9200      	str	r2, [sp, #0]
 8002d48:	681b      	ldr	r3, [r3, #0]
 8002d4a:	4a8b      	ldr	r2, [pc, #556]	; (8002f78 <main+0x41c>)
 8002d4c:	2132      	movs	r1, #50	; 0x32
 8002d4e:	208c      	movs	r0, #140	; 0x8c
 8002d50:	f7fe f816 	bl	8000d80 <ili9486_WriteChar>

			  //ili9486_FillRect(198, 30, 2, 30, cl_YELLOW);
			  ili9486_DrawVLine(cl_YELLOW, 200, 40, 24);
 8002d54:	2318      	movs	r3, #24
 8002d56:	2228      	movs	r2, #40	; 0x28
 8002d58:	21c8      	movs	r1, #200	; 0xc8
 8002d5a:	f64f 70e0 	movw	r0, #65504	; 0xffe0
 8002d5e:	f7fd fea2 	bl	8000aa6 <ili9486_DrawVLine>
			  ili9486_DrawVLine(cl_YELLOW, 225, 40, 24);
 8002d62:	2318      	movs	r3, #24
 8002d64:	2228      	movs	r2, #40	; 0x28
 8002d66:	21e1      	movs	r1, #225	; 0xe1
 8002d68:	f64f 70e0 	movw	r0, #65504	; 0xffe0
 8002d6c:	f7fd fe9b 	bl	8000aa6 <ili9486_DrawVLine>
			  //// Font24 @2664 E
			  ili_fonttest(200, 40, "A", Font24, cl_WHITE);
 8002d70:	4b85      	ldr	r3, [pc, #532]	; (8002f88 <main+0x42c>)
 8002d72:	f64f 72ff 	movw	r2, #65535	; 0xffff
 8002d76:	9201      	str	r2, [sp, #4]
 8002d78:	685a      	ldr	r2, [r3, #4]
 8002d7a:	9200      	str	r2, [sp, #0]
 8002d7c:	681b      	ldr	r3, [r3, #0]
 8002d7e:	4a83      	ldr	r2, [pc, #524]	; (8002f8c <main+0x430>)
 8002d80:	2128      	movs	r1, #40	; 0x28
 8002d82:	20c8      	movs	r0, #200	; 0xc8
 8002d84:	f000 fb7c 	bl	8003480 <ili_fonttest>
			  ili_fonttest(225, 40, "B", Font24, cl_WHITE);
 8002d88:	4b7f      	ldr	r3, [pc, #508]	; (8002f88 <main+0x42c>)
 8002d8a:	f64f 72ff 	movw	r2, #65535	; 0xffff
 8002d8e:	9201      	str	r2, [sp, #4]
 8002d90:	685a      	ldr	r2, [r3, #4]
 8002d92:	9200      	str	r2, [sp, #0]
 8002d94:	681b      	ldr	r3, [r3, #0]
 8002d96:	4a7e      	ldr	r2, [pc, #504]	; (8002f90 <main+0x434>)
 8002d98:	2128      	movs	r1, #40	; 0x28
 8002d9a:	20e1      	movs	r0, #225	; 0xe1
 8002d9c:	f000 fb70 	bl	8003480 <ili_fonttest>
			  ili_fonttest(250, 40, "C", Font24, cl_WHITE);
 8002da0:	4b79      	ldr	r3, [pc, #484]	; (8002f88 <main+0x42c>)
 8002da2:	f64f 72ff 	movw	r2, #65535	; 0xffff
 8002da6:	9201      	str	r2, [sp, #4]
 8002da8:	685a      	ldr	r2, [r3, #4]
 8002daa:	9200      	str	r2, [sp, #0]
 8002dac:	681b      	ldr	r3, [r3, #0]
 8002dae:	4a79      	ldr	r2, [pc, #484]	; (8002f94 <main+0x438>)
 8002db0:	2128      	movs	r1, #40	; 0x28
 8002db2:	20fa      	movs	r0, #250	; 0xfa
 8002db4:	f000 fb64 	bl	8003480 <ili_fonttest>
			  ili_fonttest(275, 40, "D", Font24, cl_WHITE);
 8002db8:	4b73      	ldr	r3, [pc, #460]	; (8002f88 <main+0x42c>)
 8002dba:	f64f 72ff 	movw	r2, #65535	; 0xffff
 8002dbe:	9201      	str	r2, [sp, #4]
 8002dc0:	685a      	ldr	r2, [r3, #4]
 8002dc2:	9200      	str	r2, [sp, #0]
 8002dc4:	681b      	ldr	r3, [r3, #0]
 8002dc6:	4a74      	ldr	r2, [pc, #464]	; (8002f98 <main+0x43c>)
 8002dc8:	2128      	movs	r1, #40	; 0x28
 8002dca:	f240 1013 	movw	r0, #275	; 0x113
 8002dce:	f000 fb57 	bl	8003480 <ili_fonttest>

			  ili_fonttest(300, 40, "A", Font8, cl_WHITE);
 8002dd2:	4b68      	ldr	r3, [pc, #416]	; (8002f74 <main+0x418>)
 8002dd4:	f64f 72ff 	movw	r2, #65535	; 0xffff
 8002dd8:	9201      	str	r2, [sp, #4]
 8002dda:	685a      	ldr	r2, [r3, #4]
 8002ddc:	9200      	str	r2, [sp, #0]
 8002dde:	681b      	ldr	r3, [r3, #0]
 8002de0:	4a6a      	ldr	r2, [pc, #424]	; (8002f8c <main+0x430>)
 8002de2:	2128      	movs	r1, #40	; 0x28
 8002de4:	f44f 7096 	mov.w	r0, #300	; 0x12c
 8002de8:	f000 fb4a 	bl	8003480 <ili_fonttest>
			  ili_fonttest(325, 40, "B", Font12, cl_WHITE);
 8002dec:	4b63      	ldr	r3, [pc, #396]	; (8002f7c <main+0x420>)
 8002dee:	f64f 72ff 	movw	r2, #65535	; 0xffff
 8002df2:	9201      	str	r2, [sp, #4]
 8002df4:	685a      	ldr	r2, [r3, #4]
 8002df6:	9200      	str	r2, [sp, #0]
 8002df8:	681b      	ldr	r3, [r3, #0]
 8002dfa:	4a65      	ldr	r2, [pc, #404]	; (8002f90 <main+0x434>)
 8002dfc:	2128      	movs	r1, #40	; 0x28
 8002dfe:	f240 1045 	movw	r0, #325	; 0x145
 8002e02:	f000 fb3d 	bl	8003480 <ili_fonttest>
			  ili_fonttest(350, 40, "C", Font16, cl_WHITE);
 8002e06:	4b5e      	ldr	r3, [pc, #376]	; (8002f80 <main+0x424>)
 8002e08:	f64f 72ff 	movw	r2, #65535	; 0xffff
 8002e0c:	9201      	str	r2, [sp, #4]
 8002e0e:	685a      	ldr	r2, [r3, #4]
 8002e10:	9200      	str	r2, [sp, #0]
 8002e12:	681b      	ldr	r3, [r3, #0]
 8002e14:	4a5f      	ldr	r2, [pc, #380]	; (8002f94 <main+0x438>)
 8002e16:	2128      	movs	r1, #40	; 0x28
 8002e18:	f44f 70af 	mov.w	r0, #350	; 0x15e
 8002e1c:	f000 fb30 	bl	8003480 <ili_fonttest>
			  ili_fonttest(375, 40, "D", Font20, cl_WHITE);
 8002e20:	4b58      	ldr	r3, [pc, #352]	; (8002f84 <main+0x428>)
 8002e22:	f64f 72ff 	movw	r2, #65535	; 0xffff
 8002e26:	9201      	str	r2, [sp, #4]
 8002e28:	685a      	ldr	r2, [r3, #4]
 8002e2a:	9200      	str	r2, [sp, #0]
 8002e2c:	681b      	ldr	r3, [r3, #0]
 8002e2e:	4a5a      	ldr	r2, [pc, #360]	; (8002f98 <main+0x43c>)
 8002e30:	2128      	movs	r1, #40	; 0x28
 8002e32:	f240 1077 	movw	r0, #375	; 0x177
 8002e36:	f000 fb23 	bl	8003480 <ili_fonttest>

			  ili9486_WriteString(20, 300, "KaleAR Terra", Font20, cl_WHITE, cl_BLACK);
 8002e3a:	4b52      	ldr	r3, [pc, #328]	; (8002f84 <main+0x428>)
 8002e3c:	2200      	movs	r2, #0
 8002e3e:	9202      	str	r2, [sp, #8]
 8002e40:	f64f 72ff 	movw	r2, #65535	; 0xffff
 8002e44:	9201      	str	r2, [sp, #4]
 8002e46:	685a      	ldr	r2, [r3, #4]
 8002e48:	9200      	str	r2, [sp, #0]
 8002e4a:	681b      	ldr	r3, [r3, #0]
 8002e4c:	4a53      	ldr	r2, [pc, #332]	; (8002f9c <main+0x440>)
 8002e4e:	f44f 7196 	mov.w	r1, #300	; 0x12c
 8002e52:	2014      	movs	r0, #20
 8002e54:	f7fe f82e 	bl	8000eb4 <ili9486_WriteString>
			  ili_texttest(200, 200, "Helios Terra Renai Kaliber Barx Maxon 129035"
 8002e58:	4b4a      	ldr	r3, [pc, #296]	; (8002f84 <main+0x428>)
 8002e5a:	2200      	movs	r2, #0
 8002e5c:	9202      	str	r2, [sp, #8]
 8002e5e:	f44f 62fc 	mov.w	r2, #2016	; 0x7e0
 8002e62:	9201      	str	r2, [sp, #4]
 8002e64:	685a      	ldr	r2, [r3, #4]
 8002e66:	9200      	str	r2, [sp, #0]
 8002e68:	681b      	ldr	r3, [r3, #0]
 8002e6a:	4a4d      	ldr	r2, [pc, #308]	; (8002fa0 <main+0x444>)
 8002e6c:	21c8      	movs	r1, #200	; 0xc8
 8002e6e:	20c8      	movs	r0, #200	; 0xc8
 8002e70:	f000 fbb6 	bl	80035e0 <ili_texttest>
					  " __ --== + &&6.. [ ggg ]??? Rhivalia DIAR Barvarrian"
					  " vicar nexus iICCTVS \ / %%% $ *(!@#$%^&*)_{} "
					  , Font20, cl_GREEN, cl_BLACK);
			  char* aa = "A";
 8002e74:	4b45      	ldr	r3, [pc, #276]	; (8002f8c <main+0x430>)
 8002e76:	60fb      	str	r3, [r7, #12]
			  txtbuf[14] = *aa;
 8002e78:	68fb      	ldr	r3, [r7, #12]
 8002e7a:	781a      	ldrb	r2, [r3, #0]
 8002e7c:	4b49      	ldr	r3, [pc, #292]	; (8002fa4 <main+0x448>)
 8002e7e:	739a      	strb	r2, [r3, #14]

			  ili_fonttest(400, 30, aa, Font24, cl_WHITE); // A  <- output
 8002e80:	4b41      	ldr	r3, [pc, #260]	; (8002f88 <main+0x42c>)
 8002e82:	f64f 72ff 	movw	r2, #65535	; 0xffff
 8002e86:	9201      	str	r2, [sp, #4]
 8002e88:	685a      	ldr	r2, [r3, #4]
 8002e8a:	9200      	str	r2, [sp, #0]
 8002e8c:	681b      	ldr	r3, [r3, #0]
 8002e8e:	68fa      	ldr	r2, [r7, #12]
 8002e90:	211e      	movs	r1, #30
 8002e92:	f44f 70c8 	mov.w	r0, #400	; 0x190
 8002e96:	f000 faf3 	bl	8003480 <ili_fonttest>
			  ili_fonttest(420, 30, *aa, Font24, cl_WHITE); // N  <- output
 8002e9a:	68fb      	ldr	r3, [r7, #12]
 8002e9c:	781b      	ldrb	r3, [r3, #0]
 8002e9e:	4619      	mov	r1, r3
 8002ea0:	4b39      	ldr	r3, [pc, #228]	; (8002f88 <main+0x42c>)
 8002ea2:	f64f 72ff 	movw	r2, #65535	; 0xffff
 8002ea6:	9201      	str	r2, [sp, #4]
 8002ea8:	685a      	ldr	r2, [r3, #4]
 8002eaa:	9200      	str	r2, [sp, #0]
 8002eac:	681b      	ldr	r3, [r3, #0]
 8002eae:	460a      	mov	r2, r1
 8002eb0:	211e      	movs	r1, #30
 8002eb2:	f44f 70d2 	mov.w	r0, #420	; 0x1a4
 8002eb6:	f000 fae3 	bl	8003480 <ili_fonttest>

	  		  flag_blue = 0; // comment this to forever loop
 8002eba:	4b3b      	ldr	r3, [pc, #236]	; (8002fa8 <main+0x44c>)
 8002ebc:	2200      	movs	r2, #0
 8002ebe:	701a      	strb	r2, [r3, #0]
	  	  }

	  if(flag_blue == 1){
 8002ec0:	4b39      	ldr	r3, [pc, #228]	; (8002fa8 <main+0x44c>)
 8002ec2:	781b      	ldrb	r3, [r3, #0]
 8002ec4:	2b01      	cmp	r3, #1
 8002ec6:	d104      	bne.n	8002ed2 <main+0x376>
		  ili_screen_1();
 8002ec8:	f000 fa88 	bl	80033dc <ili_screen_1>
		  flag_blue = 0;
 8002ecc:	4b36      	ldr	r3, [pc, #216]	; (8002fa8 <main+0x44c>)
 8002ece:	2200      	movs	r2, #0
 8002ed0:	701a      	strb	r2, [r3, #0]

	  }

	  if(flag_blue == 2){
 8002ed2:	4b35      	ldr	r3, [pc, #212]	; (8002fa8 <main+0x44c>)
 8002ed4:	781b      	ldrb	r3, [r3, #0]
 8002ed6:	2b02      	cmp	r3, #2
 8002ed8:	f47f ae73 	bne.w	8002bc2 <main+0x66>
		  //// Running Box ////
		  if(ff == 1){
 8002edc:	4b33      	ldr	r3, [pc, #204]	; (8002fac <main+0x450>)
 8002ede:	781b      	ldrb	r3, [r3, #0]
 8002ee0:	2b01      	cmp	r3, #1
 8002ee2:	d10d      	bne.n	8002f00 <main+0x3a4>
			  ili9486_FillRect(0, 0, 480, 320, 0xF792); // screen
 8002ee4:	f24f 7392 	movw	r3, #63378	; 0xf792
 8002ee8:	9300      	str	r3, [sp, #0]
 8002eea:	f44f 73a0 	mov.w	r3, #320	; 0x140
 8002eee:	f44f 72f0 	mov.w	r2, #480	; 0x1e0
 8002ef2:	2100      	movs	r1, #0
 8002ef4:	2000      	movs	r0, #0
 8002ef6:	f7fd fe2d 	bl	8000b54 <ili9486_FillRect>
			  ff = 0;
 8002efa:	4b2c      	ldr	r3, [pc, #176]	; (8002fac <main+0x450>)
 8002efc:	2200      	movs	r2, #0
 8002efe:	701a      	strb	r2, [r3, #0]
		  }
		  int ratte = 1;
 8002f00:	2301      	movs	r3, #1
 8002f02:	60bb      	str	r3, [r7, #8]
		  int sizo = 30;
 8002f04:	231e      	movs	r3, #30
 8002f06:	607b      	str	r3, [r7, #4]
		  int offs = 140;
 8002f08:	238c      	movs	r3, #140	; 0x8c
 8002f0a:	603b      	str	r3, [r7, #0]
		  static uint16_t xsh = 0;
		  ili9486_FillRect(xsh, offs, ratte ,sizo, 0xF792);
 8002f0c:	4b28      	ldr	r3, [pc, #160]	; (8002fb0 <main+0x454>)
 8002f0e:	881b      	ldrh	r3, [r3, #0]
 8002f10:	4618      	mov	r0, r3
 8002f12:	f24f 7392 	movw	r3, #63378	; 0xf792
 8002f16:	9300      	str	r3, [sp, #0]
 8002f18:	687b      	ldr	r3, [r7, #4]
 8002f1a:	68ba      	ldr	r2, [r7, #8]
 8002f1c:	6839      	ldr	r1, [r7, #0]
 8002f1e:	f7fd fe19 	bl	8000b54 <ili9486_FillRect>
		  xsh += ratte;
 8002f22:	68bb      	ldr	r3, [r7, #8]
 8002f24:	b29a      	uxth	r2, r3
 8002f26:	4b22      	ldr	r3, [pc, #136]	; (8002fb0 <main+0x454>)
 8002f28:	881b      	ldrh	r3, [r3, #0]
 8002f2a:	4413      	add	r3, r2
 8002f2c:	b29a      	uxth	r2, r3
 8002f2e:	4b20      	ldr	r3, [pc, #128]	; (8002fb0 <main+0x454>)
 8002f30:	801a      	strh	r2, [r3, #0]
		  ili9486_FillRect(xsh, offs, sizo, sizo, 0x0410); //// box
 8002f32:	4b1f      	ldr	r3, [pc, #124]	; (8002fb0 <main+0x454>)
 8002f34:	881b      	ldrh	r3, [r3, #0]
 8002f36:	4618      	mov	r0, r3
 8002f38:	f44f 6382 	mov.w	r3, #1040	; 0x410
 8002f3c:	9300      	str	r3, [sp, #0]
 8002f3e:	687b      	ldr	r3, [r7, #4]
 8002f40:	687a      	ldr	r2, [r7, #4]
 8002f42:	6839      	ldr	r1, [r7, #0]
 8002f44:	f7fd fe06 	bl	8000b54 <ili9486_FillRect>
		  if(xsh >= 480){ // clear
 8002f48:	4b19      	ldr	r3, [pc, #100]	; (8002fb0 <main+0x454>)
 8002f4a:	881b      	ldrh	r3, [r3, #0]
 8002f4c:	f5b3 7ff0 	cmp.w	r3, #480	; 0x1e0
 8002f50:	f4ff ae37 	bcc.w	8002bc2 <main+0x66>
			  ili9486_FillRect(xsh, offs, sizo, sizo, 0xF792);
 8002f54:	4b16      	ldr	r3, [pc, #88]	; (8002fb0 <main+0x454>)
 8002f56:	881b      	ldrh	r3, [r3, #0]
 8002f58:	4618      	mov	r0, r3
 8002f5a:	f24f 7392 	movw	r3, #63378	; 0xf792
 8002f5e:	9300      	str	r3, [sp, #0]
 8002f60:	687b      	ldr	r3, [r7, #4]
 8002f62:	687a      	ldr	r2, [r7, #4]
 8002f64:	6839      	ldr	r1, [r7, #0]
 8002f66:	f7fd fdf5 	bl	8000b54 <ili9486_FillRect>
			  xsh = 0;
 8002f6a:	4b11      	ldr	r3, [pc, #68]	; (8002fb0 <main+0x454>)
 8002f6c:	2200      	movs	r2, #0
 8002f6e:	801a      	strh	r2, [r3, #0]
	  if(HAL_GetTick() - timestamp_one >= 3000){
 8002f70:	e627      	b.n	8002bc2 <main+0x66>
 8002f72:	bf00      	nop
 8002f74:	24000020 	.word	0x24000020
 8002f78:	080080b4 	.word	0x080080b4
 8002f7c:	24000000 	.word	0x24000000
 8002f80:	24000008 	.word	0x24000008
 8002f84:	24000010 	.word	0x24000010
 8002f88:	24000018 	.word	0x24000018
 8002f8c:	080080b8 	.word	0x080080b8
 8002f90:	080080bc 	.word	0x080080bc
 8002f94:	080080c0 	.word	0x080080c0
 8002f98:	080080c4 	.word	0x080080c4
 8002f9c:	080080c8 	.word	0x080080c8
 8002fa0:	080080d8 	.word	0x080080d8
 8002fa4:	240001bc 	.word	0x240001bc
 8002fa8:	240001a3 	.word	0x240001a3
 8002fac:	240001a4 	.word	0x240001a4
 8002fb0:	240001e0 	.word	0x240001e0

08002fb4 <SystemClock_Config>:
/**
  * @brief System Clock Configuration
  * @retval None
  */
void SystemClock_Config(void)
{
 8002fb4:	b580      	push	{r7, lr}
 8002fb6:	b09c      	sub	sp, #112	; 0x70
 8002fb8:	af00      	add	r7, sp, #0
  RCC_OscInitTypeDef RCC_OscInitStruct = {0};
 8002fba:	f107 0324 	add.w	r3, r7, #36	; 0x24
 8002fbe:	224c      	movs	r2, #76	; 0x4c
 8002fc0:	2100      	movs	r1, #0
 8002fc2:	4618      	mov	r0, r3
 8002fc4:	f005 f804 	bl	8007fd0 <memset>
  RCC_ClkInitTypeDef RCC_ClkInitStruct = {0};
 8002fc8:	1d3b      	adds	r3, r7, #4
 8002fca:	2220      	movs	r2, #32
 8002fcc:	2100      	movs	r1, #0
 8002fce:	4618      	mov	r0, r3
 8002fd0:	f004 fffe 	bl	8007fd0 <memset>

  /*AXI clock gating */
  RCC->CKGAENR = 0xFFFFFFFF;
 8002fd4:	4b30      	ldr	r3, [pc, #192]	; (8003098 <SystemClock_Config+0xe4>)
 8002fd6:	f04f 32ff 	mov.w	r2, #4294967295
 8002fda:	f8c3 20b0 	str.w	r2, [r3, #176]	; 0xb0

  /** Supply configuration update enable
  */
  HAL_PWREx_ConfigSupply(PWR_DIRECT_SMPS_SUPPLY);
 8002fde:	2004      	movs	r0, #4
 8002fe0:	f001 f8f0 	bl	80041c4 <HAL_PWREx_ConfigSupply>

  /** Configure the main internal regulator output voltage
  */
  __HAL_PWR_VOLTAGESCALING_CONFIG(PWR_REGULATOR_VOLTAGE_SCALE0);
 8002fe4:	2300      	movs	r3, #0
 8002fe6:	603b      	str	r3, [r7, #0]
 8002fe8:	4b2c      	ldr	r3, [pc, #176]	; (800309c <SystemClock_Config+0xe8>)
 8002fea:	699b      	ldr	r3, [r3, #24]
 8002fec:	4a2b      	ldr	r2, [pc, #172]	; (800309c <SystemClock_Config+0xe8>)
 8002fee:	f443 4340 	orr.w	r3, r3, #49152	; 0xc000
 8002ff2:	6193      	str	r3, [r2, #24]
 8002ff4:	4b29      	ldr	r3, [pc, #164]	; (800309c <SystemClock_Config+0xe8>)
 8002ff6:	699b      	ldr	r3, [r3, #24]
 8002ff8:	f403 4340 	and.w	r3, r3, #49152	; 0xc000
 8002ffc:	603b      	str	r3, [r7, #0]
 8002ffe:	683b      	ldr	r3, [r7, #0]

  while(!__HAL_PWR_GET_FLAG(PWR_FLAG_VOSRDY)) {}
 8003000:	bf00      	nop
 8003002:	4b26      	ldr	r3, [pc, #152]	; (800309c <SystemClock_Config+0xe8>)
 8003004:	699b      	ldr	r3, [r3, #24]
 8003006:	f403 5300 	and.w	r3, r3, #8192	; 0x2000
 800300a:	f5b3 5f00 	cmp.w	r3, #8192	; 0x2000
 800300e:	d1f8      	bne.n	8003002 <SystemClock_Config+0x4e>

  /** Initializes the RCC Oscillators according to the specified parameters
  * in the RCC_OscInitTypeDef structure.
  */
  RCC_OscInitStruct.OscillatorType = RCC_OSCILLATORTYPE_HSI48|RCC_OSCILLATORTYPE_HSE;
 8003010:	2321      	movs	r3, #33	; 0x21
 8003012:	627b      	str	r3, [r7, #36]	; 0x24
  RCC_OscInitStruct.HSEState = RCC_HSE_BYPASS;
 8003014:	f44f 23a0 	mov.w	r3, #327680	; 0x50000
 8003018:	62bb      	str	r3, [r7, #40]	; 0x28
  RCC_OscInitStruct.HSI48State = RCC_HSI48_ON;
 800301a:	2301      	movs	r3, #1
 800301c:	63fb      	str	r3, [r7, #60]	; 0x3c
  RCC_OscInitStruct.PLL.PLLState = RCC_PLL_ON;
 800301e:	2302      	movs	r3, #2
 8003020:	64bb      	str	r3, [r7, #72]	; 0x48
  RCC_OscInitStruct.PLL.PLLSource = RCC_PLLSOURCE_HSE;
 8003022:	2302      	movs	r3, #2
 8003024:	64fb      	str	r3, [r7, #76]	; 0x4c
  RCC_OscInitStruct.PLL.PLLM = 1;
 8003026:	2301      	movs	r3, #1
 8003028:	653b      	str	r3, [r7, #80]	; 0x50
  RCC_OscInitStruct.PLL.PLLN = 70;
 800302a:	2346      	movs	r3, #70	; 0x46
 800302c:	657b      	str	r3, [r7, #84]	; 0x54
  RCC_OscInitStruct.PLL.PLLP = 2;
 800302e:	2302      	movs	r3, #2
 8003030:	65bb      	str	r3, [r7, #88]	; 0x58
  RCC_OscInitStruct.PLL.PLLQ = 4;
 8003032:	2304      	movs	r3, #4
 8003034:	65fb      	str	r3, [r7, #92]	; 0x5c
  RCC_OscInitStruct.PLL.PLLR = 2;
 8003036:	2302      	movs	r3, #2
 8003038:	663b      	str	r3, [r7, #96]	; 0x60
  RCC_OscInitStruct.PLL.PLLRGE = RCC_PLL1VCIRANGE_3;
 800303a:	230c      	movs	r3, #12
 800303c:	667b      	str	r3, [r7, #100]	; 0x64
  RCC_OscInitStruct.PLL.PLLVCOSEL = RCC_PLL1VCOWIDE;
 800303e:	2300      	movs	r3, #0
 8003040:	66bb      	str	r3, [r7, #104]	; 0x68
  RCC_OscInitStruct.PLL.PLLFRACN = 0;
 8003042:	2300      	movs	r3, #0
 8003044:	66fb      	str	r3, [r7, #108]	; 0x6c
  if (HAL_RCC_OscConfig(&RCC_OscInitStruct) != HAL_OK)
 8003046:	f107 0324 	add.w	r3, r7, #36	; 0x24
 800304a:	4618      	mov	r0, r3
 800304c:	f001 f914 	bl	8004278 <HAL_RCC_OscConfig>
 8003050:	4603      	mov	r3, r0
 8003052:	2b00      	cmp	r3, #0
 8003054:	d001      	beq.n	800305a <SystemClock_Config+0xa6>
  {
    Error_Handler();
 8003056:	f000 fb65 	bl	8003724 <Error_Handler>
  }

  /** Initializes the CPU, AHB and APB buses clocks
  */
  RCC_ClkInitStruct.ClockType = RCC_CLOCKTYPE_HCLK|RCC_CLOCKTYPE_SYSCLK
 800305a:	233f      	movs	r3, #63	; 0x3f
 800305c:	607b      	str	r3, [r7, #4]
                              |RCC_CLOCKTYPE_PCLK1|RCC_CLOCKTYPE_PCLK2
                              |RCC_CLOCKTYPE_D3PCLK1|RCC_CLOCKTYPE_D1PCLK1;
  RCC_ClkInitStruct.SYSCLKSource = RCC_SYSCLKSOURCE_PLLCLK;
 800305e:	2303      	movs	r3, #3
 8003060:	60bb      	str	r3, [r7, #8]
  RCC_ClkInitStruct.SYSCLKDivider = RCC_SYSCLK_DIV1;
 8003062:	2300      	movs	r3, #0
 8003064:	60fb      	str	r3, [r7, #12]
  RCC_ClkInitStruct.AHBCLKDivider = RCC_HCLK_DIV1;
 8003066:	2300      	movs	r3, #0
 8003068:	613b      	str	r3, [r7, #16]
  RCC_ClkInitStruct.APB3CLKDivider = RCC_APB3_DIV2;
 800306a:	2340      	movs	r3, #64	; 0x40
 800306c:	617b      	str	r3, [r7, #20]
  RCC_ClkInitStruct.APB1CLKDivider = RCC_APB1_DIV2;
 800306e:	2340      	movs	r3, #64	; 0x40
 8003070:	61bb      	str	r3, [r7, #24]
  RCC_ClkInitStruct.APB2CLKDivider = RCC_APB2_DIV2;
 8003072:	f44f 6380 	mov.w	r3, #1024	; 0x400
 8003076:	61fb      	str	r3, [r7, #28]
  RCC_ClkInitStruct.APB4CLKDivider = RCC_APB4_DIV2;
 8003078:	2340      	movs	r3, #64	; 0x40
 800307a:	623b      	str	r3, [r7, #32]

  if (HAL_RCC_ClockConfig(&RCC_ClkInitStruct, FLASH_LATENCY_7) != HAL_OK)
 800307c:	1d3b      	adds	r3, r7, #4
 800307e:	2107      	movs	r1, #7
 8003080:	4618      	mov	r0, r3
 8003082:	f001 fcfd 	bl	8004a80 <HAL_RCC_ClockConfig>
 8003086:	4603      	mov	r3, r0
 8003088:	2b00      	cmp	r3, #0
 800308a:	d001      	beq.n	8003090 <SystemClock_Config+0xdc>
  {
    Error_Handler();
 800308c:	f000 fb4a 	bl	8003724 <Error_Handler>
  }
}
 8003090:	bf00      	nop
 8003092:	3770      	adds	r7, #112	; 0x70
 8003094:	46bd      	mov	sp, r7
 8003096:	bd80      	pop	{r7, pc}
 8003098:	58024400 	.word	0x58024400
 800309c:	58024800 	.word	0x58024800

080030a0 <MX_TIM17_Init>:
  * @brief TIM17 Initialization Function
  * @param None
  * @retval None
  */
static void MX_TIM17_Init(void)
{
 80030a0:	b580      	push	{r7, lr}
 80030a2:	af00      	add	r7, sp, #0
  /* USER CODE END TIM17_Init 0 */

  /* USER CODE BEGIN TIM17_Init 1 */

  /* USER CODE END TIM17_Init 1 */
  htim17.Instance = TIM17;
 80030a4:	4b10      	ldr	r3, [pc, #64]	; (80030e8 <MX_TIM17_Init+0x48>)
 80030a6:	4a11      	ldr	r2, [pc, #68]	; (80030ec <MX_TIM17_Init+0x4c>)
 80030a8:	601a      	str	r2, [r3, #0]
  htim17.Init.Prescaler = 279;
 80030aa:	4b0f      	ldr	r3, [pc, #60]	; (80030e8 <MX_TIM17_Init+0x48>)
 80030ac:	f240 1217 	movw	r2, #279	; 0x117
 80030b0:	605a      	str	r2, [r3, #4]
  htim17.Init.CounterMode = TIM_COUNTERMODE_UP;
 80030b2:	4b0d      	ldr	r3, [pc, #52]	; (80030e8 <MX_TIM17_Init+0x48>)
 80030b4:	2200      	movs	r2, #0
 80030b6:	609a      	str	r2, [r3, #8]
  htim17.Init.Period = 65535;
 80030b8:	4b0b      	ldr	r3, [pc, #44]	; (80030e8 <MX_TIM17_Init+0x48>)
 80030ba:	f64f 72ff 	movw	r2, #65535	; 0xffff
 80030be:	60da      	str	r2, [r3, #12]
  htim17.Init.ClockDivision = TIM_CLOCKDIVISION_DIV1;
 80030c0:	4b09      	ldr	r3, [pc, #36]	; (80030e8 <MX_TIM17_Init+0x48>)
 80030c2:	2200      	movs	r2, #0
 80030c4:	611a      	str	r2, [r3, #16]
  htim17.Init.RepetitionCounter = 0;
 80030c6:	4b08      	ldr	r3, [pc, #32]	; (80030e8 <MX_TIM17_Init+0x48>)
 80030c8:	2200      	movs	r2, #0
 80030ca:	615a      	str	r2, [r3, #20]
  htim17.Init.AutoReloadPreload = TIM_AUTORELOAD_PRELOAD_DISABLE;
 80030cc:	4b06      	ldr	r3, [pc, #24]	; (80030e8 <MX_TIM17_Init+0x48>)
 80030ce:	2200      	movs	r2, #0
 80030d0:	619a      	str	r2, [r3, #24]
  if (HAL_TIM_Base_Init(&htim17) != HAL_OK)
 80030d2:	4805      	ldr	r0, [pc, #20]	; (80030e8 <MX_TIM17_Init+0x48>)
 80030d4:	f003 fb8e 	bl	80067f4 <HAL_TIM_Base_Init>
 80030d8:	4603      	mov	r3, r0
 80030da:	2b00      	cmp	r3, #0
 80030dc:	d001      	beq.n	80030e2 <MX_TIM17_Init+0x42>
  {
    Error_Handler();
 80030de:	f000 fb21 	bl	8003724 <Error_Handler>
  }
  /* USER CODE BEGIN TIM17_Init 2 */

  /* USER CODE END TIM17_Init 2 */

}
 80030e2:	bf00      	nop
 80030e4:	bd80      	pop	{r7, pc}
 80030e6:	bf00      	nop
 80030e8:	240000bc 	.word	0x240000bc
 80030ec:	40014800 	.word	0x40014800

080030f0 <MX_USART3_UART_Init>:
  * @brief USART3 Initialization Function
  * @param None
  * @retval None
  */
static void MX_USART3_UART_Init(void)
{
 80030f0:	b580      	push	{r7, lr}
 80030f2:	af00      	add	r7, sp, #0
  /* USER CODE END USART3_Init 0 */

  /* USER CODE BEGIN USART3_Init 1 */

  /* USER CODE END USART3_Init 1 */
  huart3.Instance = USART3;
 80030f4:	4b22      	ldr	r3, [pc, #136]	; (8003180 <MX_USART3_UART_Init+0x90>)
 80030f6:	4a23      	ldr	r2, [pc, #140]	; (8003184 <MX_USART3_UART_Init+0x94>)
 80030f8:	601a      	str	r2, [r3, #0]
  huart3.Init.BaudRate = 115200;
 80030fa:	4b21      	ldr	r3, [pc, #132]	; (8003180 <MX_USART3_UART_Init+0x90>)
 80030fc:	f44f 32e1 	mov.w	r2, #115200	; 0x1c200
 8003100:	605a      	str	r2, [r3, #4]
  huart3.Init.WordLength = UART_WORDLENGTH_8B;
 8003102:	4b1f      	ldr	r3, [pc, #124]	; (8003180 <MX_USART3_UART_Init+0x90>)
 8003104:	2200      	movs	r2, #0
 8003106:	609a      	str	r2, [r3, #8]
  huart3.Init.StopBits = UART_STOPBITS_1;
 8003108:	4b1d      	ldr	r3, [pc, #116]	; (8003180 <MX_USART3_UART_Init+0x90>)
 800310a:	2200      	movs	r2, #0
 800310c:	60da      	str	r2, [r3, #12]
  huart3.Init.Parity = UART_PARITY_NONE;
 800310e:	4b1c      	ldr	r3, [pc, #112]	; (8003180 <MX_USART3_UART_Init+0x90>)
 8003110:	2200      	movs	r2, #0
 8003112:	611a      	str	r2, [r3, #16]
  huart3.Init.Mode = UART_MODE_TX_RX;
 8003114:	4b1a      	ldr	r3, [pc, #104]	; (8003180 <MX_USART3_UART_Init+0x90>)
 8003116:	220c      	movs	r2, #12
 8003118:	615a      	str	r2, [r3, #20]
  huart3.Init.HwFlowCtl = UART_HWCONTROL_NONE;
 800311a:	4b19      	ldr	r3, [pc, #100]	; (8003180 <MX_USART3_UART_Init+0x90>)
 800311c:	2200      	movs	r2, #0
 800311e:	619a      	str	r2, [r3, #24]
  huart3.Init.OverSampling = UART_OVERSAMPLING_16;
 8003120:	4b17      	ldr	r3, [pc, #92]	; (8003180 <MX_USART3_UART_Init+0x90>)
 8003122:	2200      	movs	r2, #0
 8003124:	61da      	str	r2, [r3, #28]
  huart3.Init.OneBitSampling = UART_ONE_BIT_SAMPLE_DISABLE;
 8003126:	4b16      	ldr	r3, [pc, #88]	; (8003180 <MX_USART3_UART_Init+0x90>)
 8003128:	2200      	movs	r2, #0
 800312a:	621a      	str	r2, [r3, #32]
  huart3.Init.ClockPrescaler = UART_PRESCALER_DIV1;
 800312c:	4b14      	ldr	r3, [pc, #80]	; (8003180 <MX_USART3_UART_Init+0x90>)
 800312e:	2200      	movs	r2, #0
 8003130:	625a      	str	r2, [r3, #36]	; 0x24
  huart3.AdvancedInit.AdvFeatureInit = UART_ADVFEATURE_NO_INIT;
 8003132:	4b13      	ldr	r3, [pc, #76]	; (8003180 <MX_USART3_UART_Init+0x90>)
 8003134:	2200      	movs	r2, #0
 8003136:	629a      	str	r2, [r3, #40]	; 0x28
  if (HAL_UART_Init(&huart3) != HAL_OK)
 8003138:	4811      	ldr	r0, [pc, #68]	; (8003180 <MX_USART3_UART_Init+0x90>)
 800313a:	f003 fdb1 	bl	8006ca0 <HAL_UART_Init>
 800313e:	4603      	mov	r3, r0
 8003140:	2b00      	cmp	r3, #0
 8003142:	d001      	beq.n	8003148 <MX_USART3_UART_Init+0x58>
  {
    Error_Handler();
 8003144:	f000 faee 	bl	8003724 <Error_Handler>
  }
  if (HAL_UARTEx_SetTxFifoThreshold(&huart3, UART_TXFIFO_THRESHOLD_1_8) != HAL_OK)
 8003148:	2100      	movs	r1, #0
 800314a:	480d      	ldr	r0, [pc, #52]	; (8003180 <MX_USART3_UART_Init+0x90>)
 800314c:	f004 fe52 	bl	8007df4 <HAL_UARTEx_SetTxFifoThreshold>
 8003150:	4603      	mov	r3, r0
 8003152:	2b00      	cmp	r3, #0
 8003154:	d001      	beq.n	800315a <MX_USART3_UART_Init+0x6a>
  {
    Error_Handler();
 8003156:	f000 fae5 	bl	8003724 <Error_Handler>
  }
  if (HAL_UARTEx_SetRxFifoThreshold(&huart3, UART_RXFIFO_THRESHOLD_1_8) != HAL_OK)
 800315a:	2100      	movs	r1, #0
 800315c:	4808      	ldr	r0, [pc, #32]	; (8003180 <MX_USART3_UART_Init+0x90>)
 800315e:	f004 fe87 	bl	8007e70 <HAL_UARTEx_SetRxFifoThreshold>
 8003162:	4603      	mov	r3, r0
 8003164:	2b00      	cmp	r3, #0
 8003166:	d001      	beq.n	800316c <MX_USART3_UART_Init+0x7c>
  {
    Error_Handler();
 8003168:	f000 fadc 	bl	8003724 <Error_Handler>
  }
  if (HAL_UARTEx_DisableFifoMode(&huart3) != HAL_OK)
 800316c:	4804      	ldr	r0, [pc, #16]	; (8003180 <MX_USART3_UART_Init+0x90>)
 800316e:	f004 fe08 	bl	8007d82 <HAL_UARTEx_DisableFifoMode>
 8003172:	4603      	mov	r3, r0
 8003174:	2b00      	cmp	r3, #0
 8003176:	d001      	beq.n	800317c <MX_USART3_UART_Init+0x8c>
  {
    Error_Handler();
 8003178:	f000 fad4 	bl	8003724 <Error_Handler>
  }
  /* USER CODE BEGIN USART3_Init 2 */

  /* USER CODE END USART3_Init 2 */

}
 800317c:	bf00      	nop
 800317e:	bd80      	pop	{r7, pc}
 8003180:	24000108 	.word	0x24000108
 8003184:	40004800 	.word	0x40004800

08003188 <MX_USB_OTG_HS_USB_Init>:
  * @brief USB_OTG_HS Initialization Function
  * @param None
  * @retval None
  */
static void MX_USB_OTG_HS_USB_Init(void)
{
 8003188:	b480      	push	{r7}
 800318a:	af00      	add	r7, sp, #0
  /* USER CODE END USB_OTG_HS_Init 1 */
  /* USER CODE BEGIN USB_OTG_HS_Init 2 */

  /* USER CODE END USB_OTG_HS_Init 2 */

}
 800318c:	bf00      	nop
 800318e:	46bd      	mov	sp, r7
 8003190:	f85d 7b04 	ldr.w	r7, [sp], #4
 8003194:	4770      	bx	lr
	...

08003198 <MX_GPIO_Init>:
  * @brief GPIO Initialization Function
  * @param None
  * @retval None
  */
static void MX_GPIO_Init(void)
{
 8003198:	b580      	push	{r7, lr}
 800319a:	b08e      	sub	sp, #56	; 0x38
 800319c:	af00      	add	r7, sp, #0
  GPIO_InitTypeDef GPIO_InitStruct = {0};
 800319e:	f107 0324 	add.w	r3, r7, #36	; 0x24
 80031a2:	2200      	movs	r2, #0
 80031a4:	601a      	str	r2, [r3, #0]
 80031a6:	605a      	str	r2, [r3, #4]
 80031a8:	609a      	str	r2, [r3, #8]
 80031aa:	60da      	str	r2, [r3, #12]
 80031ac:	611a      	str	r2, [r3, #16]

  /* GPIO Ports Clock Enable */
  __HAL_RCC_GPIOC_CLK_ENABLE();
 80031ae:	4b84      	ldr	r3, [pc, #528]	; (80033c0 <MX_GPIO_Init+0x228>)
 80031b0:	f8d3 3140 	ldr.w	r3, [r3, #320]	; 0x140
 80031b4:	4a82      	ldr	r2, [pc, #520]	; (80033c0 <MX_GPIO_Init+0x228>)
 80031b6:	f043 0304 	orr.w	r3, r3, #4
 80031ba:	f8c2 3140 	str.w	r3, [r2, #320]	; 0x140
 80031be:	4b80      	ldr	r3, [pc, #512]	; (80033c0 <MX_GPIO_Init+0x228>)
 80031c0:	f8d3 3140 	ldr.w	r3, [r3, #320]	; 0x140
 80031c4:	f003 0304 	and.w	r3, r3, #4
 80031c8:	623b      	str	r3, [r7, #32]
 80031ca:	6a3b      	ldr	r3, [r7, #32]
  __HAL_RCC_GPIOF_CLK_ENABLE();
 80031cc:	4b7c      	ldr	r3, [pc, #496]	; (80033c0 <MX_GPIO_Init+0x228>)
 80031ce:	f8d3 3140 	ldr.w	r3, [r3, #320]	; 0x140
 80031d2:	4a7b      	ldr	r2, [pc, #492]	; (80033c0 <MX_GPIO_Init+0x228>)
 80031d4:	f043 0320 	orr.w	r3, r3, #32
 80031d8:	f8c2 3140 	str.w	r3, [r2, #320]	; 0x140
 80031dc:	4b78      	ldr	r3, [pc, #480]	; (80033c0 <MX_GPIO_Init+0x228>)
 80031de:	f8d3 3140 	ldr.w	r3, [r3, #320]	; 0x140
 80031e2:	f003 0320 	and.w	r3, r3, #32
 80031e6:	61fb      	str	r3, [r7, #28]
 80031e8:	69fb      	ldr	r3, [r7, #28]
  __HAL_RCC_GPIOH_CLK_ENABLE();
 80031ea:	4b75      	ldr	r3, [pc, #468]	; (80033c0 <MX_GPIO_Init+0x228>)
 80031ec:	f8d3 3140 	ldr.w	r3, [r3, #320]	; 0x140
 80031f0:	4a73      	ldr	r2, [pc, #460]	; (80033c0 <MX_GPIO_Init+0x228>)
 80031f2:	f043 0380 	orr.w	r3, r3, #128	; 0x80
 80031f6:	f8c2 3140 	str.w	r3, [r2, #320]	; 0x140
 80031fa:	4b71      	ldr	r3, [pc, #452]	; (80033c0 <MX_GPIO_Init+0x228>)
 80031fc:	f8d3 3140 	ldr.w	r3, [r3, #320]	; 0x140
 8003200:	f003 0380 	and.w	r3, r3, #128	; 0x80
 8003204:	61bb      	str	r3, [r7, #24]
 8003206:	69bb      	ldr	r3, [r7, #24]
  __HAL_RCC_GPIOB_CLK_ENABLE();
 8003208:	4b6d      	ldr	r3, [pc, #436]	; (80033c0 <MX_GPIO_Init+0x228>)
 800320a:	f8d3 3140 	ldr.w	r3, [r3, #320]	; 0x140
 800320e:	4a6c      	ldr	r2, [pc, #432]	; (80033c0 <MX_GPIO_Init+0x228>)
 8003210:	f043 0302 	orr.w	r3, r3, #2
 8003214:	f8c2 3140 	str.w	r3, [r2, #320]	; 0x140
 8003218:	4b69      	ldr	r3, [pc, #420]	; (80033c0 <MX_GPIO_Init+0x228>)
 800321a:	f8d3 3140 	ldr.w	r3, [r3, #320]	; 0x140
 800321e:	f003 0302 	and.w	r3, r3, #2
 8003222:	617b      	str	r3, [r7, #20]
 8003224:	697b      	ldr	r3, [r7, #20]
  __HAL_RCC_GPIOD_CLK_ENABLE();
 8003226:	4b66      	ldr	r3, [pc, #408]	; (80033c0 <MX_GPIO_Init+0x228>)
 8003228:	f8d3 3140 	ldr.w	r3, [r3, #320]	; 0x140
 800322c:	4a64      	ldr	r2, [pc, #400]	; (80033c0 <MX_GPIO_Init+0x228>)
 800322e:	f043 0308 	orr.w	r3, r3, #8
 8003232:	f8c2 3140 	str.w	r3, [r2, #320]	; 0x140
 8003236:	4b62      	ldr	r3, [pc, #392]	; (80033c0 <MX_GPIO_Init+0x228>)
 8003238:	f8d3 3140 	ldr.w	r3, [r3, #320]	; 0x140
 800323c:	f003 0308 	and.w	r3, r3, #8
 8003240:	613b      	str	r3, [r7, #16]
 8003242:	693b      	ldr	r3, [r7, #16]
  __HAL_RCC_GPIOG_CLK_ENABLE();
 8003244:	4b5e      	ldr	r3, [pc, #376]	; (80033c0 <MX_GPIO_Init+0x228>)
 8003246:	f8d3 3140 	ldr.w	r3, [r3, #320]	; 0x140
 800324a:	4a5d      	ldr	r2, [pc, #372]	; (80033c0 <MX_GPIO_Init+0x228>)
 800324c:	f043 0340 	orr.w	r3, r3, #64	; 0x40
 8003250:	f8c2 3140 	str.w	r3, [r2, #320]	; 0x140
 8003254:	4b5a      	ldr	r3, [pc, #360]	; (80033c0 <MX_GPIO_Init+0x228>)
 8003256:	f8d3 3140 	ldr.w	r3, [r3, #320]	; 0x140
 800325a:	f003 0340 	and.w	r3, r3, #64	; 0x40
 800325e:	60fb      	str	r3, [r7, #12]
 8003260:	68fb      	ldr	r3, [r7, #12]
  __HAL_RCC_GPIOA_CLK_ENABLE();
 8003262:	4b57      	ldr	r3, [pc, #348]	; (80033c0 <MX_GPIO_Init+0x228>)
 8003264:	f8d3 3140 	ldr.w	r3, [r3, #320]	; 0x140
 8003268:	4a55      	ldr	r2, [pc, #340]	; (80033c0 <MX_GPIO_Init+0x228>)
 800326a:	f043 0301 	orr.w	r3, r3, #1
 800326e:	f8c2 3140 	str.w	r3, [r2, #320]	; 0x140
 8003272:	4b53      	ldr	r3, [pc, #332]	; (80033c0 <MX_GPIO_Init+0x228>)
 8003274:	f8d3 3140 	ldr.w	r3, [r3, #320]	; 0x140
 8003278:	f003 0301 	and.w	r3, r3, #1
 800327c:	60bb      	str	r3, [r7, #8]
 800327e:	68bb      	ldr	r3, [r7, #8]
  __HAL_RCC_GPIOE_CLK_ENABLE();
 8003280:	4b4f      	ldr	r3, [pc, #316]	; (80033c0 <MX_GPIO_Init+0x228>)
 8003282:	f8d3 3140 	ldr.w	r3, [r3, #320]	; 0x140
 8003286:	4a4e      	ldr	r2, [pc, #312]	; (80033c0 <MX_GPIO_Init+0x228>)
 8003288:	f043 0310 	orr.w	r3, r3, #16
 800328c:	f8c2 3140 	str.w	r3, [r2, #320]	; 0x140
 8003290:	4b4b      	ldr	r3, [pc, #300]	; (80033c0 <MX_GPIO_Init+0x228>)
 8003292:	f8d3 3140 	ldr.w	r3, [r3, #320]	; 0x140
 8003296:	f003 0310 	and.w	r3, r3, #16
 800329a:	607b      	str	r3, [r7, #4]
 800329c:	687b      	ldr	r3, [r7, #4]

  /*Configure GPIO pin Output Level */
  HAL_GPIO_WritePin(USB_FS_PWR_EN_GPIO_Port, USB_FS_PWR_EN_Pin, GPIO_PIN_RESET);
 800329e:	2200      	movs	r2, #0
 80032a0:	f44f 6180 	mov.w	r1, #1024	; 0x400
 80032a4:	4847      	ldr	r0, [pc, #284]	; (80033c4 <MX_GPIO_Init+0x22c>)
 80032a6:	f000 ff3f 	bl	8004128 <HAL_GPIO_WritePin>

  /*Configure GPIO pin Output Level */
  HAL_GPIO_WritePin(GPIOB, LD1_Pin|LD3_Pin, GPIO_PIN_RESET);
 80032aa:	2200      	movs	r2, #0
 80032ac:	f244 0101 	movw	r1, #16385	; 0x4001
 80032b0:	4845      	ldr	r0, [pc, #276]	; (80033c8 <MX_GPIO_Init+0x230>)
 80032b2:	f000 ff39 	bl	8004128 <HAL_GPIO_WritePin>

  /*Configure GPIO pin Output Level */
  HAL_GPIO_WritePin(LD2_GPIO_Port, LD2_Pin, GPIO_PIN_RESET);
 80032b6:	2200      	movs	r2, #0
 80032b8:	2102      	movs	r1, #2
 80032ba:	4844      	ldr	r0, [pc, #272]	; (80033cc <MX_GPIO_Init+0x234>)
 80032bc:	f000 ff34 	bl	8004128 <HAL_GPIO_WritePin>

  /*Configure GPIO pin : B1_Pin */
  GPIO_InitStruct.Pin = B1_Pin;
 80032c0:	f44f 5300 	mov.w	r3, #8192	; 0x2000
 80032c4:	627b      	str	r3, [r7, #36]	; 0x24
  GPIO_InitStruct.Mode = GPIO_MODE_IT_RISING;
 80032c6:	f44f 1388 	mov.w	r3, #1114112	; 0x110000
 80032ca:	62bb      	str	r3, [r7, #40]	; 0x28
  GPIO_InitStruct.Pull = GPIO_NOPULL;
 80032cc:	2300      	movs	r3, #0
 80032ce:	62fb      	str	r3, [r7, #44]	; 0x2c
  HAL_GPIO_Init(B1_GPIO_Port, &GPIO_InitStruct);
 80032d0:	f107 0324 	add.w	r3, r7, #36	; 0x24
 80032d4:	4619      	mov	r1, r3
 80032d6:	483e      	ldr	r0, [pc, #248]	; (80033d0 <MX_GPIO_Init+0x238>)
 80032d8:	f000 fd76 	bl	8003dc8 <HAL_GPIO_Init>

  /*Configure GPIO pin : USB_FS_PWR_EN_Pin */
  GPIO_InitStruct.Pin = USB_FS_PWR_EN_Pin;
 80032dc:	f44f 6380 	mov.w	r3, #1024	; 0x400
 80032e0:	627b      	str	r3, [r7, #36]	; 0x24
  GPIO_InitStruct.Mode = GPIO_MODE_OUTPUT_PP;
 80032e2:	2301      	movs	r3, #1
 80032e4:	62bb      	str	r3, [r7, #40]	; 0x28
  GPIO_InitStruct.Pull = GPIO_NOPULL;
 80032e6:	2300      	movs	r3, #0
 80032e8:	62fb      	str	r3, [r7, #44]	; 0x2c
  GPIO_InitStruct.Speed = GPIO_SPEED_FREQ_LOW;
 80032ea:	2300      	movs	r3, #0
 80032ec:	633b      	str	r3, [r7, #48]	; 0x30
  HAL_GPIO_Init(USB_FS_PWR_EN_GPIO_Port, &GPIO_InitStruct);
 80032ee:	f107 0324 	add.w	r3, r7, #36	; 0x24
 80032f2:	4619      	mov	r1, r3
 80032f4:	4833      	ldr	r0, [pc, #204]	; (80033c4 <MX_GPIO_Init+0x22c>)
 80032f6:	f000 fd67 	bl	8003dc8 <HAL_GPIO_Init>

  /*Configure GPIO pins : LD1_Pin LD3_Pin */
  GPIO_InitStruct.Pin = LD1_Pin|LD3_Pin;
 80032fa:	f244 0301 	movw	r3, #16385	; 0x4001
 80032fe:	627b      	str	r3, [r7, #36]	; 0x24
  GPIO_InitStruct.Mode = GPIO_MODE_OUTPUT_PP;
 8003300:	2301      	movs	r3, #1
 8003302:	62bb      	str	r3, [r7, #40]	; 0x28
  GPIO_InitStruct.Pull = GPIO_NOPULL;
 8003304:	2300      	movs	r3, #0
 8003306:	62fb      	str	r3, [r7, #44]	; 0x2c
  GPIO_InitStruct.Speed = GPIO_SPEED_FREQ_LOW;
 8003308:	2300      	movs	r3, #0
 800330a:	633b      	str	r3, [r7, #48]	; 0x30
  HAL_GPIO_Init(GPIOB, &GPIO_InitStruct);
 800330c:	f107 0324 	add.w	r3, r7, #36	; 0x24
 8003310:	4619      	mov	r1, r3
 8003312:	482d      	ldr	r0, [pc, #180]	; (80033c8 <MX_GPIO_Init+0x230>)
 8003314:	f000 fd58 	bl	8003dc8 <HAL_GPIO_Init>

  /*Configure GPIO pin : USB_FS_OVCR_Pin */
  GPIO_InitStruct.Pin = USB_FS_OVCR_Pin;
 8003318:	2380      	movs	r3, #128	; 0x80
 800331a:	627b      	str	r3, [r7, #36]	; 0x24
  GPIO_InitStruct.Mode = GPIO_MODE_IT_RISING;
 800331c:	f44f 1388 	mov.w	r3, #1114112	; 0x110000
 8003320:	62bb      	str	r3, [r7, #40]	; 0x28
  GPIO_InitStruct.Pull = GPIO_NOPULL;
 8003322:	2300      	movs	r3, #0
 8003324:	62fb      	str	r3, [r7, #44]	; 0x2c
  HAL_GPIO_Init(USB_FS_OVCR_GPIO_Port, &GPIO_InitStruct);
 8003326:	f107 0324 	add.w	r3, r7, #36	; 0x24
 800332a:	4619      	mov	r1, r3
 800332c:	4829      	ldr	r0, [pc, #164]	; (80033d4 <MX_GPIO_Init+0x23c>)
 800332e:	f000 fd4b 	bl	8003dc8 <HAL_GPIO_Init>

  /*Configure GPIO pin : USB_FS_VBUS_Pin */
  GPIO_InitStruct.Pin = USB_FS_VBUS_Pin;
 8003332:	f44f 7300 	mov.w	r3, #512	; 0x200
 8003336:	627b      	str	r3, [r7, #36]	; 0x24
  GPIO_InitStruct.Mode = GPIO_MODE_INPUT;
 8003338:	2300      	movs	r3, #0
 800333a:	62bb      	str	r3, [r7, #40]	; 0x28
  GPIO_InitStruct.Pull = GPIO_NOPULL;
 800333c:	2300      	movs	r3, #0
 800333e:	62fb      	str	r3, [r7, #44]	; 0x2c
  HAL_GPIO_Init(USB_FS_VBUS_GPIO_Port, &GPIO_InitStruct);
 8003340:	f107 0324 	add.w	r3, r7, #36	; 0x24
 8003344:	4619      	mov	r1, r3
 8003346:	4824      	ldr	r0, [pc, #144]	; (80033d8 <MX_GPIO_Init+0x240>)
 8003348:	f000 fd3e 	bl	8003dc8 <HAL_GPIO_Init>

  /*Configure GPIO pin : USB_FS_ID_Pin */
  GPIO_InitStruct.Pin = USB_FS_ID_Pin;
 800334c:	f44f 6380 	mov.w	r3, #1024	; 0x400
 8003350:	627b      	str	r3, [r7, #36]	; 0x24
  GPIO_InitStruct.Mode = GPIO_MODE_AF_PP;
 8003352:	2302      	movs	r3, #2
 8003354:	62bb      	str	r3, [r7, #40]	; 0x28
  GPIO_InitStruct.Pull = GPIO_NOPULL;
 8003356:	2300      	movs	r3, #0
 8003358:	62fb      	str	r3, [r7, #44]	; 0x2c
  GPIO_InitStruct.Speed = GPIO_SPEED_FREQ_LOW;
 800335a:	2300      	movs	r3, #0
 800335c:	633b      	str	r3, [r7, #48]	; 0x30
  GPIO_InitStruct.Alternate = GPIO_AF10_OTG1_HS;
 800335e:	230a      	movs	r3, #10
 8003360:	637b      	str	r3, [r7, #52]	; 0x34
  HAL_GPIO_Init(USB_FS_ID_GPIO_Port, &GPIO_InitStruct);
 8003362:	f107 0324 	add.w	r3, r7, #36	; 0x24
 8003366:	4619      	mov	r1, r3
 8003368:	481b      	ldr	r0, [pc, #108]	; (80033d8 <MX_GPIO_Init+0x240>)
 800336a:	f000 fd2d 	bl	8003dc8 <HAL_GPIO_Init>

  /*Configure GPIO pins : USB_FS_N_Pin USB_FS_P_Pin */
  GPIO_InitStruct.Pin = USB_FS_N_Pin|USB_FS_P_Pin;
 800336e:	f44f 53c0 	mov.w	r3, #6144	; 0x1800
 8003372:	627b      	str	r3, [r7, #36]	; 0x24
  GPIO_InitStruct.Mode = GPIO_MODE_AF_PP;
 8003374:	2302      	movs	r3, #2
 8003376:	62bb      	str	r3, [r7, #40]	; 0x28
  GPIO_InitStruct.Pull = GPIO_NOPULL;
 8003378:	2300      	movs	r3, #0
 800337a:	62fb      	str	r3, [r7, #44]	; 0x2c
  GPIO_InitStruct.Speed = GPIO_SPEED_FREQ_LOW;
 800337c:	2300      	movs	r3, #0
 800337e:	633b      	str	r3, [r7, #48]	; 0x30
  HAL_GPIO_Init(GPIOA, &GPIO_InitStruct);
 8003380:	f107 0324 	add.w	r3, r7, #36	; 0x24
 8003384:	4619      	mov	r1, r3
 8003386:	4814      	ldr	r0, [pc, #80]	; (80033d8 <MX_GPIO_Init+0x240>)
 8003388:	f000 fd1e 	bl	8003dc8 <HAL_GPIO_Init>

  /*Configure GPIO pin : LD2_Pin */
  GPIO_InitStruct.Pin = LD2_Pin;
 800338c:	2302      	movs	r3, #2
 800338e:	627b      	str	r3, [r7, #36]	; 0x24
  GPIO_InitStruct.Mode = GPIO_MODE_OUTPUT_PP;
 8003390:	2301      	movs	r3, #1
 8003392:	62bb      	str	r3, [r7, #40]	; 0x28
  GPIO_InitStruct.Pull = GPIO_NOPULL;
 8003394:	2300      	movs	r3, #0
 8003396:	62fb      	str	r3, [r7, #44]	; 0x2c
  GPIO_InitStruct.Speed = GPIO_SPEED_FREQ_LOW;
 8003398:	2300      	movs	r3, #0
 800339a:	633b      	str	r3, [r7, #48]	; 0x30
  HAL_GPIO_Init(LD2_GPIO_Port, &GPIO_InitStruct);
 800339c:	f107 0324 	add.w	r3, r7, #36	; 0x24
 80033a0:	4619      	mov	r1, r3
 80033a2:	480a      	ldr	r0, [pc, #40]	; (80033cc <MX_GPIO_Init+0x234>)
 80033a4:	f000 fd10 	bl	8003dc8 <HAL_GPIO_Init>

  /* EXTI interrupt init*/
  HAL_NVIC_SetPriority(EXTI15_10_IRQn, 0, 0);
 80033a8:	2200      	movs	r2, #0
 80033aa:	2100      	movs	r1, #0
 80033ac:	2028      	movs	r0, #40	; 0x28
 80033ae:	f000 fcd6 	bl	8003d5e <HAL_NVIC_SetPriority>
  HAL_NVIC_EnableIRQ(EXTI15_10_IRQn);
 80033b2:	2028      	movs	r0, #40	; 0x28
 80033b4:	f000 fced 	bl	8003d92 <HAL_NVIC_EnableIRQ>

}
 80033b8:	bf00      	nop
 80033ba:	3738      	adds	r7, #56	; 0x38
 80033bc:	46bd      	mov	sp, r7
 80033be:	bd80      	pop	{r7, pc}
 80033c0:	58024400 	.word	0x58024400
 80033c4:	58021400 	.word	0x58021400
 80033c8:	58020400 	.word	0x58020400
 80033cc:	58021000 	.word	0x58021000
 80033d0:	58020800 	.word	0x58020800
 80033d4:	58021800 	.word	0x58021800
 80033d8:	58020000 	.word	0x58020000

080033dc <ili_screen_1>:

/* USER CODE BEGIN 4 */
void ili_screen_1(){
 80033dc:	b580      	push	{r7, lr}
 80033de:	b082      	sub	sp, #8
 80033e0:	af02      	add	r7, sp, #8
	  ili9486_FillRect(0, 0, 480, 320, 0xffff);  // White BG
 80033e2:	f64f 73ff 	movw	r3, #65535	; 0xffff
 80033e6:	9300      	str	r3, [sp, #0]
 80033e8:	f44f 73a0 	mov.w	r3, #320	; 0x140
 80033ec:	f44f 72f0 	mov.w	r2, #480	; 0x1e0
 80033f0:	2100      	movs	r1, #0
 80033f2:	2000      	movs	r0, #0
 80033f4:	f7fd fbae 	bl	8000b54 <ili9486_FillRect>

	  ili9486_FillRect(30, 30, 100, 100, 0xF8E0); // Red
 80033f8:	f64f 03e0 	movw	r3, #63712	; 0xf8e0
 80033fc:	9300      	str	r3, [sp, #0]
 80033fe:	2364      	movs	r3, #100	; 0x64
 8003400:	2264      	movs	r2, #100	; 0x64
 8003402:	211e      	movs	r1, #30
 8003404:	201e      	movs	r0, #30
 8003406:	f7fd fba5 	bl	8000b54 <ili9486_FillRect>
	  ili9486_FillRect(150, 30, 100, 100, 0x07E0); // Green RGB565
 800340a:	f44f 63fc 	mov.w	r3, #2016	; 0x7e0
 800340e:	9300      	str	r3, [sp, #0]
 8003410:	2364      	movs	r3, #100	; 0x64
 8003412:	2264      	movs	r2, #100	; 0x64
 8003414:	211e      	movs	r1, #30
 8003416:	2096      	movs	r0, #150	; 0x96
 8003418:	f7fd fb9c 	bl	8000b54 <ili9486_FillRect>
	  ili9486_FillRect(270, 30, 100, 100, 0x001F); // Blue
 800341c:	231f      	movs	r3, #31
 800341e:	9300      	str	r3, [sp, #0]
 8003420:	2364      	movs	r3, #100	; 0x64
 8003422:	2264      	movs	r2, #100	; 0x64
 8003424:	211e      	movs	r1, #30
 8003426:	f44f 7087 	mov.w	r0, #270	; 0x10e
 800342a:	f7fd fb93 	bl	8000b54 <ili9486_FillRect>

	  ili9486_FillRect(30, 160,  100, 100, cl_CYAN); // C0x07FF
 800342e:	f240 73ff 	movw	r3, #2047	; 0x7ff
 8003432:	9300      	str	r3, [sp, #0]
 8003434:	2364      	movs	r3, #100	; 0x64
 8003436:	2264      	movs	r2, #100	; 0x64
 8003438:	21a0      	movs	r1, #160	; 0xa0
 800343a:	201e      	movs	r0, #30
 800343c:	f7fd fb8a 	bl	8000b54 <ili9486_FillRect>
	  ili9486_FillRect(150, 160, 100, 100, cl_MAGENTA); // M 0xF81F
 8003440:	f64f 031f 	movw	r3, #63519	; 0xf81f
 8003444:	9300      	str	r3, [sp, #0]
 8003446:	2364      	movs	r3, #100	; 0x64
 8003448:	2264      	movs	r2, #100	; 0x64
 800344a:	21a0      	movs	r1, #160	; 0xa0
 800344c:	2096      	movs	r0, #150	; 0x96
 800344e:	f7fd fb81 	bl	8000b54 <ili9486_FillRect>
	  ili9486_FillRect(270, 160, 100, 100, cl_YELLOW); // Y0xFFE0
 8003452:	f64f 73e0 	movw	r3, #65504	; 0xffe0
 8003456:	9300      	str	r3, [sp, #0]
 8003458:	2364      	movs	r3, #100	; 0x64
 800345a:	2264      	movs	r2, #100	; 0x64
 800345c:	21a0      	movs	r1, #160	; 0xa0
 800345e:	f44f 7087 	mov.w	r0, #270	; 0x10e
 8003462:	f7fd fb77 	bl	8000b54 <ili9486_FillRect>
	  ili9486_FillRect(390, 30, 70, 230, cl_BLACK); // K
 8003466:	2300      	movs	r3, #0
 8003468:	9300      	str	r3, [sp, #0]
 800346a:	23e6      	movs	r3, #230	; 0xe6
 800346c:	2246      	movs	r2, #70	; 0x46
 800346e:	211e      	movs	r1, #30
 8003470:	f44f 70c3 	mov.w	r0, #390	; 0x186
 8003474:	f7fd fb6e 	bl	8000b54 <ili9486_FillRect>
}
 8003478:	bf00      	nop
 800347a:	46bd      	mov	sp, r7
 800347c:	bd80      	pop	{r7, pc}
	...

08003480 <ili_fonttest>:

void ili_fonttest(uint16_t Xpo, uint16_t Ypo, char *chr,sFONT fonto, uint16_t RGB_Coder){
 8003480:	b082      	sub	sp, #8
 8003482:	b580      	push	{r7, lr}
 8003484:	b088      	sub	sp, #32
 8003486:	af00      	add	r7, sp, #0
 8003488:	60ba      	str	r2, [r7, #8]
 800348a:	62fb      	str	r3, [r7, #44]	; 0x2c
 800348c:	4603      	mov	r3, r0
 800348e:	81fb      	strh	r3, [r7, #14]
 8003490:	460b      	mov	r3, r1
 8003492:	81bb      	strh	r3, [r7, #12]

	rowbox = ceilf((float)(fonto.Width) / 8);
 8003494:	8e3b      	ldrh	r3, [r7, #48]	; 0x30
 8003496:	ee07 3a90 	vmov	s15, r3
 800349a:	eef8 7a67 	vcvt.f32.u32	s15, s15
 800349e:	eef2 6a00 	vmov.f32	s13, #32	; 0x41000000  8.0
 80034a2:	ee87 7aa6 	vdiv.f32	s14, s15, s13
 80034a6:	eeb0 0a47 	vmov.f32	s0, s14
 80034aa:	f004 fd99 	bl	8007fe0 <ceilf>
 80034ae:	eef0 7a40 	vmov.f32	s15, s0
 80034b2:	eefc 7ae7 	vcvt.u32.f32	s15, s15
 80034b6:	edc7 7a01 	vstr	s15, [r7, #4]
 80034ba:	793b      	ldrb	r3, [r7, #4]
 80034bc:	b2da      	uxtb	r2, r3
 80034be:	4b42      	ldr	r3, [pc, #264]	; (80035c8 <ili_fonttest+0x148>)
 80034c0:	701a      	strb	r2, [r3, #0]
	//// choose MSB check pos for each font size
	cliff = 0x80 << (8 * (rowbox - 1));
 80034c2:	4b41      	ldr	r3, [pc, #260]	; (80035c8 <ili_fonttest+0x148>)
 80034c4:	781b      	ldrb	r3, [r3, #0]
 80034c6:	3b01      	subs	r3, #1
 80034c8:	00db      	lsls	r3, r3, #3
 80034ca:	2280      	movs	r2, #128	; 0x80
 80034cc:	fa02 f303 	lsl.w	r3, r2, r3
 80034d0:	461a      	mov	r2, r3
 80034d2:	4b3e      	ldr	r3, [pc, #248]	; (80035cc <ili_fonttest+0x14c>)
 80034d4:	601a      	str	r2, [r3, #0]
	//rowbox = (fonto.Width / 8) + 1;

	for(int i = 0; i < fonto.Height; i++){
 80034d6:	2300      	movs	r3, #0
 80034d8:	61fb      	str	r3, [r7, #28]
 80034da:	e068      	b.n	80035ae <ili_fonttest+0x12e>
		//b = fonto.table[((chr - 31) * fonto.Height * rowbox)+ (i*rowbox)];
		chpos = (int)(*chr) - 32;
 80034dc:	68bb      	ldr	r3, [r7, #8]
 80034de:	781b      	ldrb	r3, [r3, #0]
 80034e0:	b29b      	uxth	r3, r3
 80034e2:	3b20      	subs	r3, #32
 80034e4:	b29a      	uxth	r2, r3
 80034e6:	4b3a      	ldr	r3, [pc, #232]	; (80035d0 <ili_fonttest+0x150>)
 80034e8:	801a      	strh	r2, [r3, #0]
		bfpos = ((int)(*chr) - 32) * fonto.Height * rowbox;
 80034ea:	68bb      	ldr	r3, [r7, #8]
 80034ec:	781b      	ldrb	r3, [r3, #0]
 80034ee:	3b20      	subs	r3, #32
 80034f0:	8e7a      	ldrh	r2, [r7, #50]	; 0x32
 80034f2:	fb02 f303 	mul.w	r3, r2, r3
 80034f6:	4a34      	ldr	r2, [pc, #208]	; (80035c8 <ili_fonttest+0x148>)
 80034f8:	7812      	ldrb	r2, [r2, #0]
 80034fa:	fb02 f303 	mul.w	r3, r2, r3
 80034fe:	461a      	mov	r2, r3
 8003500:	4b34      	ldr	r3, [pc, #208]	; (80035d4 <ili_fonttest+0x154>)
 8003502:	601a      	str	r2, [r3, #0]

		hop = 0;
 8003504:	4b34      	ldr	r3, [pc, #208]	; (80035d8 <ili_fonttest+0x158>)
 8003506:	2200      	movs	r2, #0
 8003508:	601a      	str	r2, [r3, #0]
		for(int k = 0; k < rowbox; k++){
 800350a:	2300      	movs	r3, #0
 800350c:	61bb      	str	r3, [r7, #24]
 800350e:	e027      	b.n	8003560 <ili_fonttest+0xe0>
			//// Works
			buu32.b8[k] = fonto.table[((int)(*chr - 32) * fonto.Height * rowbox) + (i * rowbox) + k];
 8003510:	6afb      	ldr	r3, [r7, #44]	; 0x2c
 8003512:	68ba      	ldr	r2, [r7, #8]
 8003514:	7812      	ldrb	r2, [r2, #0]
 8003516:	3a20      	subs	r2, #32
 8003518:	8e79      	ldrh	r1, [r7, #50]	; 0x32
 800351a:	fb01 f202 	mul.w	r2, r1, r2
 800351e:	492a      	ldr	r1, [pc, #168]	; (80035c8 <ili_fonttest+0x148>)
 8003520:	7809      	ldrb	r1, [r1, #0]
 8003522:	fb02 f101 	mul.w	r1, r2, r1
 8003526:	4a28      	ldr	r2, [pc, #160]	; (80035c8 <ili_fonttest+0x148>)
 8003528:	7812      	ldrb	r2, [r2, #0]
 800352a:	4610      	mov	r0, r2
 800352c:	69fa      	ldr	r2, [r7, #28]
 800352e:	fb00 f202 	mul.w	r2, r0, r2
 8003532:	4411      	add	r1, r2
 8003534:	69ba      	ldr	r2, [r7, #24]
 8003536:	440a      	add	r2, r1
 8003538:	4413      	add	r3, r2
 800353a:	7819      	ldrb	r1, [r3, #0]
 800353c:	4a27      	ldr	r2, [pc, #156]	; (80035dc <ili_fonttest+0x15c>)
 800353e:	69bb      	ldr	r3, [r7, #24]
 8003540:	4413      	add	r3, r2
 8003542:	460a      	mov	r2, r1
 8003544:	701a      	strb	r2, [r3, #0]
			hop = (hop << 8) + buu32.b8[k];
 8003546:	4b24      	ldr	r3, [pc, #144]	; (80035d8 <ili_fonttest+0x158>)
 8003548:	681b      	ldr	r3, [r3, #0]
 800354a:	021b      	lsls	r3, r3, #8
 800354c:	4923      	ldr	r1, [pc, #140]	; (80035dc <ili_fonttest+0x15c>)
 800354e:	69ba      	ldr	r2, [r7, #24]
 8003550:	440a      	add	r2, r1
 8003552:	7812      	ldrb	r2, [r2, #0]
 8003554:	4413      	add	r3, r2
 8003556:	4a20      	ldr	r2, [pc, #128]	; (80035d8 <ili_fonttest+0x158>)
 8003558:	6013      	str	r3, [r2, #0]
		for(int k = 0; k < rowbox; k++){
 800355a:	69bb      	ldr	r3, [r7, #24]
 800355c:	3301      	adds	r3, #1
 800355e:	61bb      	str	r3, [r7, #24]
 8003560:	4b19      	ldr	r3, [pc, #100]	; (80035c8 <ili_fonttest+0x148>)
 8003562:	781b      	ldrb	r3, [r3, #0]
 8003564:	461a      	mov	r2, r3
 8003566:	69bb      	ldr	r3, [r7, #24]
 8003568:	4293      	cmp	r3, r2
 800356a:	dbd1      	blt.n	8003510 <ili_fonttest+0x90>
			//HAL_Delay(30);
			//// how to insert in union
			//buu32.b8[rowbox - k] = fonto.table[((int)(*chr - 32) * fonto.Height * rowbox) + (i * rowbox) + k];
		}

		for(int j = 0; j < fonto.Width; j++){
 800356c:	2300      	movs	r3, #0
 800356e:	617b      	str	r3, [r7, #20]
 8003570:	e015      	b.n	800359e <ili_fonttest+0x11e>
			////Works
			if((hop << j) & cliff){ // buu32.b32
 8003572:	4b19      	ldr	r3, [pc, #100]	; (80035d8 <ili_fonttest+0x158>)
 8003574:	681a      	ldr	r2, [r3, #0]
 8003576:	697b      	ldr	r3, [r7, #20]
 8003578:	409a      	lsls	r2, r3
 800357a:	4b14      	ldr	r3, [pc, #80]	; (80035cc <ili_fonttest+0x14c>)
 800357c:	681b      	ldr	r3, [r3, #0]
 800357e:	4013      	ands	r3, r2
 8003580:	2b00      	cmp	r3, #0
 8003582:	d009      	beq.n	8003598 <ili_fonttest+0x118>

			//if((buu32.b32 << j) & cliff){ //
				ili9486_WritePixel(Xpo + j, Ypo + i, RGB_Coder);
 8003584:	89fa      	ldrh	r2, [r7, #14]
 8003586:	697b      	ldr	r3, [r7, #20]
 8003588:	18d0      	adds	r0, r2, r3
 800358a:	89ba      	ldrh	r2, [r7, #12]
 800358c:	69fb      	ldr	r3, [r7, #28]
 800358e:	4413      	add	r3, r2
 8003590:	8eba      	ldrh	r2, [r7, #52]	; 0x34
 8003592:	4619      	mov	r1, r3
 8003594:	f7fd f926 	bl	80007e4 <ili9486_WritePixel>
		for(int j = 0; j < fonto.Width; j++){
 8003598:	697b      	ldr	r3, [r7, #20]
 800359a:	3301      	adds	r3, #1
 800359c:	617b      	str	r3, [r7, #20]
 800359e:	8e3b      	ldrh	r3, [r7, #48]	; 0x30
 80035a0:	461a      	mov	r2, r3
 80035a2:	697b      	ldr	r3, [r7, #20]
 80035a4:	4293      	cmp	r3, r2
 80035a6:	dbe4      	blt.n	8003572 <ili_fonttest+0xf2>
	for(int i = 0; i < fonto.Height; i++){
 80035a8:	69fb      	ldr	r3, [r7, #28]
 80035aa:	3301      	adds	r3, #1
 80035ac:	61fb      	str	r3, [r7, #28]
 80035ae:	8e7b      	ldrh	r3, [r7, #50]	; 0x32
 80035b0:	461a      	mov	r2, r3
 80035b2:	69fb      	ldr	r3, [r7, #28]
 80035b4:	4293      	cmp	r3, r2
 80035b6:	db91      	blt.n	80034dc <ili_fonttest+0x5c>
			}

		}
	}
}
 80035b8:	bf00      	nop
 80035ba:	bf00      	nop
 80035bc:	3720      	adds	r7, #32
 80035be:	46bd      	mov	sp, r7
 80035c0:	e8bd 4080 	ldmia.w	sp!, {r7, lr}
 80035c4:	b002      	add	sp, #8
 80035c6:	4770      	bx	lr
 80035c8:	240001ac 	.word	0x240001ac
 80035cc:	240001b8 	.word	0x240001b8
 80035d0:	240001ae 	.word	0x240001ae
 80035d4:	240001b0 	.word	0x240001b0
 80035d8:	240001b4 	.word	0x240001b4
 80035dc:	240001a8 	.word	0x240001a8

080035e0 <ili_texttest>:

void ili_texttest(uint16_t Xpo, uint16_t Ypo,const char* strr,sFONT fonto, uint16_t RGB_Coder, uint16_t RGB_bg){
 80035e0:	b082      	sub	sp, #8
 80035e2:	b580      	push	{r7, lr}
 80035e4:	b088      	sub	sp, #32
 80035e6:	af04      	add	r7, sp, #16
 80035e8:	603a      	str	r2, [r7, #0]
 80035ea:	61fb      	str	r3, [r7, #28]
 80035ec:	4603      	mov	r3, r0
 80035ee:	80fb      	strh	r3, [r7, #6]
 80035f0:	460b      	mov	r3, r1
 80035f2:	80bb      	strh	r3, [r7, #4]

	uint16_t ili_heigh = ili9486_GetLcdPixelHeight();
 80035f4:	f7fd f819 	bl	800062a <ili9486_GetLcdPixelHeight>
 80035f8:	4603      	mov	r3, r0
 80035fa:	81fb      	strh	r3, [r7, #14]
	uint16_t ili_width = ili9486_GetLcdPixelWidth();
 80035fc:	f7fd f80c 	bl	8000618 <ili9486_GetLcdPixelWidth>
 8003600:	4603      	mov	r3, r0
 8003602:	81bb      	strh	r3, [r7, #12]

	while(*strr){
 8003604:	e037      	b.n	8003676 <ili_texttest+0x96>

	//// Check screen overflow / new line
		if(Xpo + fonto.Width >= ili_width){
 8003606:	88fb      	ldrh	r3, [r7, #6]
 8003608:	8c3a      	ldrh	r2, [r7, #32]
 800360a:	441a      	add	r2, r3
 800360c:	89bb      	ldrh	r3, [r7, #12]
 800360e:	429a      	cmp	r2, r3
 8003610:	db13      	blt.n	800363a <ili_texttest+0x5a>
			Xpo = 0;
 8003612:	2300      	movs	r3, #0
 8003614:	80fb      	strh	r3, [r7, #6]
			Ypo += fonto.Height;
 8003616:	8c7a      	ldrh	r2, [r7, #34]	; 0x22
 8003618:	88bb      	ldrh	r3, [r7, #4]
 800361a:	4413      	add	r3, r2
 800361c:	80bb      	strh	r3, [r7, #4]

			if(Ypo + fonto.Height >= ili_heigh){
 800361e:	88bb      	ldrh	r3, [r7, #4]
 8003620:	8c7a      	ldrh	r2, [r7, #34]	; 0x22
 8003622:	441a      	add	r2, r3
 8003624:	89fb      	ldrh	r3, [r7, #14]
 8003626:	429a      	cmp	r2, r3
 8003628:	da2a      	bge.n	8003680 <ili_texttest+0xa0>
				break;
			}

			if(*strr == ' ') {
 800362a:	683b      	ldr	r3, [r7, #0]
 800362c:	781b      	ldrb	r3, [r3, #0]
 800362e:	2b20      	cmp	r3, #32
 8003630:	d103      	bne.n	800363a <ili_texttest+0x5a>
				// skip spaces in the beginning of the new line
				strr++;
 8003632:	683b      	ldr	r3, [r7, #0]
 8003634:	3301      	adds	r3, #1
 8003636:	603b      	str	r3, [r7, #0]
				continue;
 8003638:	e01d      	b.n	8003676 <ili_texttest+0x96>
			}
		}
		//ST7735_WriteChar(x, y, *str, font, color, bgcolor);
		static int nummm = 0;
		txtbuf[nummm] = *strr;
 800363a:	4b15      	ldr	r3, [pc, #84]	; (8003690 <ili_texttest+0xb0>)
 800363c:	681b      	ldr	r3, [r3, #0]
 800363e:	683a      	ldr	r2, [r7, #0]
 8003640:	7811      	ldrb	r1, [r2, #0]
 8003642:	4a14      	ldr	r2, [pc, #80]	; (8003694 <ili_texttest+0xb4>)
 8003644:	54d1      	strb	r1, [r2, r3]
		ili9486_WriteChar(Xpo, Ypo, strr, fonto, RGB_Coder, RGB_bg);
 8003646:	88f8      	ldrh	r0, [r7, #6]
 8003648:	88b9      	ldrh	r1, [r7, #4]
 800364a:	8cbb      	ldrh	r3, [r7, #36]	; 0x24
 800364c:	8d3a      	ldrh	r2, [r7, #40]	; 0x28
 800364e:	9202      	str	r2, [sp, #8]
 8003650:	9301      	str	r3, [sp, #4]
 8003652:	6a3b      	ldr	r3, [r7, #32]
 8003654:	9300      	str	r3, [sp, #0]
 8003656:	69fb      	ldr	r3, [r7, #28]
 8003658:	683a      	ldr	r2, [r7, #0]
 800365a:	f7fd fb91 	bl	8000d80 <ili9486_WriteChar>
		Xpo += fonto.Width;
 800365e:	8c3a      	ldrh	r2, [r7, #32]
 8003660:	88fb      	ldrh	r3, [r7, #6]
 8003662:	4413      	add	r3, r2
 8003664:	80fb      	strh	r3, [r7, #6]
		strr++; nummm++;
 8003666:	683b      	ldr	r3, [r7, #0]
 8003668:	3301      	adds	r3, #1
 800366a:	603b      	str	r3, [r7, #0]
 800366c:	4b08      	ldr	r3, [pc, #32]	; (8003690 <ili_texttest+0xb0>)
 800366e:	681b      	ldr	r3, [r3, #0]
 8003670:	3301      	adds	r3, #1
 8003672:	4a07      	ldr	r2, [pc, #28]	; (8003690 <ili_texttest+0xb0>)
 8003674:	6013      	str	r3, [r2, #0]
	while(*strr){
 8003676:	683b      	ldr	r3, [r7, #0]
 8003678:	781b      	ldrb	r3, [r3, #0]
 800367a:	2b00      	cmp	r3, #0
 800367c:	d1c3      	bne.n	8003606 <ili_texttest+0x26>
	}
}
 800367e:	e000      	b.n	8003682 <ili_texttest+0xa2>
				break;
 8003680:	bf00      	nop
}
 8003682:	bf00      	nop
 8003684:	3710      	adds	r7, #16
 8003686:	46bd      	mov	sp, r7
 8003688:	e8bd 4080 	ldmia.w	sp!, {r7, lr}
 800368c:	b002      	add	sp, #8
 800368e:	4770      	bx	lr
 8003690:	240001e4 	.word	0x240001e4
 8003694:	240001bc 	.word	0x240001bc

08003698 <HAL_GPIO_EXTI_Callback>:

uint64_t micros()
{return _micros + htim17.Instance->CNT;}

void HAL_GPIO_EXTI_Callback(uint16_t GPIO_Pin){
 8003698:	b480      	push	{r7}
 800369a:	b083      	sub	sp, #12
 800369c:	af00      	add	r7, sp, #0
 800369e:	4603      	mov	r3, r0
 80036a0:	80fb      	strh	r3, [r7, #6]
	if(GPIO_Pin == GPIO_PIN_13){
 80036a2:	88fb      	ldrh	r3, [r7, #6]
 80036a4:	f5b3 5f00 	cmp.w	r3, #8192	; 0x2000
 80036a8:	d113      	bne.n	80036d2 <HAL_GPIO_EXTI_Callback+0x3a>
		bluecounter++;
 80036aa:	4b0d      	ldr	r3, [pc, #52]	; (80036e0 <HAL_GPIO_EXTI_Callback+0x48>)
 80036ac:	781b      	ldrb	r3, [r3, #0]
 80036ae:	3301      	adds	r3, #1
 80036b0:	b2da      	uxtb	r2, r3
 80036b2:	4b0b      	ldr	r3, [pc, #44]	; (80036e0 <HAL_GPIO_EXTI_Callback+0x48>)
 80036b4:	701a      	strb	r2, [r3, #0]
		bluecounter%=4;
 80036b6:	4b0a      	ldr	r3, [pc, #40]	; (80036e0 <HAL_GPIO_EXTI_Callback+0x48>)
 80036b8:	781b      	ldrb	r3, [r3, #0]
 80036ba:	f003 0303 	and.w	r3, r3, #3
 80036be:	b2da      	uxtb	r2, r3
 80036c0:	4b07      	ldr	r3, [pc, #28]	; (80036e0 <HAL_GPIO_EXTI_Callback+0x48>)
 80036c2:	701a      	strb	r2, [r3, #0]
		flag_blue = bluecounter;
 80036c4:	4b06      	ldr	r3, [pc, #24]	; (80036e0 <HAL_GPIO_EXTI_Callback+0x48>)
 80036c6:	781a      	ldrb	r2, [r3, #0]
 80036c8:	4b06      	ldr	r3, [pc, #24]	; (80036e4 <HAL_GPIO_EXTI_Callback+0x4c>)
 80036ca:	701a      	strb	r2, [r3, #0]
		ff = 1;
 80036cc:	4b06      	ldr	r3, [pc, #24]	; (80036e8 <HAL_GPIO_EXTI_Callback+0x50>)
 80036ce:	2201      	movs	r2, #1
 80036d0:	701a      	strb	r2, [r3, #0]
	}

}
 80036d2:	bf00      	nop
 80036d4:	370c      	adds	r7, #12
 80036d6:	46bd      	mov	sp, r7
 80036d8:	f85d 7b04 	ldr.w	r7, [sp], #4
 80036dc:	4770      	bx	lr
 80036de:	bf00      	nop
 80036e0:	240001a2 	.word	0x240001a2
 80036e4:	240001a3 	.word	0x240001a3
 80036e8:	240001a4 	.word	0x240001a4

080036ec <HAL_TIM_PeriodElapsedCallback>:

void HAL_TIM_PeriodElapsedCallback(TIM_HandleTypeDef *htim){
 80036ec:	b4b0      	push	{r4, r5, r7}
 80036ee:	b083      	sub	sp, #12
 80036f0:	af00      	add	r7, sp, #0
 80036f2:	6078      	str	r0, [r7, #4]
 if(htim == &htim17)
 80036f4:	687b      	ldr	r3, [r7, #4]
 80036f6:	4a09      	ldr	r2, [pc, #36]	; (800371c <HAL_TIM_PeriodElapsedCallback+0x30>)
 80036f8:	4293      	cmp	r3, r2
 80036fa:	d10a      	bne.n	8003712 <HAL_TIM_PeriodElapsedCallback+0x26>
 {_micros += 65535;}
 80036fc:	4b08      	ldr	r3, [pc, #32]	; (8003720 <HAL_TIM_PeriodElapsedCallback+0x34>)
 80036fe:	e9d3 2300 	ldrd	r2, r3, [r3]
 8003702:	f64f 71ff 	movw	r1, #65535	; 0xffff
 8003706:	1854      	adds	r4, r2, r1
 8003708:	f143 0500 	adc.w	r5, r3, #0
 800370c:	4b04      	ldr	r3, [pc, #16]	; (8003720 <HAL_TIM_PeriodElapsedCallback+0x34>)
 800370e:	e9c3 4500 	strd	r4, r5, [r3]
}
 8003712:	bf00      	nop
 8003714:	370c      	adds	r7, #12
 8003716:	46bd      	mov	sp, r7
 8003718:	bcb0      	pop	{r4, r5, r7}
 800371a:	4770      	bx	lr
 800371c:	240000bc 	.word	0x240000bc
 8003720:	240001d8 	.word	0x240001d8

08003724 <Error_Handler>:
/**
  * @brief  This function is executed in case of error occurrence.
  * @retval None
  */
void Error_Handler(void)
{
 8003724:	b480      	push	{r7}
 8003726:	af00      	add	r7, sp, #0
  \details Disables IRQ interrupts by setting the I-bit in the CPSR.
           Can only be executed in Privileged modes.
 */
__STATIC_FORCEINLINE void __disable_irq(void)
{
  __ASM volatile ("cpsid i" : : : "memory");
 8003728:	b672      	cpsid	i
}
 800372a:	bf00      	nop
  /* USER CODE BEGIN Error_Handler_Debug */
  /* User can add his own implementation to report the HAL error return state */
  __disable_irq();
  while (1)
 800372c:	e7fe      	b.n	800372c <Error_Handler+0x8>
	...

08003730 <HAL_MspInit>:
/* USER CODE END 0 */
/**
  * Initializes the Global MSP.
  */
void HAL_MspInit(void)
{
 8003730:	b480      	push	{r7}
 8003732:	b083      	sub	sp, #12
 8003734:	af00      	add	r7, sp, #0
  /* USER CODE BEGIN MspInit 0 */

  /* USER CODE END MspInit 0 */

  __HAL_RCC_SYSCFG_CLK_ENABLE();
 8003736:	4b0a      	ldr	r3, [pc, #40]	; (8003760 <HAL_MspInit+0x30>)
 8003738:	f8d3 3154 	ldr.w	r3, [r3, #340]	; 0x154
 800373c:	4a08      	ldr	r2, [pc, #32]	; (8003760 <HAL_MspInit+0x30>)
 800373e:	f043 0302 	orr.w	r3, r3, #2
 8003742:	f8c2 3154 	str.w	r3, [r2, #340]	; 0x154
 8003746:	4b06      	ldr	r3, [pc, #24]	; (8003760 <HAL_MspInit+0x30>)
 8003748:	f8d3 3154 	ldr.w	r3, [r3, #340]	; 0x154
 800374c:	f003 0302 	and.w	r3, r3, #2
 8003750:	607b      	str	r3, [r7, #4]
 8003752:	687b      	ldr	r3, [r7, #4]
  /* System interrupt init*/

  /* USER CODE BEGIN MspInit 1 */

  /* USER CODE END MspInit 1 */
}
 8003754:	bf00      	nop
 8003756:	370c      	adds	r7, #12
 8003758:	46bd      	mov	sp, r7
 800375a:	f85d 7b04 	ldr.w	r7, [sp], #4
 800375e:	4770      	bx	lr
 8003760:	58024400 	.word	0x58024400

08003764 <HAL_TIM_Base_MspInit>:
* This function configures the hardware resources used in this example
* @param htim_base: TIM_Base handle pointer
* @retval None
*/
void HAL_TIM_Base_MspInit(TIM_HandleTypeDef* htim_base)
{
 8003764:	b580      	push	{r7, lr}
 8003766:	b084      	sub	sp, #16
 8003768:	af00      	add	r7, sp, #0
 800376a:	6078      	str	r0, [r7, #4]
  if(htim_base->Instance==TIM17)
 800376c:	687b      	ldr	r3, [r7, #4]
 800376e:	681b      	ldr	r3, [r3, #0]
 8003770:	4a0e      	ldr	r2, [pc, #56]	; (80037ac <HAL_TIM_Base_MspInit+0x48>)
 8003772:	4293      	cmp	r3, r2
 8003774:	d116      	bne.n	80037a4 <HAL_TIM_Base_MspInit+0x40>
  {
  /* USER CODE BEGIN TIM17_MspInit 0 */

  /* USER CODE END TIM17_MspInit 0 */
    /* Peripheral clock enable */
    __HAL_RCC_TIM17_CLK_ENABLE();
 8003776:	4b0e      	ldr	r3, [pc, #56]	; (80037b0 <HAL_TIM_Base_MspInit+0x4c>)
 8003778:	f8d3 3150 	ldr.w	r3, [r3, #336]	; 0x150
 800377c:	4a0c      	ldr	r2, [pc, #48]	; (80037b0 <HAL_TIM_Base_MspInit+0x4c>)
 800377e:	f443 2380 	orr.w	r3, r3, #262144	; 0x40000
 8003782:	f8c2 3150 	str.w	r3, [r2, #336]	; 0x150
 8003786:	4b0a      	ldr	r3, [pc, #40]	; (80037b0 <HAL_TIM_Base_MspInit+0x4c>)
 8003788:	f8d3 3150 	ldr.w	r3, [r3, #336]	; 0x150
 800378c:	f403 2380 	and.w	r3, r3, #262144	; 0x40000
 8003790:	60fb      	str	r3, [r7, #12]
 8003792:	68fb      	ldr	r3, [r7, #12]
    /* TIM17 interrupt Init */
    HAL_NVIC_SetPriority(TIM17_IRQn, 0, 0);
 8003794:	2200      	movs	r2, #0
 8003796:	2100      	movs	r1, #0
 8003798:	2076      	movs	r0, #118	; 0x76
 800379a:	f000 fae0 	bl	8003d5e <HAL_NVIC_SetPriority>
    HAL_NVIC_EnableIRQ(TIM17_IRQn);
 800379e:	2076      	movs	r0, #118	; 0x76
 80037a0:	f000 faf7 	bl	8003d92 <HAL_NVIC_EnableIRQ>
  /* USER CODE BEGIN TIM17_MspInit 1 */

  /* USER CODE END TIM17_MspInit 1 */
  }

}
 80037a4:	bf00      	nop
 80037a6:	3710      	adds	r7, #16
 80037a8:	46bd      	mov	sp, r7
 80037aa:	bd80      	pop	{r7, pc}
 80037ac:	40014800 	.word	0x40014800
 80037b0:	58024400 	.word	0x58024400

080037b4 <HAL_UART_MspInit>:
* This function configures the hardware resources used in this example
* @param huart: UART handle pointer
* @retval None
*/
void HAL_UART_MspInit(UART_HandleTypeDef* huart)
{
 80037b4:	b580      	push	{r7, lr}
 80037b6:	b0b8      	sub	sp, #224	; 0xe0
 80037b8:	af00      	add	r7, sp, #0
 80037ba:	6078      	str	r0, [r7, #4]
  GPIO_InitTypeDef GPIO_InitStruct = {0};
 80037bc:	f107 03cc 	add.w	r3, r7, #204	; 0xcc
 80037c0:	2200      	movs	r2, #0
 80037c2:	601a      	str	r2, [r3, #0]
 80037c4:	605a      	str	r2, [r3, #4]
 80037c6:	609a      	str	r2, [r3, #8]
 80037c8:	60da      	str	r2, [r3, #12]
 80037ca:	611a      	str	r2, [r3, #16]
  RCC_PeriphCLKInitTypeDef PeriphClkInitStruct = {0};
 80037cc:	f107 0314 	add.w	r3, r7, #20
 80037d0:	22b8      	movs	r2, #184	; 0xb8
 80037d2:	2100      	movs	r1, #0
 80037d4:	4618      	mov	r0, r3
 80037d6:	f004 fbfb 	bl	8007fd0 <memset>
  if(huart->Instance==USART3)
 80037da:	687b      	ldr	r3, [r7, #4]
 80037dc:	681b      	ldr	r3, [r3, #0]
 80037de:	4a25      	ldr	r2, [pc, #148]	; (8003874 <HAL_UART_MspInit+0xc0>)
 80037e0:	4293      	cmp	r3, r2
 80037e2:	d142      	bne.n	800386a <HAL_UART_MspInit+0xb6>

  /* USER CODE END USART3_MspInit 0 */

  /** Initializes the peripherals clock
  */
    PeriphClkInitStruct.PeriphClockSelection = RCC_PERIPHCLK_USART3;
 80037e4:	2302      	movs	r3, #2
 80037e6:	617b      	str	r3, [r7, #20]
    PeriphClkInitStruct.Usart234578ClockSelection = RCC_USART234578CLKSOURCE_D2PCLK1;
 80037e8:	2300      	movs	r3, #0
 80037ea:	f8c7 3090 	str.w	r3, [r7, #144]	; 0x90
    if (HAL_RCCEx_PeriphCLKConfig(&PeriphClkInitStruct) != HAL_OK)
 80037ee:	f107 0314 	add.w	r3, r7, #20
 80037f2:	4618      	mov	r0, r3
 80037f4:	f001 fcd0 	bl	8005198 <HAL_RCCEx_PeriphCLKConfig>
 80037f8:	4603      	mov	r3, r0
 80037fa:	2b00      	cmp	r3, #0
 80037fc:	d001      	beq.n	8003802 <HAL_UART_MspInit+0x4e>
    {
      Error_Handler();
 80037fe:	f7ff ff91 	bl	8003724 <Error_Handler>
    }

    /* Peripheral clock enable */
    __HAL_RCC_USART3_CLK_ENABLE();
 8003802:	4b1d      	ldr	r3, [pc, #116]	; (8003878 <HAL_UART_MspInit+0xc4>)
 8003804:	f8d3 3148 	ldr.w	r3, [r3, #328]	; 0x148
 8003808:	4a1b      	ldr	r2, [pc, #108]	; (8003878 <HAL_UART_MspInit+0xc4>)
 800380a:	f443 2380 	orr.w	r3, r3, #262144	; 0x40000
 800380e:	f8c2 3148 	str.w	r3, [r2, #328]	; 0x148
 8003812:	4b19      	ldr	r3, [pc, #100]	; (8003878 <HAL_UART_MspInit+0xc4>)
 8003814:	f8d3 3148 	ldr.w	r3, [r3, #328]	; 0x148
 8003818:	f403 2380 	and.w	r3, r3, #262144	; 0x40000
 800381c:	613b      	str	r3, [r7, #16]
 800381e:	693b      	ldr	r3, [r7, #16]

    __HAL_RCC_GPIOD_CLK_ENABLE();
 8003820:	4b15      	ldr	r3, [pc, #84]	; (8003878 <HAL_UART_MspInit+0xc4>)
 8003822:	f8d3 3140 	ldr.w	r3, [r3, #320]	; 0x140
 8003826:	4a14      	ldr	r2, [pc, #80]	; (8003878 <HAL_UART_MspInit+0xc4>)
 8003828:	f043 0308 	orr.w	r3, r3, #8
 800382c:	f8c2 3140 	str.w	r3, [r2, #320]	; 0x140
 8003830:	4b11      	ldr	r3, [pc, #68]	; (8003878 <HAL_UART_MspInit+0xc4>)
 8003832:	f8d3 3140 	ldr.w	r3, [r3, #320]	; 0x140
 8003836:	f003 0308 	and.w	r3, r3, #8
 800383a:	60fb      	str	r3, [r7, #12]
 800383c:	68fb      	ldr	r3, [r7, #12]
    /**USART3 GPIO Configuration
    PD8     ------> USART3_TX
    PD9     ------> USART3_RX
    */
    GPIO_InitStruct.Pin = STLINK_RX_Pin|STLINK_TX_Pin;
 800383e:	f44f 7340 	mov.w	r3, #768	; 0x300
 8003842:	f8c7 30cc 	str.w	r3, [r7, #204]	; 0xcc
    GPIO_InitStruct.Mode = GPIO_MODE_AF_PP;
 8003846:	2302      	movs	r3, #2
 8003848:	f8c7 30d0 	str.w	r3, [r7, #208]	; 0xd0
    GPIO_InitStruct.Pull = GPIO_NOPULL;
 800384c:	2300      	movs	r3, #0
 800384e:	f8c7 30d4 	str.w	r3, [r7, #212]	; 0xd4
    GPIO_InitStruct.Speed = GPIO_SPEED_FREQ_LOW;
 8003852:	2300      	movs	r3, #0
 8003854:	f8c7 30d8 	str.w	r3, [r7, #216]	; 0xd8
    GPIO_InitStruct.Alternate = GPIO_AF7_USART3;
 8003858:	2307      	movs	r3, #7
 800385a:	f8c7 30dc 	str.w	r3, [r7, #220]	; 0xdc
    HAL_GPIO_Init(GPIOD, &GPIO_InitStruct);
 800385e:	f107 03cc 	add.w	r3, r7, #204	; 0xcc
 8003862:	4619      	mov	r1, r3
 8003864:	4805      	ldr	r0, [pc, #20]	; (800387c <HAL_UART_MspInit+0xc8>)
 8003866:	f000 faaf 	bl	8003dc8 <HAL_GPIO_Init>
  /* USER CODE BEGIN USART3_MspInit 1 */

  /* USER CODE END USART3_MspInit 1 */
  }

}
 800386a:	bf00      	nop
 800386c:	37e0      	adds	r7, #224	; 0xe0
 800386e:	46bd      	mov	sp, r7
 8003870:	bd80      	pop	{r7, pc}
 8003872:	bf00      	nop
 8003874:	40004800 	.word	0x40004800
 8003878:	58024400 	.word	0x58024400
 800387c:	58020c00 	.word	0x58020c00

08003880 <NMI_Handler>:
/******************************************************************************/
/**
  * @brief This function handles Non maskable interrupt.
  */
void NMI_Handler(void)
{
 8003880:	b480      	push	{r7}
 8003882:	af00      	add	r7, sp, #0
  /* USER CODE BEGIN NonMaskableInt_IRQn 0 */

  /* USER CODE END NonMaskableInt_IRQn 0 */
  /* USER CODE BEGIN NonMaskableInt_IRQn 1 */
  while (1)
 8003884:	e7fe      	b.n	8003884 <NMI_Handler+0x4>

08003886 <HardFault_Handler>:

/**
  * @brief This function handles Hard fault interrupt.
  */
void HardFault_Handler(void)
{
 8003886:	b480      	push	{r7}
 8003888:	af00      	add	r7, sp, #0
  /* USER CODE BEGIN HardFault_IRQn 0 */

  /* USER CODE END HardFault_IRQn 0 */
  while (1)
 800388a:	e7fe      	b.n	800388a <HardFault_Handler+0x4>

0800388c <MemManage_Handler>:

/**
  * @brief This function handles Memory management fault.
  */
void MemManage_Handler(void)
{
 800388c:	b480      	push	{r7}
 800388e:	af00      	add	r7, sp, #0
  /* USER CODE BEGIN MemoryManagement_IRQn 0 */

  /* USER CODE END MemoryManagement_IRQn 0 */
  while (1)
 8003890:	e7fe      	b.n	8003890 <MemManage_Handler+0x4>

08003892 <BusFault_Handler>:

/**
  * @brief This function handles Pre-fetch fault, memory access fault.
  */
void BusFault_Handler(void)
{
 8003892:	b480      	push	{r7}
 8003894:	af00      	add	r7, sp, #0
  /* USER CODE BEGIN BusFault_IRQn 0 */

  /* USER CODE END BusFault_IRQn 0 */
  while (1)
 8003896:	e7fe      	b.n	8003896 <BusFault_Handler+0x4>

08003898 <UsageFault_Handler>:

/**
  * @brief This function handles Undefined instruction or illegal state.
  */
void UsageFault_Handler(void)
{
 8003898:	b480      	push	{r7}
 800389a:	af00      	add	r7, sp, #0
  /* USER CODE BEGIN UsageFault_IRQn 0 */

  /* USER CODE END UsageFault_IRQn 0 */
  while (1)
 800389c:	e7fe      	b.n	800389c <UsageFault_Handler+0x4>

0800389e <SVC_Handler>:

/**
  * @brief This function handles System service call via SWI instruction.
  */
void SVC_Handler(void)
{
 800389e:	b480      	push	{r7}
 80038a0:	af00      	add	r7, sp, #0

  /* USER CODE END SVCall_IRQn 0 */
  /* USER CODE BEGIN SVCall_IRQn 1 */

  /* USER CODE END SVCall_IRQn 1 */
}
 80038a2:	bf00      	nop
 80038a4:	46bd      	mov	sp, r7
 80038a6:	f85d 7b04 	ldr.w	r7, [sp], #4
 80038aa:	4770      	bx	lr

080038ac <DebugMon_Handler>:

/**
  * @brief This function handles Debug monitor.
  */
void DebugMon_Handler(void)
{
 80038ac:	b480      	push	{r7}
 80038ae:	af00      	add	r7, sp, #0

  /* USER CODE END DebugMonitor_IRQn 0 */
  /* USER CODE BEGIN DebugMonitor_IRQn 1 */

  /* USER CODE END DebugMonitor_IRQn 1 */
}
 80038b0:	bf00      	nop
 80038b2:	46bd      	mov	sp, r7
 80038b4:	f85d 7b04 	ldr.w	r7, [sp], #4
 80038b8:	4770      	bx	lr

080038ba <PendSV_Handler>:

/**
  * @brief This function handles Pendable request for system service.
  */
void PendSV_Handler(void)
{
 80038ba:	b480      	push	{r7}
 80038bc:	af00      	add	r7, sp, #0

  /* USER CODE END PendSV_IRQn 0 */
  /* USER CODE BEGIN PendSV_IRQn 1 */

  /* USER CODE END PendSV_IRQn 1 */
}
 80038be:	bf00      	nop
 80038c0:	46bd      	mov	sp, r7
 80038c2:	f85d 7b04 	ldr.w	r7, [sp], #4
 80038c6:	4770      	bx	lr

080038c8 <SysTick_Handler>:

/**
  * @brief This function handles System tick timer.
  */
void SysTick_Handler(void)
{
 80038c8:	b580      	push	{r7, lr}
 80038ca:	af00      	add	r7, sp, #0
  /* USER CODE BEGIN SysTick_IRQn 0 */

  /* USER CODE END SysTick_IRQn 0 */
  HAL_IncTick();
 80038cc:	f000 f928 	bl	8003b20 <HAL_IncTick>
  /* USER CODE BEGIN SysTick_IRQn 1 */

  /* USER CODE END SysTick_IRQn 1 */
}
 80038d0:	bf00      	nop
 80038d2:	bd80      	pop	{r7, pc}

080038d4 <EXTI15_10_IRQHandler>:

/**
  * @brief This function handles EXTI line[15:10] interrupts.
  */
void EXTI15_10_IRQHandler(void)
{
 80038d4:	b580      	push	{r7, lr}
 80038d6:	af00      	add	r7, sp, #0
  /* USER CODE BEGIN EXTI15_10_IRQn 0 */

  /* USER CODE END EXTI15_10_IRQn 0 */
  HAL_GPIO_EXTI_IRQHandler(B1_Pin);
 80038d8:	f44f 5000 	mov.w	r0, #8192	; 0x2000
 80038dc:	f000 fc57 	bl	800418e <HAL_GPIO_EXTI_IRQHandler>
  /* USER CODE BEGIN EXTI15_10_IRQn 1 */

  /* USER CODE END EXTI15_10_IRQn 1 */
}
 80038e0:	bf00      	nop
 80038e2:	bd80      	pop	{r7, pc}

080038e4 <TIM17_IRQHandler>:

/**
  * @brief This function handles TIM17 global interrupt.
  */
void TIM17_IRQHandler(void)
{
 80038e4:	b580      	push	{r7, lr}
 80038e6:	af00      	add	r7, sp, #0
  /* USER CODE BEGIN TIM17_IRQn 0 */

  /* USER CODE END TIM17_IRQn 0 */
  HAL_TIM_IRQHandler(&htim17);
 80038e8:	4802      	ldr	r0, [pc, #8]	; (80038f4 <TIM17_IRQHandler+0x10>)
 80038ea:	f002 ffda 	bl	80068a2 <HAL_TIM_IRQHandler>
  /* USER CODE BEGIN TIM17_IRQn 1 */

  /* USER CODE END TIM17_IRQn 1 */
}
 80038ee:	bf00      	nop
 80038f0:	bd80      	pop	{r7, pc}
 80038f2:	bf00      	nop
 80038f4:	240000bc 	.word	0x240000bc

080038f8 <SystemInit>:
  *         configuration.
  * @param  None
  * @retval None
  */
void SystemInit (void)
{
 80038f8:	b480      	push	{r7}
 80038fa:	af00      	add	r7, sp, #0
 __IO uint32_t tmpreg;
#endif /* DATA_IN_D2_SRAM */

  /* FPU settings ------------------------------------------------------------*/
  #if (__FPU_PRESENT == 1) && (__FPU_USED == 1)
    SCB->CPACR |= ((3UL << (10*2))|(3UL << (11*2)));  /* set CP10 and CP11 Full Access */
 80038fc:	4b32      	ldr	r3, [pc, #200]	; (80039c8 <SystemInit+0xd0>)
 80038fe:	f8d3 3088 	ldr.w	r3, [r3, #136]	; 0x88
 8003902:	4a31      	ldr	r2, [pc, #196]	; (80039c8 <SystemInit+0xd0>)
 8003904:	f443 0370 	orr.w	r3, r3, #15728640	; 0xf00000
 8003908:	f8c2 3088 	str.w	r3, [r2, #136]	; 0x88
  #endif
  /* Reset the RCC clock configuration to the default reset state ------------*/

   /* Increasing the CPU frequency */
  if(FLASH_LATENCY_DEFAULT  > (READ_BIT((FLASH->ACR), FLASH_ACR_LATENCY)))
 800390c:	4b2f      	ldr	r3, [pc, #188]	; (80039cc <SystemInit+0xd4>)
 800390e:	681b      	ldr	r3, [r3, #0]
 8003910:	f003 030f 	and.w	r3, r3, #15
 8003914:	2b02      	cmp	r3, #2
 8003916:	d807      	bhi.n	8003928 <SystemInit+0x30>
  {
    /* Program the new number of wait states to the LATENCY bits in the FLASH_ACR register */
    MODIFY_REG(FLASH->ACR, FLASH_ACR_LATENCY, (uint32_t)(FLASH_LATENCY_DEFAULT));
 8003918:	4b2c      	ldr	r3, [pc, #176]	; (80039cc <SystemInit+0xd4>)
 800391a:	681b      	ldr	r3, [r3, #0]
 800391c:	f023 030f 	bic.w	r3, r3, #15
 8003920:	4a2a      	ldr	r2, [pc, #168]	; (80039cc <SystemInit+0xd4>)
 8003922:	f043 0303 	orr.w	r3, r3, #3
 8003926:	6013      	str	r3, [r2, #0]
  }

  /* Set HSION bit */
  RCC->CR |= RCC_CR_HSION;
 8003928:	4b29      	ldr	r3, [pc, #164]	; (80039d0 <SystemInit+0xd8>)
 800392a:	681b      	ldr	r3, [r3, #0]
 800392c:	4a28      	ldr	r2, [pc, #160]	; (80039d0 <SystemInit+0xd8>)
 800392e:	f043 0301 	orr.w	r3, r3, #1
 8003932:	6013      	str	r3, [r2, #0]

  /* Reset CFGR register */
  RCC->CFGR = 0x00000000;
 8003934:	4b26      	ldr	r3, [pc, #152]	; (80039d0 <SystemInit+0xd8>)
 8003936:	2200      	movs	r2, #0
 8003938:	611a      	str	r2, [r3, #16]

  /* Reset HSEON, HSECSSON, CSION, HSI48ON, CSIKERON, PLL1ON, PLL2ON and PLL3ON bits */
  RCC->CR &= 0xEAF6ED7FU;
 800393a:	4b25      	ldr	r3, [pc, #148]	; (80039d0 <SystemInit+0xd8>)
 800393c:	681a      	ldr	r2, [r3, #0]
 800393e:	4924      	ldr	r1, [pc, #144]	; (80039d0 <SystemInit+0xd8>)
 8003940:	4b24      	ldr	r3, [pc, #144]	; (80039d4 <SystemInit+0xdc>)
 8003942:	4013      	ands	r3, r2
 8003944:	600b      	str	r3, [r1, #0]

   /* Decreasing the number of wait states because of lower CPU frequency */
  if(FLASH_LATENCY_DEFAULT  < (READ_BIT((FLASH->ACR), FLASH_ACR_LATENCY)))
 8003946:	4b21      	ldr	r3, [pc, #132]	; (80039cc <SystemInit+0xd4>)
 8003948:	681b      	ldr	r3, [r3, #0]
 800394a:	f003 030c 	and.w	r3, r3, #12
 800394e:	2b00      	cmp	r3, #0
 8003950:	d007      	beq.n	8003962 <SystemInit+0x6a>
  {
    /* Program the new number of wait states to the LATENCY bits in the FLASH_ACR register */
    MODIFY_REG(FLASH->ACR, FLASH_ACR_LATENCY, (uint32_t)(FLASH_LATENCY_DEFAULT));
 8003952:	4b1e      	ldr	r3, [pc, #120]	; (80039cc <SystemInit+0xd4>)
 8003954:	681b      	ldr	r3, [r3, #0]
 8003956:	f023 030f 	bic.w	r3, r3, #15
 800395a:	4a1c      	ldr	r2, [pc, #112]	; (80039cc <SystemInit+0xd4>)
 800395c:	f043 0303 	orr.w	r3, r3, #3
 8003960:	6013      	str	r3, [r2, #0]

  /* Reset D3CFGR register */
  RCC->D3CFGR = 0x00000000;
#else
  /* Reset CDCFGR1 register */
  RCC->CDCFGR1 = 0x00000000;
 8003962:	4b1b      	ldr	r3, [pc, #108]	; (80039d0 <SystemInit+0xd8>)
 8003964:	2200      	movs	r2, #0
 8003966:	619a      	str	r2, [r3, #24]

  /* Reset CDCFGR2 register */
  RCC->CDCFGR2 = 0x00000000;
 8003968:	4b19      	ldr	r3, [pc, #100]	; (80039d0 <SystemInit+0xd8>)
 800396a:	2200      	movs	r2, #0
 800396c:	61da      	str	r2, [r3, #28]

  /* Reset SRDCFGR register */
  RCC->SRDCFGR = 0x00000000;
 800396e:	4b18      	ldr	r3, [pc, #96]	; (80039d0 <SystemInit+0xd8>)
 8003970:	2200      	movs	r2, #0
 8003972:	621a      	str	r2, [r3, #32]
#endif
  /* Reset PLLCKSELR register */
  RCC->PLLCKSELR = 0x02020200;
 8003974:	4b16      	ldr	r3, [pc, #88]	; (80039d0 <SystemInit+0xd8>)
 8003976:	4a18      	ldr	r2, [pc, #96]	; (80039d8 <SystemInit+0xe0>)
 8003978:	629a      	str	r2, [r3, #40]	; 0x28

  /* Reset PLLCFGR register */
  RCC->PLLCFGR = 0x01FF0000;
 800397a:	4b15      	ldr	r3, [pc, #84]	; (80039d0 <SystemInit+0xd8>)
 800397c:	4a17      	ldr	r2, [pc, #92]	; (80039dc <SystemInit+0xe4>)
 800397e:	62da      	str	r2, [r3, #44]	; 0x2c
  /* Reset PLL1DIVR register */
  RCC->PLL1DIVR = 0x01010280;
 8003980:	4b13      	ldr	r3, [pc, #76]	; (80039d0 <SystemInit+0xd8>)
 8003982:	4a17      	ldr	r2, [pc, #92]	; (80039e0 <SystemInit+0xe8>)
 8003984:	631a      	str	r2, [r3, #48]	; 0x30
  /* Reset PLL1FRACR register */
  RCC->PLL1FRACR = 0x00000000;
 8003986:	4b12      	ldr	r3, [pc, #72]	; (80039d0 <SystemInit+0xd8>)
 8003988:	2200      	movs	r2, #0
 800398a:	635a      	str	r2, [r3, #52]	; 0x34

  /* Reset PLL2DIVR register */
  RCC->PLL2DIVR = 0x01010280;
 800398c:	4b10      	ldr	r3, [pc, #64]	; (80039d0 <SystemInit+0xd8>)
 800398e:	4a14      	ldr	r2, [pc, #80]	; (80039e0 <SystemInit+0xe8>)
 8003990:	639a      	str	r2, [r3, #56]	; 0x38

  /* Reset PLL2FRACR register */

  RCC->PLL2FRACR = 0x00000000;
 8003992:	4b0f      	ldr	r3, [pc, #60]	; (80039d0 <SystemInit+0xd8>)
 8003994:	2200      	movs	r2, #0
 8003996:	63da      	str	r2, [r3, #60]	; 0x3c
  /* Reset PLL3DIVR register */
  RCC->PLL3DIVR = 0x01010280;
 8003998:	4b0d      	ldr	r3, [pc, #52]	; (80039d0 <SystemInit+0xd8>)
 800399a:	4a11      	ldr	r2, [pc, #68]	; (80039e0 <SystemInit+0xe8>)
 800399c:	641a      	str	r2, [r3, #64]	; 0x40

  /* Reset PLL3FRACR register */
  RCC->PLL3FRACR = 0x00000000;
 800399e:	4b0c      	ldr	r3, [pc, #48]	; (80039d0 <SystemInit+0xd8>)
 80039a0:	2200      	movs	r2, #0
 80039a2:	645a      	str	r2, [r3, #68]	; 0x44

  /* Reset HSEBYP bit */
  RCC->CR &= 0xFFFBFFFFU;
 80039a4:	4b0a      	ldr	r3, [pc, #40]	; (80039d0 <SystemInit+0xd8>)
 80039a6:	681b      	ldr	r3, [r3, #0]
 80039a8:	4a09      	ldr	r2, [pc, #36]	; (80039d0 <SystemInit+0xd8>)
 80039aa:	f423 2380 	bic.w	r3, r3, #262144	; 0x40000
 80039ae:	6013      	str	r3, [r2, #0]

  /* Disable all interrupts */
  RCC->CIER = 0x00000000;
 80039b0:	4b07      	ldr	r3, [pc, #28]	; (80039d0 <SystemInit+0xd8>)
 80039b2:	2200      	movs	r2, #0
 80039b4:	661a      	str	r2, [r3, #96]	; 0x60
  /*
   * Disable the FMC bank1 (enabled after reset).
   * This, prevents CPU speculation access on this bank which blocks the use of FMC during
   * 24us. During this time the others FMC master (such as LTDC) cannot use it!
   */
  FMC_Bank1_R->BTCR[0] = 0x000030D2;
 80039b6:	4b0b      	ldr	r3, [pc, #44]	; (80039e4 <SystemInit+0xec>)
 80039b8:	f243 02d2 	movw	r2, #12498	; 0x30d2
 80039bc:	601a      	str	r2, [r3, #0]
#if defined(USER_VECT_TAB_ADDRESS)
  SCB->VTOR = VECT_TAB_BASE_ADDRESS | VECT_TAB_OFFSET; /* Vector Table Relocation in Internal D1 AXI-RAM or in Internal FLASH */
#endif /* USER_VECT_TAB_ADDRESS */

#endif /*DUAL_CORE && CORE_CM4*/
}
 80039be:	bf00      	nop
 80039c0:	46bd      	mov	sp, r7
 80039c2:	f85d 7b04 	ldr.w	r7, [sp], #4
 80039c6:	4770      	bx	lr
 80039c8:	e000ed00 	.word	0xe000ed00
 80039cc:	52002000 	.word	0x52002000
 80039d0:	58024400 	.word	0x58024400
 80039d4:	eaf6ed7f 	.word	0xeaf6ed7f
 80039d8:	02020200 	.word	0x02020200
 80039dc:	01ff0000 	.word	0x01ff0000
 80039e0:	01010280 	.word	0x01010280
 80039e4:	52004000 	.word	0x52004000

080039e8 <Reset_Handler>:

    .section  .text.Reset_Handler
  .weak  Reset_Handler
  .type  Reset_Handler, %function
Reset_Handler:  
  ldr   sp, =_estack      /* set stack pointer */
 80039e8:	f8df d034 	ldr.w	sp, [pc, #52]	; 8003a20 <LoopFillZerobss+0xe>
  
/* Call the clock system initialization function.*/
  bl  SystemInit
 80039ec:	f7ff ff84 	bl	80038f8 <SystemInit>
  
/* Copy the data segment initializers from flash to SRAM */  
  ldr r0, =_sdata
 80039f0:	480c      	ldr	r0, [pc, #48]	; (8003a24 <LoopFillZerobss+0x12>)
  ldr r1, =_edata
 80039f2:	490d      	ldr	r1, [pc, #52]	; (8003a28 <LoopFillZerobss+0x16>)
  ldr r2, =_sidata
 80039f4:	4a0d      	ldr	r2, [pc, #52]	; (8003a2c <LoopFillZerobss+0x1a>)
  movs r3, #0
 80039f6:	2300      	movs	r3, #0
  b LoopCopyDataInit
 80039f8:	e002      	b.n	8003a00 <LoopCopyDataInit>

080039fa <CopyDataInit>:

CopyDataInit:
  ldr r4, [r2, r3]
 80039fa:	58d4      	ldr	r4, [r2, r3]
  str r4, [r0, r3]
 80039fc:	50c4      	str	r4, [r0, r3]
  adds r3, r3, #4
 80039fe:	3304      	adds	r3, #4

08003a00 <LoopCopyDataInit>:
    
LoopCopyDataInit:
  adds r4, r0, r3
 8003a00:	18c4      	adds	r4, r0, r3
  cmp r4, r1
 8003a02:	428c      	cmp	r4, r1
  bcc CopyDataInit
 8003a04:	d3f9      	bcc.n	80039fa <CopyDataInit>
/* Zero fill the bss segment. */
  ldr r2, =_sbss
 8003a06:	4a0a      	ldr	r2, [pc, #40]	; (8003a30 <LoopFillZerobss+0x1e>)
  ldr r4, =_ebss
 8003a08:	4c0a      	ldr	r4, [pc, #40]	; (8003a34 <LoopFillZerobss+0x22>)
  movs r3, #0
 8003a0a:	2300      	movs	r3, #0
  b LoopFillZerobss
 8003a0c:	e001      	b.n	8003a12 <LoopFillZerobss>

08003a0e <FillZerobss>:

FillZerobss:
  str  r3, [r2]
 8003a0e:	6013      	str	r3, [r2, #0]
  adds r2, r2, #4
 8003a10:	3204      	adds	r2, #4

08003a12 <LoopFillZerobss>:

LoopFillZerobss:
  cmp r2, r4
 8003a12:	42a2      	cmp	r2, r4
  bcc FillZerobss
 8003a14:	d3fb      	bcc.n	8003a0e <FillZerobss>
  
/* Call static constructors */
    bl __libc_init_array
 8003a16:	f004 fab7 	bl	8007f88 <__libc_init_array>
/* Call the application's entry point.*/
  bl  main
 8003a1a:	f7ff f89f 	bl	8002b5c <main>
  bx  lr
 8003a1e:	4770      	bx	lr
  ldr   sp, =_estack      /* set stack pointer */
 8003a20:	24100000 	.word	0x24100000
  ldr r0, =_sdata
 8003a24:	24000000 	.word	0x24000000
  ldr r1, =_edata
 8003a28:	24000080 	.word	0x24000080
  ldr r2, =_sidata
 8003a2c:	080198d4 	.word	0x080198d4
  ldr r2, =_sbss
 8003a30:	24000080 	.word	0x24000080
  ldr r4, =_ebss
 8003a34:	240001ec 	.word	0x240001ec

08003a38 <ADC_IRQHandler>:
 * @retval None       
*/
    .section  .text.Default_Handler,"ax",%progbits
Default_Handler:
Infinite_Loop:
  b  Infinite_Loop
 8003a38:	e7fe      	b.n	8003a38 <ADC_IRQHandler>
	...

08003a3c <HAL_Init>:
  *         need to ensure that the SysTick time base is always set to 1 millisecond
  *         to have correct HAL operation.
  * @retval HAL status
  */
HAL_StatusTypeDef HAL_Init(void)
{
 8003a3c:	b580      	push	{r7, lr}
 8003a3e:	b082      	sub	sp, #8
 8003a40:	af00      	add	r7, sp, #0
   __HAL_ART_CONFIG_BASE_ADDRESS(0x08100000UL);  /* Configure the Cortex-M4 ART Base address to the Flash Bank 2 : */
   __HAL_ART_ENABLE();                           /* Enable the Cortex-M4 ART */
#endif /* DUAL_CORE &&  CORE_CM4 */

  /* Set Interrupt Group Priority */
  HAL_NVIC_SetPriorityGrouping(NVIC_PRIORITYGROUP_4);
 8003a42:	2003      	movs	r0, #3
 8003a44:	f000 f980 	bl	8003d48 <HAL_NVIC_SetPriorityGrouping>

  /* Update the SystemCoreClock global variable */
#if defined(RCC_D1CFGR_D1CPRE)
  common_system_clock = HAL_RCC_GetSysClockFreq() >> ((D1CorePrescTable[(RCC->D1CFGR & RCC_D1CFGR_D1CPRE)>> RCC_D1CFGR_D1CPRE_Pos]) & 0x1FU);
#else
  common_system_clock = HAL_RCC_GetSysClockFreq() >> ((D1CorePrescTable[(RCC->CDCFGR1 & RCC_CDCFGR1_CDCPRE)>> RCC_CDCFGR1_CDCPRE_Pos]) & 0x1FU);
 8003a48:	f001 f9d0 	bl	8004dec <HAL_RCC_GetSysClockFreq>
 8003a4c:	4602      	mov	r2, r0
 8003a4e:	4b15      	ldr	r3, [pc, #84]	; (8003aa4 <HAL_Init+0x68>)
 8003a50:	699b      	ldr	r3, [r3, #24]
 8003a52:	0a1b      	lsrs	r3, r3, #8
 8003a54:	f003 030f 	and.w	r3, r3, #15
 8003a58:	4913      	ldr	r1, [pc, #76]	; (8003aa8 <HAL_Init+0x6c>)
 8003a5a:	5ccb      	ldrb	r3, [r1, r3]
 8003a5c:	f003 031f 	and.w	r3, r3, #31
 8003a60:	fa22 f303 	lsr.w	r3, r2, r3
 8003a64:	607b      	str	r3, [r7, #4]

  /* Update the SystemD2Clock global variable */
#if defined(RCC_D1CFGR_HPRE)
  SystemD2Clock = (common_system_clock >> ((D1CorePrescTable[(RCC->D1CFGR & RCC_D1CFGR_HPRE)>> RCC_D1CFGR_HPRE_Pos]) & 0x1FU));
#else
  SystemD2Clock = (common_system_clock >> ((D1CorePrescTable[(RCC->CDCFGR1 & RCC_CDCFGR1_HPRE)>> RCC_CDCFGR1_HPRE_Pos]) & 0x1FU));
 8003a66:	4b0f      	ldr	r3, [pc, #60]	; (8003aa4 <HAL_Init+0x68>)
 8003a68:	699b      	ldr	r3, [r3, #24]
 8003a6a:	f003 030f 	and.w	r3, r3, #15
 8003a6e:	4a0e      	ldr	r2, [pc, #56]	; (8003aa8 <HAL_Init+0x6c>)
 8003a70:	5cd3      	ldrb	r3, [r2, r3]
 8003a72:	f003 031f 	and.w	r3, r3, #31
 8003a76:	687a      	ldr	r2, [r7, #4]
 8003a78:	fa22 f303 	lsr.w	r3, r2, r3
 8003a7c:	4a0b      	ldr	r2, [pc, #44]	; (8003aac <HAL_Init+0x70>)
 8003a7e:	6013      	str	r3, [r2, #0]
#endif

#if defined(DUAL_CORE) && defined(CORE_CM4)
  SystemCoreClock = SystemD2Clock;
#else
  SystemCoreClock = common_system_clock;
 8003a80:	4a0b      	ldr	r2, [pc, #44]	; (8003ab0 <HAL_Init+0x74>)
 8003a82:	687b      	ldr	r3, [r7, #4]
 8003a84:	6013      	str	r3, [r2, #0]
#endif /* DUAL_CORE && CORE_CM4 */

  /* Use systick as time base source and configure 1ms tick (default clock after Reset is HSI) */
  if(HAL_InitTick(TICK_INT_PRIORITY) != HAL_OK)
 8003a86:	2000      	movs	r0, #0
 8003a88:	f000 f814 	bl	8003ab4 <HAL_InitTick>
 8003a8c:	4603      	mov	r3, r0
 8003a8e:	2b00      	cmp	r3, #0
 8003a90:	d001      	beq.n	8003a96 <HAL_Init+0x5a>
  {
    return HAL_ERROR;
 8003a92:	2301      	movs	r3, #1
 8003a94:	e002      	b.n	8003a9c <HAL_Init+0x60>
  }

  /* Init the low level hardware */
  HAL_MspInit();
 8003a96:	f7ff fe4b 	bl	8003730 <HAL_MspInit>

  /* Return function status */
  return HAL_OK;
 8003a9a:	2300      	movs	r3, #0
}
 8003a9c:	4618      	mov	r0, r3
 8003a9e:	3708      	adds	r7, #8
 8003aa0:	46bd      	mov	sp, r7
 8003aa2:	bd80      	pop	{r7, pc}
 8003aa4:	58024400 	.word	0x58024400
 8003aa8:	0801988c 	.word	0x0801988c
 8003aac:	24000074 	.word	0x24000074
 8003ab0:	24000070 	.word	0x24000070

08003ab4 <HAL_InitTick>:
  *       implementation  in user file.
  * @param TickPriority: Tick interrupt priority.
  * @retval HAL status
  */
__weak HAL_StatusTypeDef HAL_InitTick(uint32_t TickPriority)
{
 8003ab4:	b580      	push	{r7, lr}
 8003ab6:	b082      	sub	sp, #8
 8003ab8:	af00      	add	r7, sp, #0
 8003aba:	6078      	str	r0, [r7, #4]
  /* Check uwTickFreq for MisraC 2012 (even if uwTickFreq is a enum type that don't take the value zero)*/
  if((uint32_t)uwTickFreq == 0UL)
 8003abc:	4b15      	ldr	r3, [pc, #84]	; (8003b14 <HAL_InitTick+0x60>)
 8003abe:	781b      	ldrb	r3, [r3, #0]
 8003ac0:	2b00      	cmp	r3, #0
 8003ac2:	d101      	bne.n	8003ac8 <HAL_InitTick+0x14>
  {
    return HAL_ERROR;
 8003ac4:	2301      	movs	r3, #1
 8003ac6:	e021      	b.n	8003b0c <HAL_InitTick+0x58>
  }

    /* Configure the SysTick to have interrupt in 1ms time basis*/
    if (HAL_SYSTICK_Config(SystemCoreClock / (1000UL / (uint32_t)uwTickFreq)) > 0U)
 8003ac8:	4b13      	ldr	r3, [pc, #76]	; (8003b18 <HAL_InitTick+0x64>)
 8003aca:	681a      	ldr	r2, [r3, #0]
 8003acc:	4b11      	ldr	r3, [pc, #68]	; (8003b14 <HAL_InitTick+0x60>)
 8003ace:	781b      	ldrb	r3, [r3, #0]
 8003ad0:	4619      	mov	r1, r3
 8003ad2:	f44f 737a 	mov.w	r3, #1000	; 0x3e8
 8003ad6:	fbb3 f3f1 	udiv	r3, r3, r1
 8003ada:	fbb2 f3f3 	udiv	r3, r2, r3
 8003ade:	4618      	mov	r0, r3
 8003ae0:	f000 f965 	bl	8003dae <HAL_SYSTICK_Config>
 8003ae4:	4603      	mov	r3, r0
 8003ae6:	2b00      	cmp	r3, #0
 8003ae8:	d001      	beq.n	8003aee <HAL_InitTick+0x3a>
    {
      return HAL_ERROR;
 8003aea:	2301      	movs	r3, #1
 8003aec:	e00e      	b.n	8003b0c <HAL_InitTick+0x58>
    }

  /* Configure the SysTick IRQ priority */
  if (TickPriority < (1UL << __NVIC_PRIO_BITS))
 8003aee:	687b      	ldr	r3, [r7, #4]
 8003af0:	2b0f      	cmp	r3, #15
 8003af2:	d80a      	bhi.n	8003b0a <HAL_InitTick+0x56>
  {
    HAL_NVIC_SetPriority(SysTick_IRQn, TickPriority, 0U);
 8003af4:	2200      	movs	r2, #0
 8003af6:	6879      	ldr	r1, [r7, #4]
 8003af8:	f04f 30ff 	mov.w	r0, #4294967295
 8003afc:	f000 f92f 	bl	8003d5e <HAL_NVIC_SetPriority>
    uwTickPrio = TickPriority;
 8003b00:	4a06      	ldr	r2, [pc, #24]	; (8003b1c <HAL_InitTick+0x68>)
 8003b02:	687b      	ldr	r3, [r7, #4]
 8003b04:	6013      	str	r3, [r2, #0]
  {
    return HAL_ERROR;
  }

  /* Return function status */
  return HAL_OK;
 8003b06:	2300      	movs	r3, #0
 8003b08:	e000      	b.n	8003b0c <HAL_InitTick+0x58>
    return HAL_ERROR;
 8003b0a:	2301      	movs	r3, #1
}
 8003b0c:	4618      	mov	r0, r3
 8003b0e:	3708      	adds	r7, #8
 8003b10:	46bd      	mov	sp, r7
 8003b12:	bd80      	pop	{r7, pc}
 8003b14:	2400007c 	.word	0x2400007c
 8003b18:	24000070 	.word	0x24000070
 8003b1c:	24000078 	.word	0x24000078

08003b20 <HAL_IncTick>:
 * @note This function is declared as __weak to be overwritten in case of other
  *      implementations in user file.
  * @retval None
  */
__weak void HAL_IncTick(void)
{
 8003b20:	b480      	push	{r7}
 8003b22:	af00      	add	r7, sp, #0
  uwTick += (uint32_t)uwTickFreq;
 8003b24:	4b06      	ldr	r3, [pc, #24]	; (8003b40 <HAL_IncTick+0x20>)
 8003b26:	781b      	ldrb	r3, [r3, #0]
 8003b28:	461a      	mov	r2, r3
 8003b2a:	4b06      	ldr	r3, [pc, #24]	; (8003b44 <HAL_IncTick+0x24>)
 8003b2c:	681b      	ldr	r3, [r3, #0]
 8003b2e:	4413      	add	r3, r2
 8003b30:	4a04      	ldr	r2, [pc, #16]	; (8003b44 <HAL_IncTick+0x24>)
 8003b32:	6013      	str	r3, [r2, #0]
}
 8003b34:	bf00      	nop
 8003b36:	46bd      	mov	sp, r7
 8003b38:	f85d 7b04 	ldr.w	r7, [sp], #4
 8003b3c:	4770      	bx	lr
 8003b3e:	bf00      	nop
 8003b40:	2400007c 	.word	0x2400007c
 8003b44:	240001e8 	.word	0x240001e8

08003b48 <HAL_GetTick>:
  * @note This function is declared as __weak to be overwritten in case of other
  *       implementations in user file.
  * @retval tick value
  */
__weak uint32_t HAL_GetTick(void)
{
 8003b48:	b480      	push	{r7}
 8003b4a:	af00      	add	r7, sp, #0
  return uwTick;
 8003b4c:	4b03      	ldr	r3, [pc, #12]	; (8003b5c <HAL_GetTick+0x14>)
 8003b4e:	681b      	ldr	r3, [r3, #0]
}
 8003b50:	4618      	mov	r0, r3
 8003b52:	46bd      	mov	sp, r7
 8003b54:	f85d 7b04 	ldr.w	r7, [sp], #4
 8003b58:	4770      	bx	lr
 8003b5a:	bf00      	nop
 8003b5c:	240001e8 	.word	0x240001e8

08003b60 <HAL_Delay>:
  *       implementations in user file.
  * @param Delay  specifies the delay time length, in milliseconds.
  * @retval None
  */
__weak void HAL_Delay(uint32_t Delay)
{
 8003b60:	b580      	push	{r7, lr}
 8003b62:	b084      	sub	sp, #16
 8003b64:	af00      	add	r7, sp, #0
 8003b66:	6078      	str	r0, [r7, #4]
  uint32_t tickstart = HAL_GetTick();
 8003b68:	f7ff ffee 	bl	8003b48 <HAL_GetTick>
 8003b6c:	60b8      	str	r0, [r7, #8]
  uint32_t wait = Delay;
 8003b6e:	687b      	ldr	r3, [r7, #4]
 8003b70:	60fb      	str	r3, [r7, #12]

  /* Add a freq to guarantee minimum wait */
  if (wait < HAL_MAX_DELAY)
 8003b72:	68fb      	ldr	r3, [r7, #12]
 8003b74:	f1b3 3fff 	cmp.w	r3, #4294967295
 8003b78:	d005      	beq.n	8003b86 <HAL_Delay+0x26>
  {
    wait += (uint32_t)(uwTickFreq);
 8003b7a:	4b0a      	ldr	r3, [pc, #40]	; (8003ba4 <HAL_Delay+0x44>)
 8003b7c:	781b      	ldrb	r3, [r3, #0]
 8003b7e:	461a      	mov	r2, r3
 8003b80:	68fb      	ldr	r3, [r7, #12]
 8003b82:	4413      	add	r3, r2
 8003b84:	60fb      	str	r3, [r7, #12]
  }

  while ((HAL_GetTick() - tickstart) < wait)
 8003b86:	bf00      	nop
 8003b88:	f7ff ffde 	bl	8003b48 <HAL_GetTick>
 8003b8c:	4602      	mov	r2, r0
 8003b8e:	68bb      	ldr	r3, [r7, #8]
 8003b90:	1ad3      	subs	r3, r2, r3
 8003b92:	68fa      	ldr	r2, [r7, #12]
 8003b94:	429a      	cmp	r2, r3
 8003b96:	d8f7      	bhi.n	8003b88 <HAL_Delay+0x28>
  {
  }
}
 8003b98:	bf00      	nop
 8003b9a:	bf00      	nop
 8003b9c:	3710      	adds	r7, #16
 8003b9e:	46bd      	mov	sp, r7
 8003ba0:	bd80      	pop	{r7, pc}
 8003ba2:	bf00      	nop
 8003ba4:	2400007c 	.word	0x2400007c

08003ba8 <__NVIC_SetPriorityGrouping>:
           In case of a conflict between priority grouping and available
           priority bits (__NVIC_PRIO_BITS), the smallest possible priority group is set.
  \param [in]      PriorityGroup  Priority grouping field.
 */
__STATIC_INLINE void __NVIC_SetPriorityGrouping(uint32_t PriorityGroup)
{
 8003ba8:	b480      	push	{r7}
 8003baa:	b085      	sub	sp, #20
 8003bac:	af00      	add	r7, sp, #0
 8003bae:	6078      	str	r0, [r7, #4]
  uint32_t reg_value;
  uint32_t PriorityGroupTmp = (PriorityGroup & (uint32_t)0x07UL);             /* only values 0..7 are used          */
 8003bb0:	687b      	ldr	r3, [r7, #4]
 8003bb2:	f003 0307 	and.w	r3, r3, #7
 8003bb6:	60fb      	str	r3, [r7, #12]

  reg_value  =  SCB->AIRCR;                                                   /* read old register configuration    */
 8003bb8:	4b0b      	ldr	r3, [pc, #44]	; (8003be8 <__NVIC_SetPriorityGrouping+0x40>)
 8003bba:	68db      	ldr	r3, [r3, #12]
 8003bbc:	60bb      	str	r3, [r7, #8]
  reg_value &= ~((uint32_t)(SCB_AIRCR_VECTKEY_Msk | SCB_AIRCR_PRIGROUP_Msk)); /* clear bits to change               */
 8003bbe:	68ba      	ldr	r2, [r7, #8]
 8003bc0:	f64f 03ff 	movw	r3, #63743	; 0xf8ff
 8003bc4:	4013      	ands	r3, r2
 8003bc6:	60bb      	str	r3, [r7, #8]
  reg_value  =  (reg_value                                   |
                ((uint32_t)0x5FAUL << SCB_AIRCR_VECTKEY_Pos) |
                (PriorityGroupTmp << SCB_AIRCR_PRIGROUP_Pos)  );              /* Insert write key and priority group */
 8003bc8:	68fb      	ldr	r3, [r7, #12]
 8003bca:	021a      	lsls	r2, r3, #8
                ((uint32_t)0x5FAUL << SCB_AIRCR_VECTKEY_Pos) |
 8003bcc:	68bb      	ldr	r3, [r7, #8]
 8003bce:	431a      	orrs	r2, r3
  reg_value  =  (reg_value                                   |
 8003bd0:	4b06      	ldr	r3, [pc, #24]	; (8003bec <__NVIC_SetPriorityGrouping+0x44>)
 8003bd2:	4313      	orrs	r3, r2
 8003bd4:	60bb      	str	r3, [r7, #8]
  SCB->AIRCR =  reg_value;
 8003bd6:	4a04      	ldr	r2, [pc, #16]	; (8003be8 <__NVIC_SetPriorityGrouping+0x40>)
 8003bd8:	68bb      	ldr	r3, [r7, #8]
 8003bda:	60d3      	str	r3, [r2, #12]
}
 8003bdc:	bf00      	nop
 8003bde:	3714      	adds	r7, #20
 8003be0:	46bd      	mov	sp, r7
 8003be2:	f85d 7b04 	ldr.w	r7, [sp], #4
 8003be6:	4770      	bx	lr
 8003be8:	e000ed00 	.word	0xe000ed00
 8003bec:	05fa0000 	.word	0x05fa0000

08003bf0 <__NVIC_GetPriorityGrouping>:
  \brief   Get Priority Grouping
  \details Reads the priority grouping field from the NVIC Interrupt Controller.
  \return                Priority grouping field (SCB->AIRCR [10:8] PRIGROUP field).
 */
__STATIC_INLINE uint32_t __NVIC_GetPriorityGrouping(void)
{
 8003bf0:	b480      	push	{r7}
 8003bf2:	af00      	add	r7, sp, #0
  return ((uint32_t)((SCB->AIRCR & SCB_AIRCR_PRIGROUP_Msk) >> SCB_AIRCR_PRIGROUP_Pos));
 8003bf4:	4b04      	ldr	r3, [pc, #16]	; (8003c08 <__NVIC_GetPriorityGrouping+0x18>)
 8003bf6:	68db      	ldr	r3, [r3, #12]
 8003bf8:	0a1b      	lsrs	r3, r3, #8
 8003bfa:	f003 0307 	and.w	r3, r3, #7
}
 8003bfe:	4618      	mov	r0, r3
 8003c00:	46bd      	mov	sp, r7
 8003c02:	f85d 7b04 	ldr.w	r7, [sp], #4
 8003c06:	4770      	bx	lr
 8003c08:	e000ed00 	.word	0xe000ed00

08003c0c <__NVIC_EnableIRQ>:
  \details Enables a device specific interrupt in the NVIC interrupt controller.
  \param [in]      IRQn  Device specific interrupt number.
  \note    IRQn must not be negative.
 */
__STATIC_INLINE void __NVIC_EnableIRQ(IRQn_Type IRQn)
{
 8003c0c:	b480      	push	{r7}
 8003c0e:	b083      	sub	sp, #12
 8003c10:	af00      	add	r7, sp, #0
 8003c12:	4603      	mov	r3, r0
 8003c14:	80fb      	strh	r3, [r7, #6]
  if ((int32_t)(IRQn) >= 0)
 8003c16:	f9b7 3006 	ldrsh.w	r3, [r7, #6]
 8003c1a:	2b00      	cmp	r3, #0
 8003c1c:	db0b      	blt.n	8003c36 <__NVIC_EnableIRQ+0x2a>
  {
    __COMPILER_BARRIER();
    NVIC->ISER[(((uint32_t)IRQn) >> 5UL)] = (uint32_t)(1UL << (((uint32_t)IRQn) & 0x1FUL));
 8003c1e:	88fb      	ldrh	r3, [r7, #6]
 8003c20:	f003 021f 	and.w	r2, r3, #31
 8003c24:	4907      	ldr	r1, [pc, #28]	; (8003c44 <__NVIC_EnableIRQ+0x38>)
 8003c26:	f9b7 3006 	ldrsh.w	r3, [r7, #6]
 8003c2a:	095b      	lsrs	r3, r3, #5
 8003c2c:	2001      	movs	r0, #1
 8003c2e:	fa00 f202 	lsl.w	r2, r0, r2
 8003c32:	f841 2023 	str.w	r2, [r1, r3, lsl #2]
    __COMPILER_BARRIER();
  }
}
 8003c36:	bf00      	nop
 8003c38:	370c      	adds	r7, #12
 8003c3a:	46bd      	mov	sp, r7
 8003c3c:	f85d 7b04 	ldr.w	r7, [sp], #4
 8003c40:	4770      	bx	lr
 8003c42:	bf00      	nop
 8003c44:	e000e100 	.word	0xe000e100

08003c48 <__NVIC_SetPriority>:
  \param [in]      IRQn  Interrupt number.
  \param [in]  priority  Priority to set.
  \note    The priority cannot be set for every processor exception.
 */
__STATIC_INLINE void __NVIC_SetPriority(IRQn_Type IRQn, uint32_t priority)
{
 8003c48:	b480      	push	{r7}
 8003c4a:	b083      	sub	sp, #12
 8003c4c:	af00      	add	r7, sp, #0
 8003c4e:	4603      	mov	r3, r0
 8003c50:	6039      	str	r1, [r7, #0]
 8003c52:	80fb      	strh	r3, [r7, #6]
  if ((int32_t)(IRQn) >= 0)
 8003c54:	f9b7 3006 	ldrsh.w	r3, [r7, #6]
 8003c58:	2b00      	cmp	r3, #0
 8003c5a:	db0a      	blt.n	8003c72 <__NVIC_SetPriority+0x2a>
  {
    NVIC->IP[((uint32_t)IRQn)]                = (uint8_t)((priority << (8U - __NVIC_PRIO_BITS)) & (uint32_t)0xFFUL);
 8003c5c:	683b      	ldr	r3, [r7, #0]
 8003c5e:	b2da      	uxtb	r2, r3
 8003c60:	490c      	ldr	r1, [pc, #48]	; (8003c94 <__NVIC_SetPriority+0x4c>)
 8003c62:	f9b7 3006 	ldrsh.w	r3, [r7, #6]
 8003c66:	0112      	lsls	r2, r2, #4
 8003c68:	b2d2      	uxtb	r2, r2
 8003c6a:	440b      	add	r3, r1
 8003c6c:	f883 2300 	strb.w	r2, [r3, #768]	; 0x300
  }
  else
  {
    SCB->SHPR[(((uint32_t)IRQn) & 0xFUL)-4UL] = (uint8_t)((priority << (8U - __NVIC_PRIO_BITS)) & (uint32_t)0xFFUL);
  }
}
 8003c70:	e00a      	b.n	8003c88 <__NVIC_SetPriority+0x40>
    SCB->SHPR[(((uint32_t)IRQn) & 0xFUL)-4UL] = (uint8_t)((priority << (8U - __NVIC_PRIO_BITS)) & (uint32_t)0xFFUL);
 8003c72:	683b      	ldr	r3, [r7, #0]
 8003c74:	b2da      	uxtb	r2, r3
 8003c76:	4908      	ldr	r1, [pc, #32]	; (8003c98 <__NVIC_SetPriority+0x50>)
 8003c78:	88fb      	ldrh	r3, [r7, #6]
 8003c7a:	f003 030f 	and.w	r3, r3, #15
 8003c7e:	3b04      	subs	r3, #4
 8003c80:	0112      	lsls	r2, r2, #4
 8003c82:	b2d2      	uxtb	r2, r2
 8003c84:	440b      	add	r3, r1
 8003c86:	761a      	strb	r2, [r3, #24]
}
 8003c88:	bf00      	nop
 8003c8a:	370c      	adds	r7, #12
 8003c8c:	46bd      	mov	sp, r7
 8003c8e:	f85d 7b04 	ldr.w	r7, [sp], #4
 8003c92:	4770      	bx	lr
 8003c94:	e000e100 	.word	0xe000e100
 8003c98:	e000ed00 	.word	0xe000ed00

08003c9c <NVIC_EncodePriority>:
  \param [in]   PreemptPriority  Preemptive priority value (starting from 0).
  \param [in]       SubPriority  Subpriority value (starting from 0).
  \return                        Encoded priority. Value can be used in the function \ref NVIC_SetPriority().
 */
__STATIC_INLINE uint32_t NVIC_EncodePriority (uint32_t PriorityGroup, uint32_t PreemptPriority, uint32_t SubPriority)
{
 8003c9c:	b480      	push	{r7}
 8003c9e:	b089      	sub	sp, #36	; 0x24
 8003ca0:	af00      	add	r7, sp, #0
 8003ca2:	60f8      	str	r0, [r7, #12]
 8003ca4:	60b9      	str	r1, [r7, #8]
 8003ca6:	607a      	str	r2, [r7, #4]
  uint32_t PriorityGroupTmp = (PriorityGroup & (uint32_t)0x07UL);   /* only values 0..7 are used          */
 8003ca8:	68fb      	ldr	r3, [r7, #12]
 8003caa:	f003 0307 	and.w	r3, r3, #7
 8003cae:	61fb      	str	r3, [r7, #28]
  uint32_t PreemptPriorityBits;
  uint32_t SubPriorityBits;

  PreemptPriorityBits = ((7UL - PriorityGroupTmp) > (uint32_t)(__NVIC_PRIO_BITS)) ? (uint32_t)(__NVIC_PRIO_BITS) : (uint32_t)(7UL - PriorityGroupTmp);
 8003cb0:	69fb      	ldr	r3, [r7, #28]
 8003cb2:	f1c3 0307 	rsb	r3, r3, #7
 8003cb6:	2b04      	cmp	r3, #4
 8003cb8:	bf28      	it	cs
 8003cba:	2304      	movcs	r3, #4
 8003cbc:	61bb      	str	r3, [r7, #24]
  SubPriorityBits     = ((PriorityGroupTmp + (uint32_t)(__NVIC_PRIO_BITS)) < (uint32_t)7UL) ? (uint32_t)0UL : (uint32_t)((PriorityGroupTmp - 7UL) + (uint32_t)(__NVIC_PRIO_BITS));
 8003cbe:	69fb      	ldr	r3, [r7, #28]
 8003cc0:	3304      	adds	r3, #4
 8003cc2:	2b06      	cmp	r3, #6
 8003cc4:	d902      	bls.n	8003ccc <NVIC_EncodePriority+0x30>
 8003cc6:	69fb      	ldr	r3, [r7, #28]
 8003cc8:	3b03      	subs	r3, #3
 8003cca:	e000      	b.n	8003cce <NVIC_EncodePriority+0x32>
 8003ccc:	2300      	movs	r3, #0
 8003cce:	617b      	str	r3, [r7, #20]

  return (
           ((PreemptPriority & (uint32_t)((1UL << (PreemptPriorityBits)) - 1UL)) << SubPriorityBits) |
 8003cd0:	f04f 32ff 	mov.w	r2, #4294967295
 8003cd4:	69bb      	ldr	r3, [r7, #24]
 8003cd6:	fa02 f303 	lsl.w	r3, r2, r3
 8003cda:	43da      	mvns	r2, r3
 8003cdc:	68bb      	ldr	r3, [r7, #8]
 8003cde:	401a      	ands	r2, r3
 8003ce0:	697b      	ldr	r3, [r7, #20]
 8003ce2:	409a      	lsls	r2, r3
           ((SubPriority     & (uint32_t)((1UL << (SubPriorityBits    )) - 1UL)))
 8003ce4:	f04f 31ff 	mov.w	r1, #4294967295
 8003ce8:	697b      	ldr	r3, [r7, #20]
 8003cea:	fa01 f303 	lsl.w	r3, r1, r3
 8003cee:	43d9      	mvns	r1, r3
 8003cf0:	687b      	ldr	r3, [r7, #4]
 8003cf2:	400b      	ands	r3, r1
           ((PreemptPriority & (uint32_t)((1UL << (PreemptPriorityBits)) - 1UL)) << SubPriorityBits) |
 8003cf4:	4313      	orrs	r3, r2
         );
}
 8003cf6:	4618      	mov	r0, r3
 8003cf8:	3724      	adds	r7, #36	; 0x24
 8003cfa:	46bd      	mov	sp, r7
 8003cfc:	f85d 7b04 	ldr.w	r7, [sp], #4
 8003d00:	4770      	bx	lr
	...

08003d04 <SysTick_Config>:
  \note    When the variable <b>__Vendor_SysTickConfig</b> is set to 1, then the
           function <b>SysTick_Config</b> is not included. In this case, the file <b><i>device</i>.h</b>
           must contain a vendor-specific implementation of this function.
 */
__STATIC_INLINE uint32_t SysTick_Config(uint32_t ticks)
{
 8003d04:	b580      	push	{r7, lr}
 8003d06:	b082      	sub	sp, #8
 8003d08:	af00      	add	r7, sp, #0
 8003d0a:	6078      	str	r0, [r7, #4]
  if ((ticks - 1UL) > SysTick_LOAD_RELOAD_Msk)
 8003d0c:	687b      	ldr	r3, [r7, #4]
 8003d0e:	3b01      	subs	r3, #1
 8003d10:	f1b3 7f80 	cmp.w	r3, #16777216	; 0x1000000
 8003d14:	d301      	bcc.n	8003d1a <SysTick_Config+0x16>
  {
    return (1UL);                                                   /* Reload value impossible */
 8003d16:	2301      	movs	r3, #1
 8003d18:	e00f      	b.n	8003d3a <SysTick_Config+0x36>
  }

  SysTick->LOAD  = (uint32_t)(ticks - 1UL);                         /* set reload register */
 8003d1a:	4a0a      	ldr	r2, [pc, #40]	; (8003d44 <SysTick_Config+0x40>)
 8003d1c:	687b      	ldr	r3, [r7, #4]
 8003d1e:	3b01      	subs	r3, #1
 8003d20:	6053      	str	r3, [r2, #4]
  NVIC_SetPriority (SysTick_IRQn, (1UL << __NVIC_PRIO_BITS) - 1UL); /* set Priority for Systick Interrupt */
 8003d22:	210f      	movs	r1, #15
 8003d24:	f04f 30ff 	mov.w	r0, #4294967295
 8003d28:	f7ff ff8e 	bl	8003c48 <__NVIC_SetPriority>
  SysTick->VAL   = 0UL;                                             /* Load the SysTick Counter Value */
 8003d2c:	4b05      	ldr	r3, [pc, #20]	; (8003d44 <SysTick_Config+0x40>)
 8003d2e:	2200      	movs	r2, #0
 8003d30:	609a      	str	r2, [r3, #8]
  SysTick->CTRL  = SysTick_CTRL_CLKSOURCE_Msk |
 8003d32:	4b04      	ldr	r3, [pc, #16]	; (8003d44 <SysTick_Config+0x40>)
 8003d34:	2207      	movs	r2, #7
 8003d36:	601a      	str	r2, [r3, #0]
                   SysTick_CTRL_TICKINT_Msk   |
                   SysTick_CTRL_ENABLE_Msk;                         /* Enable SysTick IRQ and SysTick Timer */
  return (0UL);                                                     /* Function successful */
 8003d38:	2300      	movs	r3, #0
}
 8003d3a:	4618      	mov	r0, r3
 8003d3c:	3708      	adds	r7, #8
 8003d3e:	46bd      	mov	sp, r7
 8003d40:	bd80      	pop	{r7, pc}
 8003d42:	bf00      	nop
 8003d44:	e000e010 	.word	0xe000e010

08003d48 <HAL_NVIC_SetPriorityGrouping>:
  * @note   When the NVIC_PriorityGroup_0 is selected, IRQ preemption is no more possible.
  *         The pending IRQ priority will be managed only by the subpriority.
  * @retval None
  */
void HAL_NVIC_SetPriorityGrouping(uint32_t PriorityGroup)
{
 8003d48:	b580      	push	{r7, lr}
 8003d4a:	b082      	sub	sp, #8
 8003d4c:	af00      	add	r7, sp, #0
 8003d4e:	6078      	str	r0, [r7, #4]
  /* Check the parameters */
  assert_param(IS_NVIC_PRIORITY_GROUP(PriorityGroup));

  /* Set the PRIGROUP[10:8] bits according to the PriorityGroup parameter value */
  NVIC_SetPriorityGrouping(PriorityGroup);
 8003d50:	6878      	ldr	r0, [r7, #4]
 8003d52:	f7ff ff29 	bl	8003ba8 <__NVIC_SetPriorityGrouping>
}
 8003d56:	bf00      	nop
 8003d58:	3708      	adds	r7, #8
 8003d5a:	46bd      	mov	sp, r7
 8003d5c:	bd80      	pop	{r7, pc}

08003d5e <HAL_NVIC_SetPriority>:
  *         This parameter can be a value between 0 and 15
  *         A lower priority value indicates a higher priority.
  * @retval None
  */
void HAL_NVIC_SetPriority(IRQn_Type IRQn, uint32_t PreemptPriority, uint32_t SubPriority)
{
 8003d5e:	b580      	push	{r7, lr}
 8003d60:	b086      	sub	sp, #24
 8003d62:	af00      	add	r7, sp, #0
 8003d64:	4603      	mov	r3, r0
 8003d66:	60b9      	str	r1, [r7, #8]
 8003d68:	607a      	str	r2, [r7, #4]
 8003d6a:	81fb      	strh	r3, [r7, #14]

  /* Check the parameters */
  assert_param(IS_NVIC_SUB_PRIORITY(SubPriority));
  assert_param(IS_NVIC_PREEMPTION_PRIORITY(PreemptPriority));

  prioritygroup = NVIC_GetPriorityGrouping();
 8003d6c:	f7ff ff40 	bl	8003bf0 <__NVIC_GetPriorityGrouping>
 8003d70:	6178      	str	r0, [r7, #20]

  NVIC_SetPriority(IRQn, NVIC_EncodePriority(prioritygroup, PreemptPriority, SubPriority));
 8003d72:	687a      	ldr	r2, [r7, #4]
 8003d74:	68b9      	ldr	r1, [r7, #8]
 8003d76:	6978      	ldr	r0, [r7, #20]
 8003d78:	f7ff ff90 	bl	8003c9c <NVIC_EncodePriority>
 8003d7c:	4602      	mov	r2, r0
 8003d7e:	f9b7 300e 	ldrsh.w	r3, [r7, #14]
 8003d82:	4611      	mov	r1, r2
 8003d84:	4618      	mov	r0, r3
 8003d86:	f7ff ff5f 	bl	8003c48 <__NVIC_SetPriority>
}
 8003d8a:	bf00      	nop
 8003d8c:	3718      	adds	r7, #24
 8003d8e:	46bd      	mov	sp, r7
 8003d90:	bd80      	pop	{r7, pc}

08003d92 <HAL_NVIC_EnableIRQ>:
  *         This parameter can be an enumerator of IRQn_Type enumeration
  *         (For the complete STM32 Devices IRQ Channels list, please refer to the appropriate CMSIS device file (stm32h7xxxx.h))
  * @retval None
  */
void HAL_NVIC_EnableIRQ(IRQn_Type IRQn)
{
 8003d92:	b580      	push	{r7, lr}
 8003d94:	b082      	sub	sp, #8
 8003d96:	af00      	add	r7, sp, #0
 8003d98:	4603      	mov	r3, r0
 8003d9a:	80fb      	strh	r3, [r7, #6]
  /* Check the parameters */
  assert_param(IS_NVIC_DEVICE_IRQ(IRQn));

  /* Enable interrupt */
  NVIC_EnableIRQ(IRQn);
 8003d9c:	f9b7 3006 	ldrsh.w	r3, [r7, #6]
 8003da0:	4618      	mov	r0, r3
 8003da2:	f7ff ff33 	bl	8003c0c <__NVIC_EnableIRQ>
}
 8003da6:	bf00      	nop
 8003da8:	3708      	adds	r7, #8
 8003daa:	46bd      	mov	sp, r7
 8003dac:	bd80      	pop	{r7, pc}

08003dae <HAL_SYSTICK_Config>:
  * @param  TicksNumb Specifies the ticks Number of ticks between two interrupts.
  * @retval status   - 0  Function succeeded.
  *                  - 1  Function failed.
  */
uint32_t HAL_SYSTICK_Config(uint32_t TicksNumb)
{
 8003dae:	b580      	push	{r7, lr}
 8003db0:	b082      	sub	sp, #8
 8003db2:	af00      	add	r7, sp, #0
 8003db4:	6078      	str	r0, [r7, #4]
   return SysTick_Config(TicksNumb);
 8003db6:	6878      	ldr	r0, [r7, #4]
 8003db8:	f7ff ffa4 	bl	8003d04 <SysTick_Config>
 8003dbc:	4603      	mov	r3, r0
}
 8003dbe:	4618      	mov	r0, r3
 8003dc0:	3708      	adds	r7, #8
 8003dc2:	46bd      	mov	sp, r7
 8003dc4:	bd80      	pop	{r7, pc}
	...

08003dc8 <HAL_GPIO_Init>:
  * @param  GPIO_Init: pointer to a GPIO_InitTypeDef structure that contains
  *         the configuration information for the specified GPIO peripheral.
  * @retval None
  */
void HAL_GPIO_Init(GPIO_TypeDef  *GPIOx, GPIO_InitTypeDef *GPIO_Init)
{
 8003dc8:	b480      	push	{r7}
 8003dca:	b089      	sub	sp, #36	; 0x24
 8003dcc:	af00      	add	r7, sp, #0
 8003dce:	6078      	str	r0, [r7, #4]
 8003dd0:	6039      	str	r1, [r7, #0]
  uint32_t position = 0x00U;
 8003dd2:	2300      	movs	r3, #0
 8003dd4:	61fb      	str	r3, [r7, #28]
  EXTI_Core_TypeDef *EXTI_CurrentCPU;

#if defined(DUAL_CORE) && defined(CORE_CM4)
  EXTI_CurrentCPU = EXTI_D2; /* EXTI for CM4 CPU */
#else
  EXTI_CurrentCPU = EXTI_D1; /* EXTI for CM7 CPU */
 8003dd6:	4b89      	ldr	r3, [pc, #548]	; (8003ffc <HAL_GPIO_Init+0x234>)
 8003dd8:	617b      	str	r3, [r7, #20]
  assert_param(IS_GPIO_ALL_INSTANCE(GPIOx));
  assert_param(IS_GPIO_PIN(GPIO_Init->Pin));
  assert_param(IS_GPIO_MODE(GPIO_Init->Mode));

  /* Configure the port pins */
  while (((GPIO_Init->Pin) >> position) != 0x00U)
 8003dda:	e194      	b.n	8004106 <HAL_GPIO_Init+0x33e>
  {
    /* Get current io position */
    iocurrent = (GPIO_Init->Pin) & (1UL << position);
 8003ddc:	683b      	ldr	r3, [r7, #0]
 8003dde:	681a      	ldr	r2, [r3, #0]
 8003de0:	2101      	movs	r1, #1
 8003de2:	69fb      	ldr	r3, [r7, #28]
 8003de4:	fa01 f303 	lsl.w	r3, r1, r3
 8003de8:	4013      	ands	r3, r2
 8003dea:	613b      	str	r3, [r7, #16]

    if (iocurrent != 0x00U)
 8003dec:	693b      	ldr	r3, [r7, #16]
 8003dee:	2b00      	cmp	r3, #0
 8003df0:	f000 8186 	beq.w	8004100 <HAL_GPIO_Init+0x338>
    {
      /*--------------------- GPIO Mode Configuration ------------------------*/
      /* In case of Output or Alternate function mode selection */
      if (((GPIO_Init->Mode & GPIO_MODE) == MODE_OUTPUT) || ((GPIO_Init->Mode & GPIO_MODE) == MODE_AF))
 8003df4:	683b      	ldr	r3, [r7, #0]
 8003df6:	685b      	ldr	r3, [r3, #4]
 8003df8:	f003 0303 	and.w	r3, r3, #3
 8003dfc:	2b01      	cmp	r3, #1
 8003dfe:	d005      	beq.n	8003e0c <HAL_GPIO_Init+0x44>
 8003e00:	683b      	ldr	r3, [r7, #0]
 8003e02:	685b      	ldr	r3, [r3, #4]
 8003e04:	f003 0303 	and.w	r3, r3, #3
 8003e08:	2b02      	cmp	r3, #2
 8003e0a:	d130      	bne.n	8003e6e <HAL_GPIO_Init+0xa6>
      {
        /* Check the Speed parameter */
        assert_param(IS_GPIO_SPEED(GPIO_Init->Speed));

        /* Configure the IO Speed */
        temp = GPIOx->OSPEEDR;
 8003e0c:	687b      	ldr	r3, [r7, #4]
 8003e0e:	689b      	ldr	r3, [r3, #8]
 8003e10:	61bb      	str	r3, [r7, #24]
        temp &= ~(GPIO_OSPEEDR_OSPEED0 << (position * 2U));
 8003e12:	69fb      	ldr	r3, [r7, #28]
 8003e14:	005b      	lsls	r3, r3, #1
 8003e16:	2203      	movs	r2, #3
 8003e18:	fa02 f303 	lsl.w	r3, r2, r3
 8003e1c:	43db      	mvns	r3, r3
 8003e1e:	69ba      	ldr	r2, [r7, #24]
 8003e20:	4013      	ands	r3, r2
 8003e22:	61bb      	str	r3, [r7, #24]
        temp |= (GPIO_Init->Speed << (position * 2U));
 8003e24:	683b      	ldr	r3, [r7, #0]
 8003e26:	68da      	ldr	r2, [r3, #12]
 8003e28:	69fb      	ldr	r3, [r7, #28]
 8003e2a:	005b      	lsls	r3, r3, #1
 8003e2c:	fa02 f303 	lsl.w	r3, r2, r3
 8003e30:	69ba      	ldr	r2, [r7, #24]
 8003e32:	4313      	orrs	r3, r2
 8003e34:	61bb      	str	r3, [r7, #24]
        GPIOx->OSPEEDR = temp;
 8003e36:	687b      	ldr	r3, [r7, #4]
 8003e38:	69ba      	ldr	r2, [r7, #24]
 8003e3a:	609a      	str	r2, [r3, #8]

        /* Configure the IO Output Type */
        temp = GPIOx->OTYPER;
 8003e3c:	687b      	ldr	r3, [r7, #4]
 8003e3e:	685b      	ldr	r3, [r3, #4]
 8003e40:	61bb      	str	r3, [r7, #24]
        temp &= ~(GPIO_OTYPER_OT0 << position) ;
 8003e42:	2201      	movs	r2, #1
 8003e44:	69fb      	ldr	r3, [r7, #28]
 8003e46:	fa02 f303 	lsl.w	r3, r2, r3
 8003e4a:	43db      	mvns	r3, r3
 8003e4c:	69ba      	ldr	r2, [r7, #24]
 8003e4e:	4013      	ands	r3, r2
 8003e50:	61bb      	str	r3, [r7, #24]
        temp |= (((GPIO_Init->Mode & OUTPUT_TYPE) >> OUTPUT_TYPE_Pos) << position);
 8003e52:	683b      	ldr	r3, [r7, #0]
 8003e54:	685b      	ldr	r3, [r3, #4]
 8003e56:	091b      	lsrs	r3, r3, #4
 8003e58:	f003 0201 	and.w	r2, r3, #1
 8003e5c:	69fb      	ldr	r3, [r7, #28]
 8003e5e:	fa02 f303 	lsl.w	r3, r2, r3
 8003e62:	69ba      	ldr	r2, [r7, #24]
 8003e64:	4313      	orrs	r3, r2
 8003e66:	61bb      	str	r3, [r7, #24]
        GPIOx->OTYPER = temp;
 8003e68:	687b      	ldr	r3, [r7, #4]
 8003e6a:	69ba      	ldr	r2, [r7, #24]
 8003e6c:	605a      	str	r2, [r3, #4]
      }

      if ((GPIO_Init->Mode & GPIO_MODE) != MODE_ANALOG)
 8003e6e:	683b      	ldr	r3, [r7, #0]
 8003e70:	685b      	ldr	r3, [r3, #4]
 8003e72:	f003 0303 	and.w	r3, r3, #3
 8003e76:	2b03      	cmp	r3, #3
 8003e78:	d017      	beq.n	8003eaa <HAL_GPIO_Init+0xe2>
      {
       /* Check the Pull parameter */
       assert_param(IS_GPIO_PULL(GPIO_Init->Pull));

      /* Activate the Pull-up or Pull down resistor for the current IO */
      temp = GPIOx->PUPDR;
 8003e7a:	687b      	ldr	r3, [r7, #4]
 8003e7c:	68db      	ldr	r3, [r3, #12]
 8003e7e:	61bb      	str	r3, [r7, #24]
      temp &= ~(GPIO_PUPDR_PUPD0 << (position * 2U));
 8003e80:	69fb      	ldr	r3, [r7, #28]
 8003e82:	005b      	lsls	r3, r3, #1
 8003e84:	2203      	movs	r2, #3
 8003e86:	fa02 f303 	lsl.w	r3, r2, r3
 8003e8a:	43db      	mvns	r3, r3
 8003e8c:	69ba      	ldr	r2, [r7, #24]
 8003e8e:	4013      	ands	r3, r2
 8003e90:	61bb      	str	r3, [r7, #24]
      temp |= ((GPIO_Init->Pull) << (position * 2U));
 8003e92:	683b      	ldr	r3, [r7, #0]
 8003e94:	689a      	ldr	r2, [r3, #8]
 8003e96:	69fb      	ldr	r3, [r7, #28]
 8003e98:	005b      	lsls	r3, r3, #1
 8003e9a:	fa02 f303 	lsl.w	r3, r2, r3
 8003e9e:	69ba      	ldr	r2, [r7, #24]
 8003ea0:	4313      	orrs	r3, r2
 8003ea2:	61bb      	str	r3, [r7, #24]
      GPIOx->PUPDR = temp;
 8003ea4:	687b      	ldr	r3, [r7, #4]
 8003ea6:	69ba      	ldr	r2, [r7, #24]
 8003ea8:	60da      	str	r2, [r3, #12]
      }

      /* In case of Alternate function mode selection */
      if ((GPIO_Init->Mode & GPIO_MODE) == MODE_AF)
 8003eaa:	683b      	ldr	r3, [r7, #0]
 8003eac:	685b      	ldr	r3, [r3, #4]
 8003eae:	f003 0303 	and.w	r3, r3, #3
 8003eb2:	2b02      	cmp	r3, #2
 8003eb4:	d123      	bne.n	8003efe <HAL_GPIO_Init+0x136>
        /* Check the Alternate function parameters */
        assert_param(IS_GPIO_AF_INSTANCE(GPIOx));
        assert_param(IS_GPIO_AF(GPIO_Init->Alternate));

        /* Configure Alternate function mapped with the current IO */
        temp = GPIOx->AFR[position >> 3U];
 8003eb6:	69fb      	ldr	r3, [r7, #28]
 8003eb8:	08da      	lsrs	r2, r3, #3
 8003eba:	687b      	ldr	r3, [r7, #4]
 8003ebc:	3208      	adds	r2, #8
 8003ebe:	f853 3022 	ldr.w	r3, [r3, r2, lsl #2]
 8003ec2:	61bb      	str	r3, [r7, #24]
        temp &= ~(0xFU << ((position & 0x07U) * 4U));
 8003ec4:	69fb      	ldr	r3, [r7, #28]
 8003ec6:	f003 0307 	and.w	r3, r3, #7
 8003eca:	009b      	lsls	r3, r3, #2
 8003ecc:	220f      	movs	r2, #15
 8003ece:	fa02 f303 	lsl.w	r3, r2, r3
 8003ed2:	43db      	mvns	r3, r3
 8003ed4:	69ba      	ldr	r2, [r7, #24]
 8003ed6:	4013      	ands	r3, r2
 8003ed8:	61bb      	str	r3, [r7, #24]
        temp |= ((GPIO_Init->Alternate) << ((position & 0x07U) * 4U));
 8003eda:	683b      	ldr	r3, [r7, #0]
 8003edc:	691a      	ldr	r2, [r3, #16]
 8003ede:	69fb      	ldr	r3, [r7, #28]
 8003ee0:	f003 0307 	and.w	r3, r3, #7
 8003ee4:	009b      	lsls	r3, r3, #2
 8003ee6:	fa02 f303 	lsl.w	r3, r2, r3
 8003eea:	69ba      	ldr	r2, [r7, #24]
 8003eec:	4313      	orrs	r3, r2
 8003eee:	61bb      	str	r3, [r7, #24]
        GPIOx->AFR[position >> 3U] = temp;
 8003ef0:	69fb      	ldr	r3, [r7, #28]
 8003ef2:	08da      	lsrs	r2, r3, #3
 8003ef4:	687b      	ldr	r3, [r7, #4]
 8003ef6:	3208      	adds	r2, #8
 8003ef8:	69b9      	ldr	r1, [r7, #24]
 8003efa:	f843 1022 	str.w	r1, [r3, r2, lsl #2]
      }

      /* Configure IO Direction mode (Input, Output, Alternate or Analog) */
      temp = GPIOx->MODER;
 8003efe:	687b      	ldr	r3, [r7, #4]
 8003f00:	681b      	ldr	r3, [r3, #0]
 8003f02:	61bb      	str	r3, [r7, #24]
      temp &= ~(GPIO_MODER_MODE0 << (position * 2U));
 8003f04:	69fb      	ldr	r3, [r7, #28]
 8003f06:	005b      	lsls	r3, r3, #1
 8003f08:	2203      	movs	r2, #3
 8003f0a:	fa02 f303 	lsl.w	r3, r2, r3
 8003f0e:	43db      	mvns	r3, r3
 8003f10:	69ba      	ldr	r2, [r7, #24]
 8003f12:	4013      	ands	r3, r2
 8003f14:	61bb      	str	r3, [r7, #24]
      temp |= ((GPIO_Init->Mode & GPIO_MODE) << (position * 2U));
 8003f16:	683b      	ldr	r3, [r7, #0]
 8003f18:	685b      	ldr	r3, [r3, #4]
 8003f1a:	f003 0203 	and.w	r2, r3, #3
 8003f1e:	69fb      	ldr	r3, [r7, #28]
 8003f20:	005b      	lsls	r3, r3, #1
 8003f22:	fa02 f303 	lsl.w	r3, r2, r3
 8003f26:	69ba      	ldr	r2, [r7, #24]
 8003f28:	4313      	orrs	r3, r2
 8003f2a:	61bb      	str	r3, [r7, #24]
      GPIOx->MODER = temp;
 8003f2c:	687b      	ldr	r3, [r7, #4]
 8003f2e:	69ba      	ldr	r2, [r7, #24]
 8003f30:	601a      	str	r2, [r3, #0]

      /*--------------------- EXTI Mode Configuration ------------------------*/
      /* Configure the External Interrupt or event for the current IO */
      if ((GPIO_Init->Mode & EXTI_MODE) != 0x00U)
 8003f32:	683b      	ldr	r3, [r7, #0]
 8003f34:	685b      	ldr	r3, [r3, #4]
 8003f36:	f403 3340 	and.w	r3, r3, #196608	; 0x30000
 8003f3a:	2b00      	cmp	r3, #0
 8003f3c:	f000 80e0 	beq.w	8004100 <HAL_GPIO_Init+0x338>
      {
        /* Enable SYSCFG Clock */
        __HAL_RCC_SYSCFG_CLK_ENABLE();
 8003f40:	4b2f      	ldr	r3, [pc, #188]	; (8004000 <HAL_GPIO_Init+0x238>)
 8003f42:	f8d3 3154 	ldr.w	r3, [r3, #340]	; 0x154
 8003f46:	4a2e      	ldr	r2, [pc, #184]	; (8004000 <HAL_GPIO_Init+0x238>)
 8003f48:	f043 0302 	orr.w	r3, r3, #2
 8003f4c:	f8c2 3154 	str.w	r3, [r2, #340]	; 0x154
 8003f50:	4b2b      	ldr	r3, [pc, #172]	; (8004000 <HAL_GPIO_Init+0x238>)
 8003f52:	f8d3 3154 	ldr.w	r3, [r3, #340]	; 0x154
 8003f56:	f003 0302 	and.w	r3, r3, #2
 8003f5a:	60fb      	str	r3, [r7, #12]
 8003f5c:	68fb      	ldr	r3, [r7, #12]

        temp = SYSCFG->EXTICR[position >> 2U];
 8003f5e:	4a29      	ldr	r2, [pc, #164]	; (8004004 <HAL_GPIO_Init+0x23c>)
 8003f60:	69fb      	ldr	r3, [r7, #28]
 8003f62:	089b      	lsrs	r3, r3, #2
 8003f64:	3302      	adds	r3, #2
 8003f66:	f852 3023 	ldr.w	r3, [r2, r3, lsl #2]
 8003f6a:	61bb      	str	r3, [r7, #24]
        temp &= ~(0x0FUL << (4U * (position & 0x03U)));
 8003f6c:	69fb      	ldr	r3, [r7, #28]
 8003f6e:	f003 0303 	and.w	r3, r3, #3
 8003f72:	009b      	lsls	r3, r3, #2
 8003f74:	220f      	movs	r2, #15
 8003f76:	fa02 f303 	lsl.w	r3, r2, r3
 8003f7a:	43db      	mvns	r3, r3
 8003f7c:	69ba      	ldr	r2, [r7, #24]
 8003f7e:	4013      	ands	r3, r2
 8003f80:	61bb      	str	r3, [r7, #24]
        temp |= (GPIO_GET_INDEX(GPIOx) << (4U * (position & 0x03U)));
 8003f82:	687b      	ldr	r3, [r7, #4]
 8003f84:	4a20      	ldr	r2, [pc, #128]	; (8004008 <HAL_GPIO_Init+0x240>)
 8003f86:	4293      	cmp	r3, r2
 8003f88:	d052      	beq.n	8004030 <HAL_GPIO_Init+0x268>
 8003f8a:	687b      	ldr	r3, [r7, #4]
 8003f8c:	4a1f      	ldr	r2, [pc, #124]	; (800400c <HAL_GPIO_Init+0x244>)
 8003f8e:	4293      	cmp	r3, r2
 8003f90:	d031      	beq.n	8003ff6 <HAL_GPIO_Init+0x22e>
 8003f92:	687b      	ldr	r3, [r7, #4]
 8003f94:	4a1e      	ldr	r2, [pc, #120]	; (8004010 <HAL_GPIO_Init+0x248>)
 8003f96:	4293      	cmp	r3, r2
 8003f98:	d02b      	beq.n	8003ff2 <HAL_GPIO_Init+0x22a>
 8003f9a:	687b      	ldr	r3, [r7, #4]
 8003f9c:	4a1d      	ldr	r2, [pc, #116]	; (8004014 <HAL_GPIO_Init+0x24c>)
 8003f9e:	4293      	cmp	r3, r2
 8003fa0:	d025      	beq.n	8003fee <HAL_GPIO_Init+0x226>
 8003fa2:	687b      	ldr	r3, [r7, #4]
 8003fa4:	4a1c      	ldr	r2, [pc, #112]	; (8004018 <HAL_GPIO_Init+0x250>)
 8003fa6:	4293      	cmp	r3, r2
 8003fa8:	d01f      	beq.n	8003fea <HAL_GPIO_Init+0x222>
 8003faa:	687b      	ldr	r3, [r7, #4]
 8003fac:	4a1b      	ldr	r2, [pc, #108]	; (800401c <HAL_GPIO_Init+0x254>)
 8003fae:	4293      	cmp	r3, r2
 8003fb0:	d019      	beq.n	8003fe6 <HAL_GPIO_Init+0x21e>
 8003fb2:	687b      	ldr	r3, [r7, #4]
 8003fb4:	4a1a      	ldr	r2, [pc, #104]	; (8004020 <HAL_GPIO_Init+0x258>)
 8003fb6:	4293      	cmp	r3, r2
 8003fb8:	d013      	beq.n	8003fe2 <HAL_GPIO_Init+0x21a>
 8003fba:	687b      	ldr	r3, [r7, #4]
 8003fbc:	4a19      	ldr	r2, [pc, #100]	; (8004024 <HAL_GPIO_Init+0x25c>)
 8003fbe:	4293      	cmp	r3, r2
 8003fc0:	d00d      	beq.n	8003fde <HAL_GPIO_Init+0x216>
 8003fc2:	687b      	ldr	r3, [r7, #4]
 8003fc4:	4a18      	ldr	r2, [pc, #96]	; (8004028 <HAL_GPIO_Init+0x260>)
 8003fc6:	4293      	cmp	r3, r2
 8003fc8:	d007      	beq.n	8003fda <HAL_GPIO_Init+0x212>
 8003fca:	687b      	ldr	r3, [r7, #4]
 8003fcc:	4a17      	ldr	r2, [pc, #92]	; (800402c <HAL_GPIO_Init+0x264>)
 8003fce:	4293      	cmp	r3, r2
 8003fd0:	d101      	bne.n	8003fd6 <HAL_GPIO_Init+0x20e>
 8003fd2:	2309      	movs	r3, #9
 8003fd4:	e02d      	b.n	8004032 <HAL_GPIO_Init+0x26a>
 8003fd6:	230a      	movs	r3, #10
 8003fd8:	e02b      	b.n	8004032 <HAL_GPIO_Init+0x26a>
 8003fda:	2308      	movs	r3, #8
 8003fdc:	e029      	b.n	8004032 <HAL_GPIO_Init+0x26a>
 8003fde:	2307      	movs	r3, #7
 8003fe0:	e027      	b.n	8004032 <HAL_GPIO_Init+0x26a>
 8003fe2:	2306      	movs	r3, #6
 8003fe4:	e025      	b.n	8004032 <HAL_GPIO_Init+0x26a>
 8003fe6:	2305      	movs	r3, #5
 8003fe8:	e023      	b.n	8004032 <HAL_GPIO_Init+0x26a>
 8003fea:	2304      	movs	r3, #4
 8003fec:	e021      	b.n	8004032 <HAL_GPIO_Init+0x26a>
 8003fee:	2303      	movs	r3, #3
 8003ff0:	e01f      	b.n	8004032 <HAL_GPIO_Init+0x26a>
 8003ff2:	2302      	movs	r3, #2
 8003ff4:	e01d      	b.n	8004032 <HAL_GPIO_Init+0x26a>
 8003ff6:	2301      	movs	r3, #1
 8003ff8:	e01b      	b.n	8004032 <HAL_GPIO_Init+0x26a>
 8003ffa:	bf00      	nop
 8003ffc:	58000080 	.word	0x58000080
 8004000:	58024400 	.word	0x58024400
 8004004:	58000400 	.word	0x58000400
 8004008:	58020000 	.word	0x58020000
 800400c:	58020400 	.word	0x58020400
 8004010:	58020800 	.word	0x58020800
 8004014:	58020c00 	.word	0x58020c00
 8004018:	58021000 	.word	0x58021000
 800401c:	58021400 	.word	0x58021400
 8004020:	58021800 	.word	0x58021800
 8004024:	58021c00 	.word	0x58021c00
 8004028:	58022000 	.word	0x58022000
 800402c:	58022400 	.word	0x58022400
 8004030:	2300      	movs	r3, #0
 8004032:	69fa      	ldr	r2, [r7, #28]
 8004034:	f002 0203 	and.w	r2, r2, #3
 8004038:	0092      	lsls	r2, r2, #2
 800403a:	4093      	lsls	r3, r2
 800403c:	69ba      	ldr	r2, [r7, #24]
 800403e:	4313      	orrs	r3, r2
 8004040:	61bb      	str	r3, [r7, #24]
        SYSCFG->EXTICR[position >> 2U] = temp;
 8004042:	4938      	ldr	r1, [pc, #224]	; (8004124 <HAL_GPIO_Init+0x35c>)
 8004044:	69fb      	ldr	r3, [r7, #28]
 8004046:	089b      	lsrs	r3, r3, #2
 8004048:	3302      	adds	r3, #2
 800404a:	69ba      	ldr	r2, [r7, #24]
 800404c:	f841 2023 	str.w	r2, [r1, r3, lsl #2]

        /* Clear Rising Falling edge configuration */
        temp = EXTI->RTSR1;
 8004050:	f04f 43b0 	mov.w	r3, #1476395008	; 0x58000000
 8004054:	681b      	ldr	r3, [r3, #0]
 8004056:	61bb      	str	r3, [r7, #24]
        temp &= ~(iocurrent);
 8004058:	693b      	ldr	r3, [r7, #16]
 800405a:	43db      	mvns	r3, r3
 800405c:	69ba      	ldr	r2, [r7, #24]
 800405e:	4013      	ands	r3, r2
 8004060:	61bb      	str	r3, [r7, #24]
        if ((GPIO_Init->Mode & TRIGGER_RISING) != 0x00U)
 8004062:	683b      	ldr	r3, [r7, #0]
 8004064:	685b      	ldr	r3, [r3, #4]
 8004066:	f403 1380 	and.w	r3, r3, #1048576	; 0x100000
 800406a:	2b00      	cmp	r3, #0
 800406c:	d003      	beq.n	8004076 <HAL_GPIO_Init+0x2ae>
        {
          temp |= iocurrent;
 800406e:	69ba      	ldr	r2, [r7, #24]
 8004070:	693b      	ldr	r3, [r7, #16]
 8004072:	4313      	orrs	r3, r2
 8004074:	61bb      	str	r3, [r7, #24]
        }
        EXTI->RTSR1 = temp;
 8004076:	f04f 42b0 	mov.w	r2, #1476395008	; 0x58000000
 800407a:	69bb      	ldr	r3, [r7, #24]
 800407c:	6013      	str	r3, [r2, #0]

        temp = EXTI->FTSR1;
 800407e:	f04f 43b0 	mov.w	r3, #1476395008	; 0x58000000
 8004082:	685b      	ldr	r3, [r3, #4]
 8004084:	61bb      	str	r3, [r7, #24]
        temp &= ~(iocurrent);
 8004086:	693b      	ldr	r3, [r7, #16]
 8004088:	43db      	mvns	r3, r3
 800408a:	69ba      	ldr	r2, [r7, #24]
 800408c:	4013      	ands	r3, r2
 800408e:	61bb      	str	r3, [r7, #24]
        if ((GPIO_Init->Mode & TRIGGER_FALLING) != 0x00U)
 8004090:	683b      	ldr	r3, [r7, #0]
 8004092:	685b      	ldr	r3, [r3, #4]
 8004094:	f403 1300 	and.w	r3, r3, #2097152	; 0x200000
 8004098:	2b00      	cmp	r3, #0
 800409a:	d003      	beq.n	80040a4 <HAL_GPIO_Init+0x2dc>
        {
          temp |= iocurrent;
 800409c:	69ba      	ldr	r2, [r7, #24]
 800409e:	693b      	ldr	r3, [r7, #16]
 80040a0:	4313      	orrs	r3, r2
 80040a2:	61bb      	str	r3, [r7, #24]
        }
        EXTI->FTSR1 = temp;
 80040a4:	f04f 42b0 	mov.w	r2, #1476395008	; 0x58000000
 80040a8:	69bb      	ldr	r3, [r7, #24]
 80040aa:	6053      	str	r3, [r2, #4]

        temp = EXTI_CurrentCPU->EMR1;
 80040ac:	697b      	ldr	r3, [r7, #20]
 80040ae:	685b      	ldr	r3, [r3, #4]
 80040b0:	61bb      	str	r3, [r7, #24]
        temp &= ~(iocurrent);
 80040b2:	693b      	ldr	r3, [r7, #16]
 80040b4:	43db      	mvns	r3, r3
 80040b6:	69ba      	ldr	r2, [r7, #24]
 80040b8:	4013      	ands	r3, r2
 80040ba:	61bb      	str	r3, [r7, #24]
        if ((GPIO_Init->Mode & EXTI_EVT) != 0x00U)
 80040bc:	683b      	ldr	r3, [r7, #0]
 80040be:	685b      	ldr	r3, [r3, #4]
 80040c0:	f403 3300 	and.w	r3, r3, #131072	; 0x20000
 80040c4:	2b00      	cmp	r3, #0
 80040c6:	d003      	beq.n	80040d0 <HAL_GPIO_Init+0x308>
        {
          temp |= iocurrent;
 80040c8:	69ba      	ldr	r2, [r7, #24]
 80040ca:	693b      	ldr	r3, [r7, #16]
 80040cc:	4313      	orrs	r3, r2
 80040ce:	61bb      	str	r3, [r7, #24]
        }
        EXTI_CurrentCPU->EMR1 = temp;
 80040d0:	697b      	ldr	r3, [r7, #20]
 80040d2:	69ba      	ldr	r2, [r7, #24]
 80040d4:	605a      	str	r2, [r3, #4]

        /* Clear EXTI line configuration */
        temp = EXTI_CurrentCPU->IMR1;
 80040d6:	697b      	ldr	r3, [r7, #20]
 80040d8:	681b      	ldr	r3, [r3, #0]
 80040da:	61bb      	str	r3, [r7, #24]
        temp &= ~(iocurrent);
 80040dc:	693b      	ldr	r3, [r7, #16]
 80040de:	43db      	mvns	r3, r3
 80040e0:	69ba      	ldr	r2, [r7, #24]
 80040e2:	4013      	ands	r3, r2
 80040e4:	61bb      	str	r3, [r7, #24]
        if ((GPIO_Init->Mode & EXTI_IT) != 0x00U)
 80040e6:	683b      	ldr	r3, [r7, #0]
 80040e8:	685b      	ldr	r3, [r3, #4]
 80040ea:	f403 3380 	and.w	r3, r3, #65536	; 0x10000
 80040ee:	2b00      	cmp	r3, #0
 80040f0:	d003      	beq.n	80040fa <HAL_GPIO_Init+0x332>
        {
          temp |= iocurrent;
 80040f2:	69ba      	ldr	r2, [r7, #24]
 80040f4:	693b      	ldr	r3, [r7, #16]
 80040f6:	4313      	orrs	r3, r2
 80040f8:	61bb      	str	r3, [r7, #24]
        }
        EXTI_CurrentCPU->IMR1 = temp;
 80040fa:	697b      	ldr	r3, [r7, #20]
 80040fc:	69ba      	ldr	r2, [r7, #24]
 80040fe:	601a      	str	r2, [r3, #0]
      }
    }

    position++;
 8004100:	69fb      	ldr	r3, [r7, #28]
 8004102:	3301      	adds	r3, #1
 8004104:	61fb      	str	r3, [r7, #28]
  while (((GPIO_Init->Pin) >> position) != 0x00U)
 8004106:	683b      	ldr	r3, [r7, #0]
 8004108:	681a      	ldr	r2, [r3, #0]
 800410a:	69fb      	ldr	r3, [r7, #28]
 800410c:	fa22 f303 	lsr.w	r3, r2, r3
 8004110:	2b00      	cmp	r3, #0
 8004112:	f47f ae63 	bne.w	8003ddc <HAL_GPIO_Init+0x14>
  }
}
 8004116:	bf00      	nop
 8004118:	bf00      	nop
 800411a:	3724      	adds	r7, #36	; 0x24
 800411c:	46bd      	mov	sp, r7
 800411e:	f85d 7b04 	ldr.w	r7, [sp], #4
 8004122:	4770      	bx	lr
 8004124:	58000400 	.word	0x58000400

08004128 <HAL_GPIO_WritePin>:
  *            @arg GPIO_PIN_RESET: to clear the port pin
  *            @arg GPIO_PIN_SET: to set the port pin
  * @retval None
  */
void HAL_GPIO_WritePin(GPIO_TypeDef *GPIOx, uint16_t GPIO_Pin, GPIO_PinState PinState)
{
 8004128:	b480      	push	{r7}
 800412a:	b083      	sub	sp, #12
 800412c:	af00      	add	r7, sp, #0
 800412e:	6078      	str	r0, [r7, #4]
 8004130:	460b      	mov	r3, r1
 8004132:	807b      	strh	r3, [r7, #2]
 8004134:	4613      	mov	r3, r2
 8004136:	707b      	strb	r3, [r7, #1]
  /* Check the parameters */
  assert_param(IS_GPIO_PIN(GPIO_Pin));
  assert_param(IS_GPIO_PIN_ACTION(PinState));

  if (PinState != GPIO_PIN_RESET)
 8004138:	787b      	ldrb	r3, [r7, #1]
 800413a:	2b00      	cmp	r3, #0
 800413c:	d003      	beq.n	8004146 <HAL_GPIO_WritePin+0x1e>
  {
    GPIOx->BSRR = GPIO_Pin;
 800413e:	887a      	ldrh	r2, [r7, #2]
 8004140:	687b      	ldr	r3, [r7, #4]
 8004142:	619a      	str	r2, [r3, #24]
  }
  else
  {
    GPIOx->BSRR = (uint32_t)GPIO_Pin << GPIO_NUMBER;
  }
}
 8004144:	e003      	b.n	800414e <HAL_GPIO_WritePin+0x26>
    GPIOx->BSRR = (uint32_t)GPIO_Pin << GPIO_NUMBER;
 8004146:	887b      	ldrh	r3, [r7, #2]
 8004148:	041a      	lsls	r2, r3, #16
 800414a:	687b      	ldr	r3, [r7, #4]
 800414c:	619a      	str	r2, [r3, #24]
}
 800414e:	bf00      	nop
 8004150:	370c      	adds	r7, #12
 8004152:	46bd      	mov	sp, r7
 8004154:	f85d 7b04 	ldr.w	r7, [sp], #4
 8004158:	4770      	bx	lr

0800415a <HAL_GPIO_TogglePin>:
  * @param  GPIOx: Where x can be (A..K) to select the GPIO peripheral.
  * @param  GPIO_Pin: Specifies the pins to be toggled.
  * @retval None
  */
void HAL_GPIO_TogglePin(GPIO_TypeDef *GPIOx, uint16_t GPIO_Pin)
{
 800415a:	b480      	push	{r7}
 800415c:	b085      	sub	sp, #20
 800415e:	af00      	add	r7, sp, #0
 8004160:	6078      	str	r0, [r7, #4]
 8004162:	460b      	mov	r3, r1
 8004164:	807b      	strh	r3, [r7, #2]

  /* Check the parameters */
  assert_param(IS_GPIO_PIN(GPIO_Pin));

  /* get current Output Data Register value */
  odr = GPIOx->ODR;
 8004166:	687b      	ldr	r3, [r7, #4]
 8004168:	695b      	ldr	r3, [r3, #20]
 800416a:	60fb      	str	r3, [r7, #12]

  /* Set selected pins that were at low level, and reset ones that were high */
  GPIOx->BSRR = ((odr & GPIO_Pin) << GPIO_NUMBER) | (~odr & GPIO_Pin);
 800416c:	887a      	ldrh	r2, [r7, #2]
 800416e:	68fb      	ldr	r3, [r7, #12]
 8004170:	4013      	ands	r3, r2
 8004172:	041a      	lsls	r2, r3, #16
 8004174:	68fb      	ldr	r3, [r7, #12]
 8004176:	43d9      	mvns	r1, r3
 8004178:	887b      	ldrh	r3, [r7, #2]
 800417a:	400b      	ands	r3, r1
 800417c:	431a      	orrs	r2, r3
 800417e:	687b      	ldr	r3, [r7, #4]
 8004180:	619a      	str	r2, [r3, #24]
}
 8004182:	bf00      	nop
 8004184:	3714      	adds	r7, #20
 8004186:	46bd      	mov	sp, r7
 8004188:	f85d 7b04 	ldr.w	r7, [sp], #4
 800418c:	4770      	bx	lr

0800418e <HAL_GPIO_EXTI_IRQHandler>:
  * @brief  Handle EXTI interrupt request.
  * @param  GPIO_Pin: Specifies the port pin connected to corresponding EXTI line.
  * @retval None
  */
void HAL_GPIO_EXTI_IRQHandler(uint16_t GPIO_Pin)
{
 800418e:	b580      	push	{r7, lr}
 8004190:	b082      	sub	sp, #8
 8004192:	af00      	add	r7, sp, #0
 8004194:	4603      	mov	r3, r0
 8004196:	80fb      	strh	r3, [r7, #6]
    __HAL_GPIO_EXTID2_CLEAR_IT(GPIO_Pin);
    HAL_GPIO_EXTI_Callback(GPIO_Pin);
  }
#else
  /* EXTI line interrupt detected */
  if (__HAL_GPIO_EXTI_GET_IT(GPIO_Pin) != 0x00U)
 8004198:	f04f 43b0 	mov.w	r3, #1476395008	; 0x58000000
 800419c:	f8d3 2088 	ldr.w	r2, [r3, #136]	; 0x88
 80041a0:	88fb      	ldrh	r3, [r7, #6]
 80041a2:	4013      	ands	r3, r2
 80041a4:	2b00      	cmp	r3, #0
 80041a6:	d008      	beq.n	80041ba <HAL_GPIO_EXTI_IRQHandler+0x2c>
  {
    __HAL_GPIO_EXTI_CLEAR_IT(GPIO_Pin);
 80041a8:	f04f 42b0 	mov.w	r2, #1476395008	; 0x58000000
 80041ac:	88fb      	ldrh	r3, [r7, #6]
 80041ae:	f8c2 3088 	str.w	r3, [r2, #136]	; 0x88
    HAL_GPIO_EXTI_Callback(GPIO_Pin);
 80041b2:	88fb      	ldrh	r3, [r7, #6]
 80041b4:	4618      	mov	r0, r3
 80041b6:	f7ff fa6f 	bl	8003698 <HAL_GPIO_EXTI_Callback>
  }
#endif
}
 80041ba:	bf00      	nop
 80041bc:	3708      	adds	r7, #8
 80041be:	46bd      	mov	sp, r7
 80041c0:	bd80      	pop	{r7, pc}
	...

080041c4 <HAL_PWREx_ConfigSupply>:
  *         PWR_SMPS_2V5_SUPPLIES_EXT are used only for lines that supports SMPS
  *         regulator.
  * @retval HAL status.
  */
HAL_StatusTypeDef HAL_PWREx_ConfigSupply (uint32_t SupplySource)
{
 80041c4:	b580      	push	{r7, lr}
 80041c6:	b084      	sub	sp, #16
 80041c8:	af00      	add	r7, sp, #0
 80041ca:	6078      	str	r0, [r7, #4]

  /* Check if supply source was configured */
#if defined (PWR_FLAG_SCUEN)
  if (__HAL_PWR_GET_FLAG (PWR_FLAG_SCUEN) == 0U)
#else
  if ((PWR->CR3 & (PWR_CR3_SMPSEN | PWR_CR3_LDOEN | PWR_CR3_BYPASS)) != (PWR_CR3_SMPSEN | PWR_CR3_LDOEN))
 80041cc:	4b29      	ldr	r3, [pc, #164]	; (8004274 <HAL_PWREx_ConfigSupply+0xb0>)
 80041ce:	68db      	ldr	r3, [r3, #12]
 80041d0:	f003 0307 	and.w	r3, r3, #7
 80041d4:	2b06      	cmp	r3, #6
 80041d6:	d00a      	beq.n	80041ee <HAL_PWREx_ConfigSupply+0x2a>
#endif /* defined (PWR_FLAG_SCUEN) */
  {
    /* Check supply configuration */
    if ((PWR->CR3 & PWR_SUPPLY_CONFIG_MASK) != SupplySource)
 80041d8:	4b26      	ldr	r3, [pc, #152]	; (8004274 <HAL_PWREx_ConfigSupply+0xb0>)
 80041da:	68db      	ldr	r3, [r3, #12]
 80041dc:	f003 033f 	and.w	r3, r3, #63	; 0x3f
 80041e0:	687a      	ldr	r2, [r7, #4]
 80041e2:	429a      	cmp	r2, r3
 80041e4:	d001      	beq.n	80041ea <HAL_PWREx_ConfigSupply+0x26>
    {
      /* Supply configuration update locked, can't apply a new supply config */
      return HAL_ERROR;
 80041e6:	2301      	movs	r3, #1
 80041e8:	e040      	b.n	800426c <HAL_PWREx_ConfigSupply+0xa8>
    else
    {
      /* Supply configuration update locked, but new supply configuration
         matches with old supply configuration : nothing to do
      */
      return HAL_OK;
 80041ea:	2300      	movs	r3, #0
 80041ec:	e03e      	b.n	800426c <HAL_PWREx_ConfigSupply+0xa8>
    }
  }

  /* Set the power supply configuration */
  MODIFY_REG (PWR->CR3, PWR_SUPPLY_CONFIG_MASK, SupplySource);
 80041ee:	4b21      	ldr	r3, [pc, #132]	; (8004274 <HAL_PWREx_ConfigSupply+0xb0>)
 80041f0:	68db      	ldr	r3, [r3, #12]
 80041f2:	f023 023f 	bic.w	r2, r3, #63	; 0x3f
 80041f6:	491f      	ldr	r1, [pc, #124]	; (8004274 <HAL_PWREx_ConfigSupply+0xb0>)
 80041f8:	687b      	ldr	r3, [r7, #4]
 80041fa:	4313      	orrs	r3, r2
 80041fc:	60cb      	str	r3, [r1, #12]

  /* Get tick */
  tickstart = HAL_GetTick ();
 80041fe:	f7ff fca3 	bl	8003b48 <HAL_GetTick>
 8004202:	60f8      	str	r0, [r7, #12]

  /* Wait till voltage level flag is set */
  while (__HAL_PWR_GET_FLAG (PWR_FLAG_ACTVOSRDY) == 0U)
 8004204:	e009      	b.n	800421a <HAL_PWREx_ConfigSupply+0x56>
  {
    if ((HAL_GetTick () - tickstart) > PWR_FLAG_SETTING_DELAY)
 8004206:	f7ff fc9f 	bl	8003b48 <HAL_GetTick>
 800420a:	4602      	mov	r2, r0
 800420c:	68fb      	ldr	r3, [r7, #12]
 800420e:	1ad3      	subs	r3, r2, r3
 8004210:	f5b3 7f7a 	cmp.w	r3, #1000	; 0x3e8
 8004214:	d901      	bls.n	800421a <HAL_PWREx_ConfigSupply+0x56>
    {
      return HAL_ERROR;
 8004216:	2301      	movs	r3, #1
 8004218:	e028      	b.n	800426c <HAL_PWREx_ConfigSupply+0xa8>
  while (__HAL_PWR_GET_FLAG (PWR_FLAG_ACTVOSRDY) == 0U)
 800421a:	4b16      	ldr	r3, [pc, #88]	; (8004274 <HAL_PWREx_ConfigSupply+0xb0>)
 800421c:	685b      	ldr	r3, [r3, #4]
 800421e:	f403 5300 	and.w	r3, r3, #8192	; 0x2000
 8004222:	f5b3 5f00 	cmp.w	r3, #8192	; 0x2000
 8004226:	d1ee      	bne.n	8004206 <HAL_PWREx_ConfigSupply+0x42>
    }
  }

#if defined (SMPS)
  /* When the SMPS supplies external circuits verify that SDEXTRDY flag is set */
  if ((SupplySource == PWR_SMPS_1V8_SUPPLIES_EXT_AND_LDO) ||
 8004228:	687b      	ldr	r3, [r7, #4]
 800422a:	2b1e      	cmp	r3, #30
 800422c:	d008      	beq.n	8004240 <HAL_PWREx_ConfigSupply+0x7c>
 800422e:	687b      	ldr	r3, [r7, #4]
 8004230:	2b2e      	cmp	r3, #46	; 0x2e
 8004232:	d005      	beq.n	8004240 <HAL_PWREx_ConfigSupply+0x7c>
      (SupplySource == PWR_SMPS_2V5_SUPPLIES_EXT_AND_LDO) ||
 8004234:	687b      	ldr	r3, [r7, #4]
 8004236:	2b1d      	cmp	r3, #29
 8004238:	d002      	beq.n	8004240 <HAL_PWREx_ConfigSupply+0x7c>
      (SupplySource == PWR_SMPS_1V8_SUPPLIES_EXT)         ||
 800423a:	687b      	ldr	r3, [r7, #4]
 800423c:	2b2d      	cmp	r3, #45	; 0x2d
 800423e:	d114      	bne.n	800426a <HAL_PWREx_ConfigSupply+0xa6>
      (SupplySource == PWR_SMPS_2V5_SUPPLIES_EXT))
  {
    /* Get the current tick number */
    tickstart = HAL_GetTick ();
 8004240:	f7ff fc82 	bl	8003b48 <HAL_GetTick>
 8004244:	60f8      	str	r0, [r7, #12]

    /* Wait till SMPS external supply ready flag is set */
    while (__HAL_PWR_GET_FLAG (PWR_FLAG_SMPSEXTRDY) == 0U)
 8004246:	e009      	b.n	800425c <HAL_PWREx_ConfigSupply+0x98>
    {
      if ((HAL_GetTick () - tickstart) > PWR_FLAG_SETTING_DELAY)
 8004248:	f7ff fc7e 	bl	8003b48 <HAL_GetTick>
 800424c:	4602      	mov	r2, r0
 800424e:	68fb      	ldr	r3, [r7, #12]
 8004250:	1ad3      	subs	r3, r2, r3
 8004252:	f5b3 7f7a 	cmp.w	r3, #1000	; 0x3e8
 8004256:	d901      	bls.n	800425c <HAL_PWREx_ConfigSupply+0x98>
      {
        return HAL_ERROR;
 8004258:	2301      	movs	r3, #1
 800425a:	e007      	b.n	800426c <HAL_PWREx_ConfigSupply+0xa8>
    while (__HAL_PWR_GET_FLAG (PWR_FLAG_SMPSEXTRDY) == 0U)
 800425c:	4b05      	ldr	r3, [pc, #20]	; (8004274 <HAL_PWREx_ConfigSupply+0xb0>)
 800425e:	68db      	ldr	r3, [r3, #12]
 8004260:	f403 3380 	and.w	r3, r3, #65536	; 0x10000
 8004264:	f5b3 3f80 	cmp.w	r3, #65536	; 0x10000
 8004268:	d1ee      	bne.n	8004248 <HAL_PWREx_ConfigSupply+0x84>
      }
    }
  }
#endif /* defined (SMPS) */

  return HAL_OK;
 800426a:	2300      	movs	r3, #0
}
 800426c:	4618      	mov	r0, r3
 800426e:	3710      	adds	r7, #16
 8004270:	46bd      	mov	sp, r7
 8004272:	bd80      	pop	{r7, pc}
 8004274:	58024800 	.word	0x58024800

08004278 <HAL_RCC_OscConfig>:
  *         supported by this function. User should request a transition to HSE Off
  *         first and then HSE On or HSE Bypass.
  * @retval HAL status
  */
__weak HAL_StatusTypeDef HAL_RCC_OscConfig(RCC_OscInitTypeDef  *RCC_OscInitStruct)
{
 8004278:	b580      	push	{r7, lr}
 800427a:	b08c      	sub	sp, #48	; 0x30
 800427c:	af00      	add	r7, sp, #0
 800427e:	6078      	str	r0, [r7, #4]
  uint32_t tickstart;
  uint32_t temp1_pllckcfg, temp2_pllckcfg;

    /* Check Null pointer */
  if(RCC_OscInitStruct == NULL)
 8004280:	687b      	ldr	r3, [r7, #4]
 8004282:	2b00      	cmp	r3, #0
 8004284:	d101      	bne.n	800428a <HAL_RCC_OscConfig+0x12>
  {
    return HAL_ERROR;
 8004286:	2301      	movs	r3, #1
 8004288:	e3f4      	b.n	8004a74 <HAL_RCC_OscConfig+0x7fc>
  }

  /* Check the parameters */
  assert_param(IS_RCC_OSCILLATORTYPE(RCC_OscInitStruct->OscillatorType));
  /*------------------------------- HSE Configuration ------------------------*/
  if(((RCC_OscInitStruct->OscillatorType) & RCC_OSCILLATORTYPE_HSE) == RCC_OSCILLATORTYPE_HSE)
 800428a:	687b      	ldr	r3, [r7, #4]
 800428c:	681b      	ldr	r3, [r3, #0]
 800428e:	f003 0301 	and.w	r3, r3, #1
 8004292:	2b00      	cmp	r3, #0
 8004294:	f000 80b3 	beq.w	80043fe <HAL_RCC_OscConfig+0x186>
  {
    /* Check the parameters */
    assert_param(IS_RCC_HSE(RCC_OscInitStruct->HSEState));

    const uint32_t temp_sysclksrc = __HAL_RCC_GET_SYSCLK_SOURCE();
 8004298:	4b95      	ldr	r3, [pc, #596]	; (80044f0 <HAL_RCC_OscConfig+0x278>)
 800429a:	691b      	ldr	r3, [r3, #16]
 800429c:	f003 0338 	and.w	r3, r3, #56	; 0x38
 80042a0:	62fb      	str	r3, [r7, #44]	; 0x2c
    const uint32_t temp_pllckselr = RCC->PLLCKSELR;
 80042a2:	4b93      	ldr	r3, [pc, #588]	; (80044f0 <HAL_RCC_OscConfig+0x278>)
 80042a4:	6a9b      	ldr	r3, [r3, #40]	; 0x28
 80042a6:	62bb      	str	r3, [r7, #40]	; 0x28
    /* When the HSE is used as system clock or clock source for PLL in these cases HSE will not disabled */
    if((temp_sysclksrc == RCC_CFGR_SWS_HSE) || ((temp_sysclksrc == RCC_CFGR_SWS_PLL1) && ((temp_pllckselr & RCC_PLLCKSELR_PLLSRC) == RCC_PLLCKSELR_PLLSRC_HSE)))
 80042a8:	6afb      	ldr	r3, [r7, #44]	; 0x2c
 80042aa:	2b10      	cmp	r3, #16
 80042ac:	d007      	beq.n	80042be <HAL_RCC_OscConfig+0x46>
 80042ae:	6afb      	ldr	r3, [r7, #44]	; 0x2c
 80042b0:	2b18      	cmp	r3, #24
 80042b2:	d112      	bne.n	80042da <HAL_RCC_OscConfig+0x62>
 80042b4:	6abb      	ldr	r3, [r7, #40]	; 0x28
 80042b6:	f003 0303 	and.w	r3, r3, #3
 80042ba:	2b02      	cmp	r3, #2
 80042bc:	d10d      	bne.n	80042da <HAL_RCC_OscConfig+0x62>
    {
      if((__HAL_RCC_GET_FLAG(RCC_FLAG_HSERDY) != 0U) && (RCC_OscInitStruct->HSEState == RCC_HSE_OFF))
 80042be:	4b8c      	ldr	r3, [pc, #560]	; (80044f0 <HAL_RCC_OscConfig+0x278>)
 80042c0:	681b      	ldr	r3, [r3, #0]
 80042c2:	f403 3300 	and.w	r3, r3, #131072	; 0x20000
 80042c6:	2b00      	cmp	r3, #0
 80042c8:	f000 8098 	beq.w	80043fc <HAL_RCC_OscConfig+0x184>
 80042cc:	687b      	ldr	r3, [r7, #4]
 80042ce:	685b      	ldr	r3, [r3, #4]
 80042d0:	2b00      	cmp	r3, #0
 80042d2:	f040 8093 	bne.w	80043fc <HAL_RCC_OscConfig+0x184>
      {
        return HAL_ERROR;
 80042d6:	2301      	movs	r3, #1
 80042d8:	e3cc      	b.n	8004a74 <HAL_RCC_OscConfig+0x7fc>
      }
    }
    else
    {
      /* Set the new HSE configuration ---------------------------------------*/
      __HAL_RCC_HSE_CONFIG(RCC_OscInitStruct->HSEState);
 80042da:	687b      	ldr	r3, [r7, #4]
 80042dc:	685b      	ldr	r3, [r3, #4]
 80042de:	f5b3 3f80 	cmp.w	r3, #65536	; 0x10000
 80042e2:	d106      	bne.n	80042f2 <HAL_RCC_OscConfig+0x7a>
 80042e4:	4b82      	ldr	r3, [pc, #520]	; (80044f0 <HAL_RCC_OscConfig+0x278>)
 80042e6:	681b      	ldr	r3, [r3, #0]
 80042e8:	4a81      	ldr	r2, [pc, #516]	; (80044f0 <HAL_RCC_OscConfig+0x278>)
 80042ea:	f443 3380 	orr.w	r3, r3, #65536	; 0x10000
 80042ee:	6013      	str	r3, [r2, #0]
 80042f0:	e058      	b.n	80043a4 <HAL_RCC_OscConfig+0x12c>
 80042f2:	687b      	ldr	r3, [r7, #4]
 80042f4:	685b      	ldr	r3, [r3, #4]
 80042f6:	2b00      	cmp	r3, #0
 80042f8:	d112      	bne.n	8004320 <HAL_RCC_OscConfig+0xa8>
 80042fa:	4b7d      	ldr	r3, [pc, #500]	; (80044f0 <HAL_RCC_OscConfig+0x278>)
 80042fc:	681b      	ldr	r3, [r3, #0]
 80042fe:	4a7c      	ldr	r2, [pc, #496]	; (80044f0 <HAL_RCC_OscConfig+0x278>)
 8004300:	f423 3380 	bic.w	r3, r3, #65536	; 0x10000
 8004304:	6013      	str	r3, [r2, #0]
 8004306:	4b7a      	ldr	r3, [pc, #488]	; (80044f0 <HAL_RCC_OscConfig+0x278>)
 8004308:	681b      	ldr	r3, [r3, #0]
 800430a:	4a79      	ldr	r2, [pc, #484]	; (80044f0 <HAL_RCC_OscConfig+0x278>)
 800430c:	f423 1380 	bic.w	r3, r3, #1048576	; 0x100000
 8004310:	6013      	str	r3, [r2, #0]
 8004312:	4b77      	ldr	r3, [pc, #476]	; (80044f0 <HAL_RCC_OscConfig+0x278>)
 8004314:	681b      	ldr	r3, [r3, #0]
 8004316:	4a76      	ldr	r2, [pc, #472]	; (80044f0 <HAL_RCC_OscConfig+0x278>)
 8004318:	f423 2380 	bic.w	r3, r3, #262144	; 0x40000
 800431c:	6013      	str	r3, [r2, #0]
 800431e:	e041      	b.n	80043a4 <HAL_RCC_OscConfig+0x12c>
 8004320:	687b      	ldr	r3, [r7, #4]
 8004322:	685b      	ldr	r3, [r3, #4]
 8004324:	f5b3 2fa0 	cmp.w	r3, #327680	; 0x50000
 8004328:	d112      	bne.n	8004350 <HAL_RCC_OscConfig+0xd8>
 800432a:	4b71      	ldr	r3, [pc, #452]	; (80044f0 <HAL_RCC_OscConfig+0x278>)
 800432c:	681b      	ldr	r3, [r3, #0]
 800432e:	4a70      	ldr	r2, [pc, #448]	; (80044f0 <HAL_RCC_OscConfig+0x278>)
 8004330:	f443 2380 	orr.w	r3, r3, #262144	; 0x40000
 8004334:	6013      	str	r3, [r2, #0]
 8004336:	4b6e      	ldr	r3, [pc, #440]	; (80044f0 <HAL_RCC_OscConfig+0x278>)
 8004338:	681b      	ldr	r3, [r3, #0]
 800433a:	4a6d      	ldr	r2, [pc, #436]	; (80044f0 <HAL_RCC_OscConfig+0x278>)
 800433c:	f423 1380 	bic.w	r3, r3, #1048576	; 0x100000
 8004340:	6013      	str	r3, [r2, #0]
 8004342:	4b6b      	ldr	r3, [pc, #428]	; (80044f0 <HAL_RCC_OscConfig+0x278>)
 8004344:	681b      	ldr	r3, [r3, #0]
 8004346:	4a6a      	ldr	r2, [pc, #424]	; (80044f0 <HAL_RCC_OscConfig+0x278>)
 8004348:	f443 3380 	orr.w	r3, r3, #65536	; 0x10000
 800434c:	6013      	str	r3, [r2, #0]
 800434e:	e029      	b.n	80043a4 <HAL_RCC_OscConfig+0x12c>
 8004350:	687b      	ldr	r3, [r7, #4]
 8004352:	685b      	ldr	r3, [r3, #4]
 8004354:	f5b3 1fa8 	cmp.w	r3, #1376256	; 0x150000
 8004358:	d112      	bne.n	8004380 <HAL_RCC_OscConfig+0x108>
 800435a:	4b65      	ldr	r3, [pc, #404]	; (80044f0 <HAL_RCC_OscConfig+0x278>)
 800435c:	681b      	ldr	r3, [r3, #0]
 800435e:	4a64      	ldr	r2, [pc, #400]	; (80044f0 <HAL_RCC_OscConfig+0x278>)
 8004360:	f443 2380 	orr.w	r3, r3, #262144	; 0x40000
 8004364:	6013      	str	r3, [r2, #0]
 8004366:	4b62      	ldr	r3, [pc, #392]	; (80044f0 <HAL_RCC_OscConfig+0x278>)
 8004368:	681b      	ldr	r3, [r3, #0]
 800436a:	4a61      	ldr	r2, [pc, #388]	; (80044f0 <HAL_RCC_OscConfig+0x278>)
 800436c:	f443 1380 	orr.w	r3, r3, #1048576	; 0x100000
 8004370:	6013      	str	r3, [r2, #0]
 8004372:	4b5f      	ldr	r3, [pc, #380]	; (80044f0 <HAL_RCC_OscConfig+0x278>)
 8004374:	681b      	ldr	r3, [r3, #0]
 8004376:	4a5e      	ldr	r2, [pc, #376]	; (80044f0 <HAL_RCC_OscConfig+0x278>)
 8004378:	f443 3380 	orr.w	r3, r3, #65536	; 0x10000
 800437c:	6013      	str	r3, [r2, #0]
 800437e:	e011      	b.n	80043a4 <HAL_RCC_OscConfig+0x12c>
 8004380:	4b5b      	ldr	r3, [pc, #364]	; (80044f0 <HAL_RCC_OscConfig+0x278>)
 8004382:	681b      	ldr	r3, [r3, #0]
 8004384:	4a5a      	ldr	r2, [pc, #360]	; (80044f0 <HAL_RCC_OscConfig+0x278>)
 8004386:	f423 3380 	bic.w	r3, r3, #65536	; 0x10000
 800438a:	6013      	str	r3, [r2, #0]
 800438c:	4b58      	ldr	r3, [pc, #352]	; (80044f0 <HAL_RCC_OscConfig+0x278>)
 800438e:	681b      	ldr	r3, [r3, #0]
 8004390:	4a57      	ldr	r2, [pc, #348]	; (80044f0 <HAL_RCC_OscConfig+0x278>)
 8004392:	f423 2380 	bic.w	r3, r3, #262144	; 0x40000
 8004396:	6013      	str	r3, [r2, #0]
 8004398:	4b55      	ldr	r3, [pc, #340]	; (80044f0 <HAL_RCC_OscConfig+0x278>)
 800439a:	681b      	ldr	r3, [r3, #0]
 800439c:	4a54      	ldr	r2, [pc, #336]	; (80044f0 <HAL_RCC_OscConfig+0x278>)
 800439e:	f423 1380 	bic.w	r3, r3, #1048576	; 0x100000
 80043a2:	6013      	str	r3, [r2, #0]

      /* Check the HSE State */
      if(RCC_OscInitStruct->HSEState != RCC_HSE_OFF)
 80043a4:	687b      	ldr	r3, [r7, #4]
 80043a6:	685b      	ldr	r3, [r3, #4]
 80043a8:	2b00      	cmp	r3, #0
 80043aa:	d013      	beq.n	80043d4 <HAL_RCC_OscConfig+0x15c>
      {
        /* Get Start Tick*/
        tickstart = HAL_GetTick();
 80043ac:	f7ff fbcc 	bl	8003b48 <HAL_GetTick>
 80043b0:	6278      	str	r0, [r7, #36]	; 0x24

        /* Wait till HSE is ready */
        while(__HAL_RCC_GET_FLAG(RCC_FLAG_HSERDY) == 0U)
 80043b2:	e008      	b.n	80043c6 <HAL_RCC_OscConfig+0x14e>
        {
          if((uint32_t) (HAL_GetTick() - tickstart ) > HSE_TIMEOUT_VALUE)
 80043b4:	f7ff fbc8 	bl	8003b48 <HAL_GetTick>
 80043b8:	4602      	mov	r2, r0
 80043ba:	6a7b      	ldr	r3, [r7, #36]	; 0x24
 80043bc:	1ad3      	subs	r3, r2, r3
 80043be:	2b64      	cmp	r3, #100	; 0x64
 80043c0:	d901      	bls.n	80043c6 <HAL_RCC_OscConfig+0x14e>
          {
            return HAL_TIMEOUT;
 80043c2:	2303      	movs	r3, #3
 80043c4:	e356      	b.n	8004a74 <HAL_RCC_OscConfig+0x7fc>
        while(__HAL_RCC_GET_FLAG(RCC_FLAG_HSERDY) == 0U)
 80043c6:	4b4a      	ldr	r3, [pc, #296]	; (80044f0 <HAL_RCC_OscConfig+0x278>)
 80043c8:	681b      	ldr	r3, [r3, #0]
 80043ca:	f403 3300 	and.w	r3, r3, #131072	; 0x20000
 80043ce:	2b00      	cmp	r3, #0
 80043d0:	d0f0      	beq.n	80043b4 <HAL_RCC_OscConfig+0x13c>
 80043d2:	e014      	b.n	80043fe <HAL_RCC_OscConfig+0x186>
        }
      }
      else
      {
        /* Get Start Tick*/
        tickstart = HAL_GetTick();
 80043d4:	f7ff fbb8 	bl	8003b48 <HAL_GetTick>
 80043d8:	6278      	str	r0, [r7, #36]	; 0x24

        /* Wait till HSE is disabled */
        while(__HAL_RCC_GET_FLAG(RCC_FLAG_HSERDY) != 0U)
 80043da:	e008      	b.n	80043ee <HAL_RCC_OscConfig+0x176>
        {
          if((uint32_t) (HAL_GetTick() - tickstart ) > HSE_TIMEOUT_VALUE)
 80043dc:	f7ff fbb4 	bl	8003b48 <HAL_GetTick>
 80043e0:	4602      	mov	r2, r0
 80043e2:	6a7b      	ldr	r3, [r7, #36]	; 0x24
 80043e4:	1ad3      	subs	r3, r2, r3
 80043e6:	2b64      	cmp	r3, #100	; 0x64
 80043e8:	d901      	bls.n	80043ee <HAL_RCC_OscConfig+0x176>
          {
            return HAL_TIMEOUT;
 80043ea:	2303      	movs	r3, #3
 80043ec:	e342      	b.n	8004a74 <HAL_RCC_OscConfig+0x7fc>
        while(__HAL_RCC_GET_FLAG(RCC_FLAG_HSERDY) != 0U)
 80043ee:	4b40      	ldr	r3, [pc, #256]	; (80044f0 <HAL_RCC_OscConfig+0x278>)
 80043f0:	681b      	ldr	r3, [r3, #0]
 80043f2:	f403 3300 	and.w	r3, r3, #131072	; 0x20000
 80043f6:	2b00      	cmp	r3, #0
 80043f8:	d1f0      	bne.n	80043dc <HAL_RCC_OscConfig+0x164>
 80043fa:	e000      	b.n	80043fe <HAL_RCC_OscConfig+0x186>
      if((__HAL_RCC_GET_FLAG(RCC_FLAG_HSERDY) != 0U) && (RCC_OscInitStruct->HSEState == RCC_HSE_OFF))
 80043fc:	bf00      	nop
        }
      }
    }
  }
  /*----------------------------- HSI Configuration --------------------------*/
  if(((RCC_OscInitStruct->OscillatorType) & RCC_OSCILLATORTYPE_HSI) == RCC_OSCILLATORTYPE_HSI)
 80043fe:	687b      	ldr	r3, [r7, #4]
 8004400:	681b      	ldr	r3, [r3, #0]
 8004402:	f003 0302 	and.w	r3, r3, #2
 8004406:	2b00      	cmp	r3, #0
 8004408:	f000 808d 	beq.w	8004526 <HAL_RCC_OscConfig+0x2ae>
    /* Check the parameters */
    assert_param(IS_RCC_HSI(RCC_OscInitStruct->HSIState));
    assert_param(IS_RCC_HSICALIBRATION_VALUE(RCC_OscInitStruct->HSICalibrationValue));

    /* When the HSI is used as system clock it will not be disabled */
    const uint32_t temp_sysclksrc = __HAL_RCC_GET_SYSCLK_SOURCE();
 800440c:	4b38      	ldr	r3, [pc, #224]	; (80044f0 <HAL_RCC_OscConfig+0x278>)
 800440e:	691b      	ldr	r3, [r3, #16]
 8004410:	f003 0338 	and.w	r3, r3, #56	; 0x38
 8004414:	623b      	str	r3, [r7, #32]
    const uint32_t temp_pllckselr = RCC->PLLCKSELR;
 8004416:	4b36      	ldr	r3, [pc, #216]	; (80044f0 <HAL_RCC_OscConfig+0x278>)
 8004418:	6a9b      	ldr	r3, [r3, #40]	; 0x28
 800441a:	61fb      	str	r3, [r7, #28]
    if((temp_sysclksrc == RCC_CFGR_SWS_HSI) || ((temp_sysclksrc == RCC_CFGR_SWS_PLL1) && ((temp_pllckselr & RCC_PLLCKSELR_PLLSRC) == RCC_PLLCKSELR_PLLSRC_HSI)))
 800441c:	6a3b      	ldr	r3, [r7, #32]
 800441e:	2b00      	cmp	r3, #0
 8004420:	d007      	beq.n	8004432 <HAL_RCC_OscConfig+0x1ba>
 8004422:	6a3b      	ldr	r3, [r7, #32]
 8004424:	2b18      	cmp	r3, #24
 8004426:	d137      	bne.n	8004498 <HAL_RCC_OscConfig+0x220>
 8004428:	69fb      	ldr	r3, [r7, #28]
 800442a:	f003 0303 	and.w	r3, r3, #3
 800442e:	2b00      	cmp	r3, #0
 8004430:	d132      	bne.n	8004498 <HAL_RCC_OscConfig+0x220>
    {
      /* When HSI is used as system clock it will not be disabled */
      if((__HAL_RCC_GET_FLAG(RCC_FLAG_HSIRDY) != 0U) && (RCC_OscInitStruct->HSIState == RCC_HSI_OFF))
 8004432:	4b2f      	ldr	r3, [pc, #188]	; (80044f0 <HAL_RCC_OscConfig+0x278>)
 8004434:	681b      	ldr	r3, [r3, #0]
 8004436:	f003 0304 	and.w	r3, r3, #4
 800443a:	2b00      	cmp	r3, #0
 800443c:	d005      	beq.n	800444a <HAL_RCC_OscConfig+0x1d2>
 800443e:	687b      	ldr	r3, [r7, #4]
 8004440:	68db      	ldr	r3, [r3, #12]
 8004442:	2b00      	cmp	r3, #0
 8004444:	d101      	bne.n	800444a <HAL_RCC_OscConfig+0x1d2>
      {
        return HAL_ERROR;
 8004446:	2301      	movs	r3, #1
 8004448:	e314      	b.n	8004a74 <HAL_RCC_OscConfig+0x7fc>
      }
      /* Otherwise, only HSI division and calibration are allowed */
      else
      {
          /* Enable the Internal High Speed oscillator (HSI, HSIDIV2, HSIDIV4, or HSIDIV8) */
          __HAL_RCC_HSI_CONFIG(RCC_OscInitStruct->HSIState);
 800444a:	4b29      	ldr	r3, [pc, #164]	; (80044f0 <HAL_RCC_OscConfig+0x278>)
 800444c:	681b      	ldr	r3, [r3, #0]
 800444e:	f023 0219 	bic.w	r2, r3, #25
 8004452:	687b      	ldr	r3, [r7, #4]
 8004454:	68db      	ldr	r3, [r3, #12]
 8004456:	4926      	ldr	r1, [pc, #152]	; (80044f0 <HAL_RCC_OscConfig+0x278>)
 8004458:	4313      	orrs	r3, r2
 800445a:	600b      	str	r3, [r1, #0]

          /* Get Start Tick*/
          tickstart = HAL_GetTick();
 800445c:	f7ff fb74 	bl	8003b48 <HAL_GetTick>
 8004460:	6278      	str	r0, [r7, #36]	; 0x24

          /* Wait till HSI is ready */
          while(__HAL_RCC_GET_FLAG(RCC_FLAG_HSIRDY) == 0U)
 8004462:	e008      	b.n	8004476 <HAL_RCC_OscConfig+0x1fe>
          {
            if((uint32_t) (HAL_GetTick() - tickstart ) > HSI_TIMEOUT_VALUE)
 8004464:	f7ff fb70 	bl	8003b48 <HAL_GetTick>
 8004468:	4602      	mov	r2, r0
 800446a:	6a7b      	ldr	r3, [r7, #36]	; 0x24
 800446c:	1ad3      	subs	r3, r2, r3
 800446e:	2b02      	cmp	r3, #2
 8004470:	d901      	bls.n	8004476 <HAL_RCC_OscConfig+0x1fe>
            {
              return HAL_TIMEOUT;
 8004472:	2303      	movs	r3, #3
 8004474:	e2fe      	b.n	8004a74 <HAL_RCC_OscConfig+0x7fc>
          while(__HAL_RCC_GET_FLAG(RCC_FLAG_HSIRDY) == 0U)
 8004476:	4b1e      	ldr	r3, [pc, #120]	; (80044f0 <HAL_RCC_OscConfig+0x278>)
 8004478:	681b      	ldr	r3, [r3, #0]
 800447a:	f003 0304 	and.w	r3, r3, #4
 800447e:	2b00      	cmp	r3, #0
 8004480:	d0f0      	beq.n	8004464 <HAL_RCC_OscConfig+0x1ec>
            }
          }
        /* Adjusts the Internal High Speed oscillator (HSI) calibration value.*/
        __HAL_RCC_HSI_CALIBRATIONVALUE_ADJUST(RCC_OscInitStruct->HSICalibrationValue);
 8004482:	4b1b      	ldr	r3, [pc, #108]	; (80044f0 <HAL_RCC_OscConfig+0x278>)
 8004484:	685b      	ldr	r3, [r3, #4]
 8004486:	f023 42fe 	bic.w	r2, r3, #2130706432	; 0x7f000000
 800448a:	687b      	ldr	r3, [r7, #4]
 800448c:	691b      	ldr	r3, [r3, #16]
 800448e:	061b      	lsls	r3, r3, #24
 8004490:	4917      	ldr	r1, [pc, #92]	; (80044f0 <HAL_RCC_OscConfig+0x278>)
 8004492:	4313      	orrs	r3, r2
 8004494:	604b      	str	r3, [r1, #4]
      if((__HAL_RCC_GET_FLAG(RCC_FLAG_HSIRDY) != 0U) && (RCC_OscInitStruct->HSIState == RCC_HSI_OFF))
 8004496:	e046      	b.n	8004526 <HAL_RCC_OscConfig+0x2ae>
    }

    else
    {
      /* Check the HSI State */
      if((RCC_OscInitStruct->HSIState)!= RCC_HSI_OFF)
 8004498:	687b      	ldr	r3, [r7, #4]
 800449a:	68db      	ldr	r3, [r3, #12]
 800449c:	2b00      	cmp	r3, #0
 800449e:	d029      	beq.n	80044f4 <HAL_RCC_OscConfig+0x27c>
      {
     /* Enable the Internal High Speed oscillator (HSI, HSIDIV2,HSIDIV4, or HSIDIV8) */
        __HAL_RCC_HSI_CONFIG(RCC_OscInitStruct->HSIState);
 80044a0:	4b13      	ldr	r3, [pc, #76]	; (80044f0 <HAL_RCC_OscConfig+0x278>)
 80044a2:	681b      	ldr	r3, [r3, #0]
 80044a4:	f023 0219 	bic.w	r2, r3, #25
 80044a8:	687b      	ldr	r3, [r7, #4]
 80044aa:	68db      	ldr	r3, [r3, #12]
 80044ac:	4910      	ldr	r1, [pc, #64]	; (80044f0 <HAL_RCC_OscConfig+0x278>)
 80044ae:	4313      	orrs	r3, r2
 80044b0:	600b      	str	r3, [r1, #0]

        /* Get Start Tick*/
        tickstart = HAL_GetTick();
 80044b2:	f7ff fb49 	bl	8003b48 <HAL_GetTick>
 80044b6:	6278      	str	r0, [r7, #36]	; 0x24

        /* Wait till HSI is ready */
        while(__HAL_RCC_GET_FLAG(RCC_FLAG_HSIRDY) == 0U)
 80044b8:	e008      	b.n	80044cc <HAL_RCC_OscConfig+0x254>
        {
          if((HAL_GetTick() - tickstart ) > HSI_TIMEOUT_VALUE)
 80044ba:	f7ff fb45 	bl	8003b48 <HAL_GetTick>
 80044be:	4602      	mov	r2, r0
 80044c0:	6a7b      	ldr	r3, [r7, #36]	; 0x24
 80044c2:	1ad3      	subs	r3, r2, r3
 80044c4:	2b02      	cmp	r3, #2
 80044c6:	d901      	bls.n	80044cc <HAL_RCC_OscConfig+0x254>
          {
            return HAL_TIMEOUT;
 80044c8:	2303      	movs	r3, #3
 80044ca:	e2d3      	b.n	8004a74 <HAL_RCC_OscConfig+0x7fc>
        while(__HAL_RCC_GET_FLAG(RCC_FLAG_HSIRDY) == 0U)
 80044cc:	4b08      	ldr	r3, [pc, #32]	; (80044f0 <HAL_RCC_OscConfig+0x278>)
 80044ce:	681b      	ldr	r3, [r3, #0]
 80044d0:	f003 0304 	and.w	r3, r3, #4
 80044d4:	2b00      	cmp	r3, #0
 80044d6:	d0f0      	beq.n	80044ba <HAL_RCC_OscConfig+0x242>
          }
        }

        /* Adjusts the Internal High Speed oscillator (HSI) calibration value.*/
        __HAL_RCC_HSI_CALIBRATIONVALUE_ADJUST(RCC_OscInitStruct->HSICalibrationValue);
 80044d8:	4b05      	ldr	r3, [pc, #20]	; (80044f0 <HAL_RCC_OscConfig+0x278>)
 80044da:	685b      	ldr	r3, [r3, #4]
 80044dc:	f023 42fe 	bic.w	r2, r3, #2130706432	; 0x7f000000
 80044e0:	687b      	ldr	r3, [r7, #4]
 80044e2:	691b      	ldr	r3, [r3, #16]
 80044e4:	061b      	lsls	r3, r3, #24
 80044e6:	4902      	ldr	r1, [pc, #8]	; (80044f0 <HAL_RCC_OscConfig+0x278>)
 80044e8:	4313      	orrs	r3, r2
 80044ea:	604b      	str	r3, [r1, #4]
 80044ec:	e01b      	b.n	8004526 <HAL_RCC_OscConfig+0x2ae>
 80044ee:	bf00      	nop
 80044f0:	58024400 	.word	0x58024400
      }
      else
      {
        /* Disable the Internal High Speed oscillator (HSI). */
        __HAL_RCC_HSI_DISABLE();
 80044f4:	4b97      	ldr	r3, [pc, #604]	; (8004754 <HAL_RCC_OscConfig+0x4dc>)
 80044f6:	681b      	ldr	r3, [r3, #0]
 80044f8:	4a96      	ldr	r2, [pc, #600]	; (8004754 <HAL_RCC_OscConfig+0x4dc>)
 80044fa:	f023 0301 	bic.w	r3, r3, #1
 80044fe:	6013      	str	r3, [r2, #0]

        /* Get Start Tick*/
        tickstart = HAL_GetTick();
 8004500:	f7ff fb22 	bl	8003b48 <HAL_GetTick>
 8004504:	6278      	str	r0, [r7, #36]	; 0x24

        /* Wait till HSI is disabled */
        while(__HAL_RCC_GET_FLAG(RCC_FLAG_HSIRDY) != 0U)
 8004506:	e008      	b.n	800451a <HAL_RCC_OscConfig+0x2a2>
        {
          if((HAL_GetTick() - tickstart ) > HSI_TIMEOUT_VALUE)
 8004508:	f7ff fb1e 	bl	8003b48 <HAL_GetTick>
 800450c:	4602      	mov	r2, r0
 800450e:	6a7b      	ldr	r3, [r7, #36]	; 0x24
 8004510:	1ad3      	subs	r3, r2, r3
 8004512:	2b02      	cmp	r3, #2
 8004514:	d901      	bls.n	800451a <HAL_RCC_OscConfig+0x2a2>
          {
            return HAL_TIMEOUT;
 8004516:	2303      	movs	r3, #3
 8004518:	e2ac      	b.n	8004a74 <HAL_RCC_OscConfig+0x7fc>
        while(__HAL_RCC_GET_FLAG(RCC_FLAG_HSIRDY) != 0U)
 800451a:	4b8e      	ldr	r3, [pc, #568]	; (8004754 <HAL_RCC_OscConfig+0x4dc>)
 800451c:	681b      	ldr	r3, [r3, #0]
 800451e:	f003 0304 	and.w	r3, r3, #4
 8004522:	2b00      	cmp	r3, #0
 8004524:	d1f0      	bne.n	8004508 <HAL_RCC_OscConfig+0x290>
        }
      }
    }
  }
  /*----------------------------- CSI Configuration --------------------------*/
  if(((RCC_OscInitStruct->OscillatorType) & RCC_OSCILLATORTYPE_CSI) == RCC_OSCILLATORTYPE_CSI)
 8004526:	687b      	ldr	r3, [r7, #4]
 8004528:	681b      	ldr	r3, [r3, #0]
 800452a:	f003 0310 	and.w	r3, r3, #16
 800452e:	2b00      	cmp	r3, #0
 8004530:	d06a      	beq.n	8004608 <HAL_RCC_OscConfig+0x390>
    /* Check the parameters */
    assert_param(IS_RCC_CSI(RCC_OscInitStruct->CSIState));
    assert_param(IS_RCC_CSICALIBRATION_VALUE(RCC_OscInitStruct->CSICalibrationValue));

    /* When the CSI is used as system clock it will not disabled */
    const uint32_t temp_sysclksrc = __HAL_RCC_GET_SYSCLK_SOURCE();
 8004532:	4b88      	ldr	r3, [pc, #544]	; (8004754 <HAL_RCC_OscConfig+0x4dc>)
 8004534:	691b      	ldr	r3, [r3, #16]
 8004536:	f003 0338 	and.w	r3, r3, #56	; 0x38
 800453a:	61bb      	str	r3, [r7, #24]
    const uint32_t temp_pllckselr = RCC->PLLCKSELR;
 800453c:	4b85      	ldr	r3, [pc, #532]	; (8004754 <HAL_RCC_OscConfig+0x4dc>)
 800453e:	6a9b      	ldr	r3, [r3, #40]	; 0x28
 8004540:	617b      	str	r3, [r7, #20]
    if((temp_sysclksrc == RCC_CFGR_SWS_CSI) || ((temp_sysclksrc == RCC_CFGR_SWS_PLL1) && ((temp_pllckselr & RCC_PLLCKSELR_PLLSRC) == RCC_PLLCKSELR_PLLSRC_CSI)))
 8004542:	69bb      	ldr	r3, [r7, #24]
 8004544:	2b08      	cmp	r3, #8
 8004546:	d007      	beq.n	8004558 <HAL_RCC_OscConfig+0x2e0>
 8004548:	69bb      	ldr	r3, [r7, #24]
 800454a:	2b18      	cmp	r3, #24
 800454c:	d11b      	bne.n	8004586 <HAL_RCC_OscConfig+0x30e>
 800454e:	697b      	ldr	r3, [r7, #20]
 8004550:	f003 0303 	and.w	r3, r3, #3
 8004554:	2b01      	cmp	r3, #1
 8004556:	d116      	bne.n	8004586 <HAL_RCC_OscConfig+0x30e>
    {
      /* When CSI is used as system clock it will not disabled */
      if((__HAL_RCC_GET_FLAG(RCC_FLAG_CSIRDY) != 0U) && (RCC_OscInitStruct->CSIState != RCC_CSI_ON))
 8004558:	4b7e      	ldr	r3, [pc, #504]	; (8004754 <HAL_RCC_OscConfig+0x4dc>)
 800455a:	681b      	ldr	r3, [r3, #0]
 800455c:	f403 7380 	and.w	r3, r3, #256	; 0x100
 8004560:	2b00      	cmp	r3, #0
 8004562:	d005      	beq.n	8004570 <HAL_RCC_OscConfig+0x2f8>
 8004564:	687b      	ldr	r3, [r7, #4]
 8004566:	69db      	ldr	r3, [r3, #28]
 8004568:	2b80      	cmp	r3, #128	; 0x80
 800456a:	d001      	beq.n	8004570 <HAL_RCC_OscConfig+0x2f8>
      {
        return HAL_ERROR;
 800456c:	2301      	movs	r3, #1
 800456e:	e281      	b.n	8004a74 <HAL_RCC_OscConfig+0x7fc>
      }
      /* Otherwise, just the calibration is allowed */
      else
      {
        /* Adjusts the Internal High Speed oscillator (CSI) calibration value.*/
        __HAL_RCC_CSI_CALIBRATIONVALUE_ADJUST(RCC_OscInitStruct->CSICalibrationValue);
 8004570:	4b78      	ldr	r3, [pc, #480]	; (8004754 <HAL_RCC_OscConfig+0x4dc>)
 8004572:	68db      	ldr	r3, [r3, #12]
 8004574:	f023 527c 	bic.w	r2, r3, #1056964608	; 0x3f000000
 8004578:	687b      	ldr	r3, [r7, #4]
 800457a:	6a1b      	ldr	r3, [r3, #32]
 800457c:	061b      	lsls	r3, r3, #24
 800457e:	4975      	ldr	r1, [pc, #468]	; (8004754 <HAL_RCC_OscConfig+0x4dc>)
 8004580:	4313      	orrs	r3, r2
 8004582:	60cb      	str	r3, [r1, #12]
      if((__HAL_RCC_GET_FLAG(RCC_FLAG_CSIRDY) != 0U) && (RCC_OscInitStruct->CSIState != RCC_CSI_ON))
 8004584:	e040      	b.n	8004608 <HAL_RCC_OscConfig+0x390>
      }
    }
    else
    {
      /* Check the CSI State */
      if((RCC_OscInitStruct->CSIState)!= RCC_CSI_OFF)
 8004586:	687b      	ldr	r3, [r7, #4]
 8004588:	69db      	ldr	r3, [r3, #28]
 800458a:	2b00      	cmp	r3, #0
 800458c:	d023      	beq.n	80045d6 <HAL_RCC_OscConfig+0x35e>
      {
        /* Enable the Internal High Speed oscillator (CSI). */
        __HAL_RCC_CSI_ENABLE();
 800458e:	4b71      	ldr	r3, [pc, #452]	; (8004754 <HAL_RCC_OscConfig+0x4dc>)
 8004590:	681b      	ldr	r3, [r3, #0]
 8004592:	4a70      	ldr	r2, [pc, #448]	; (8004754 <HAL_RCC_OscConfig+0x4dc>)
 8004594:	f043 0380 	orr.w	r3, r3, #128	; 0x80
 8004598:	6013      	str	r3, [r2, #0]

        /* Get Start Tick*/
        tickstart = HAL_GetTick();
 800459a:	f7ff fad5 	bl	8003b48 <HAL_GetTick>
 800459e:	6278      	str	r0, [r7, #36]	; 0x24

        /* Wait till CSI is ready */
        while(__HAL_RCC_GET_FLAG(RCC_FLAG_CSIRDY) == 0U)
 80045a0:	e008      	b.n	80045b4 <HAL_RCC_OscConfig+0x33c>
        {
          if((HAL_GetTick() - tickstart ) > CSI_TIMEOUT_VALUE)
 80045a2:	f7ff fad1 	bl	8003b48 <HAL_GetTick>
 80045a6:	4602      	mov	r2, r0
 80045a8:	6a7b      	ldr	r3, [r7, #36]	; 0x24
 80045aa:	1ad3      	subs	r3, r2, r3
 80045ac:	2b02      	cmp	r3, #2
 80045ae:	d901      	bls.n	80045b4 <HAL_RCC_OscConfig+0x33c>
          {
            return HAL_TIMEOUT;
 80045b0:	2303      	movs	r3, #3
 80045b2:	e25f      	b.n	8004a74 <HAL_RCC_OscConfig+0x7fc>
        while(__HAL_RCC_GET_FLAG(RCC_FLAG_CSIRDY) == 0U)
 80045b4:	4b67      	ldr	r3, [pc, #412]	; (8004754 <HAL_RCC_OscConfig+0x4dc>)
 80045b6:	681b      	ldr	r3, [r3, #0]
 80045b8:	f403 7380 	and.w	r3, r3, #256	; 0x100
 80045bc:	2b00      	cmp	r3, #0
 80045be:	d0f0      	beq.n	80045a2 <HAL_RCC_OscConfig+0x32a>
          }
        }

        /* Adjusts the Internal High Speed oscillator (CSI) calibration value.*/
        __HAL_RCC_CSI_CALIBRATIONVALUE_ADJUST(RCC_OscInitStruct->CSICalibrationValue);
 80045c0:	4b64      	ldr	r3, [pc, #400]	; (8004754 <HAL_RCC_OscConfig+0x4dc>)
 80045c2:	68db      	ldr	r3, [r3, #12]
 80045c4:	f023 527c 	bic.w	r2, r3, #1056964608	; 0x3f000000
 80045c8:	687b      	ldr	r3, [r7, #4]
 80045ca:	6a1b      	ldr	r3, [r3, #32]
 80045cc:	061b      	lsls	r3, r3, #24
 80045ce:	4961      	ldr	r1, [pc, #388]	; (8004754 <HAL_RCC_OscConfig+0x4dc>)
 80045d0:	4313      	orrs	r3, r2
 80045d2:	60cb      	str	r3, [r1, #12]
 80045d4:	e018      	b.n	8004608 <HAL_RCC_OscConfig+0x390>
      }
      else
      {
        /* Disable the Internal High Speed oscillator (CSI). */
        __HAL_RCC_CSI_DISABLE();
 80045d6:	4b5f      	ldr	r3, [pc, #380]	; (8004754 <HAL_RCC_OscConfig+0x4dc>)
 80045d8:	681b      	ldr	r3, [r3, #0]
 80045da:	4a5e      	ldr	r2, [pc, #376]	; (8004754 <HAL_RCC_OscConfig+0x4dc>)
 80045dc:	f023 0380 	bic.w	r3, r3, #128	; 0x80
 80045e0:	6013      	str	r3, [r2, #0]

        /* Get Start Tick*/
        tickstart = HAL_GetTick();
 80045e2:	f7ff fab1 	bl	8003b48 <HAL_GetTick>
 80045e6:	6278      	str	r0, [r7, #36]	; 0x24

        /* Wait till CSI is disabled */
        while(__HAL_RCC_GET_FLAG(RCC_FLAG_CSIRDY) != 0U)
 80045e8:	e008      	b.n	80045fc <HAL_RCC_OscConfig+0x384>
        {
          if((HAL_GetTick() - tickstart ) > CSI_TIMEOUT_VALUE)
 80045ea:	f7ff faad 	bl	8003b48 <HAL_GetTick>
 80045ee:	4602      	mov	r2, r0
 80045f0:	6a7b      	ldr	r3, [r7, #36]	; 0x24
 80045f2:	1ad3      	subs	r3, r2, r3
 80045f4:	2b02      	cmp	r3, #2
 80045f6:	d901      	bls.n	80045fc <HAL_RCC_OscConfig+0x384>
          {
            return HAL_TIMEOUT;
 80045f8:	2303      	movs	r3, #3
 80045fa:	e23b      	b.n	8004a74 <HAL_RCC_OscConfig+0x7fc>
        while(__HAL_RCC_GET_FLAG(RCC_FLAG_CSIRDY) != 0U)
 80045fc:	4b55      	ldr	r3, [pc, #340]	; (8004754 <HAL_RCC_OscConfig+0x4dc>)
 80045fe:	681b      	ldr	r3, [r3, #0]
 8004600:	f403 7380 	and.w	r3, r3, #256	; 0x100
 8004604:	2b00      	cmp	r3, #0
 8004606:	d1f0      	bne.n	80045ea <HAL_RCC_OscConfig+0x372>
        }
      }
    }
  }
  /*------------------------------ LSI Configuration -------------------------*/
  if(((RCC_OscInitStruct->OscillatorType) & RCC_OSCILLATORTYPE_LSI) == RCC_OSCILLATORTYPE_LSI)
 8004608:	687b      	ldr	r3, [r7, #4]
 800460a:	681b      	ldr	r3, [r3, #0]
 800460c:	f003 0308 	and.w	r3, r3, #8
 8004610:	2b00      	cmp	r3, #0
 8004612:	d036      	beq.n	8004682 <HAL_RCC_OscConfig+0x40a>
  {
    /* Check the parameters */
    assert_param(IS_RCC_LSI(RCC_OscInitStruct->LSIState));

    /* Check the LSI State */
    if((RCC_OscInitStruct->LSIState)!= RCC_LSI_OFF)
 8004614:	687b      	ldr	r3, [r7, #4]
 8004616:	695b      	ldr	r3, [r3, #20]
 8004618:	2b00      	cmp	r3, #0
 800461a:	d019      	beq.n	8004650 <HAL_RCC_OscConfig+0x3d8>
    {
      /* Enable the Internal Low Speed oscillator (LSI). */
      __HAL_RCC_LSI_ENABLE();
 800461c:	4b4d      	ldr	r3, [pc, #308]	; (8004754 <HAL_RCC_OscConfig+0x4dc>)
 800461e:	6f5b      	ldr	r3, [r3, #116]	; 0x74
 8004620:	4a4c      	ldr	r2, [pc, #304]	; (8004754 <HAL_RCC_OscConfig+0x4dc>)
 8004622:	f043 0301 	orr.w	r3, r3, #1
 8004626:	6753      	str	r3, [r2, #116]	; 0x74

      /* Get Start Tick*/
      tickstart = HAL_GetTick();
 8004628:	f7ff fa8e 	bl	8003b48 <HAL_GetTick>
 800462c:	6278      	str	r0, [r7, #36]	; 0x24

      /* Wait till LSI is ready */
      while(__HAL_RCC_GET_FLAG(RCC_FLAG_LSIRDY) == 0U)
 800462e:	e008      	b.n	8004642 <HAL_RCC_OscConfig+0x3ca>
      {
        if((HAL_GetTick() - tickstart ) > LSI_TIMEOUT_VALUE)
 8004630:	f7ff fa8a 	bl	8003b48 <HAL_GetTick>
 8004634:	4602      	mov	r2, r0
 8004636:	6a7b      	ldr	r3, [r7, #36]	; 0x24
 8004638:	1ad3      	subs	r3, r2, r3
 800463a:	2b02      	cmp	r3, #2
 800463c:	d901      	bls.n	8004642 <HAL_RCC_OscConfig+0x3ca>
        {
          return HAL_TIMEOUT;
 800463e:	2303      	movs	r3, #3
 8004640:	e218      	b.n	8004a74 <HAL_RCC_OscConfig+0x7fc>
      while(__HAL_RCC_GET_FLAG(RCC_FLAG_LSIRDY) == 0U)
 8004642:	4b44      	ldr	r3, [pc, #272]	; (8004754 <HAL_RCC_OscConfig+0x4dc>)
 8004644:	6f5b      	ldr	r3, [r3, #116]	; 0x74
 8004646:	f003 0302 	and.w	r3, r3, #2
 800464a:	2b00      	cmp	r3, #0
 800464c:	d0f0      	beq.n	8004630 <HAL_RCC_OscConfig+0x3b8>
 800464e:	e018      	b.n	8004682 <HAL_RCC_OscConfig+0x40a>
      }
    }
    else
    {
      /* Disable the Internal Low Speed oscillator (LSI). */
      __HAL_RCC_LSI_DISABLE();
 8004650:	4b40      	ldr	r3, [pc, #256]	; (8004754 <HAL_RCC_OscConfig+0x4dc>)
 8004652:	6f5b      	ldr	r3, [r3, #116]	; 0x74
 8004654:	4a3f      	ldr	r2, [pc, #252]	; (8004754 <HAL_RCC_OscConfig+0x4dc>)
 8004656:	f023 0301 	bic.w	r3, r3, #1
 800465a:	6753      	str	r3, [r2, #116]	; 0x74

      /* Get Start Tick*/
      tickstart = HAL_GetTick();
 800465c:	f7ff fa74 	bl	8003b48 <HAL_GetTick>
 8004660:	6278      	str	r0, [r7, #36]	; 0x24

      /* Wait till LSI is ready */
      while(__HAL_RCC_GET_FLAG(RCC_FLAG_LSIRDY) != 0U)
 8004662:	e008      	b.n	8004676 <HAL_RCC_OscConfig+0x3fe>
      {
        if((HAL_GetTick() - tickstart ) > LSI_TIMEOUT_VALUE)
 8004664:	f7ff fa70 	bl	8003b48 <HAL_GetTick>
 8004668:	4602      	mov	r2, r0
 800466a:	6a7b      	ldr	r3, [r7, #36]	; 0x24
 800466c:	1ad3      	subs	r3, r2, r3
 800466e:	2b02      	cmp	r3, #2
 8004670:	d901      	bls.n	8004676 <HAL_RCC_OscConfig+0x3fe>
        {
          return HAL_TIMEOUT;
 8004672:	2303      	movs	r3, #3
 8004674:	e1fe      	b.n	8004a74 <HAL_RCC_OscConfig+0x7fc>
      while(__HAL_RCC_GET_FLAG(RCC_FLAG_LSIRDY) != 0U)
 8004676:	4b37      	ldr	r3, [pc, #220]	; (8004754 <HAL_RCC_OscConfig+0x4dc>)
 8004678:	6f5b      	ldr	r3, [r3, #116]	; 0x74
 800467a:	f003 0302 	and.w	r3, r3, #2
 800467e:	2b00      	cmp	r3, #0
 8004680:	d1f0      	bne.n	8004664 <HAL_RCC_OscConfig+0x3ec>
      }
    }
  }

  /*------------------------------ HSI48 Configuration -------------------------*/
  if(((RCC_OscInitStruct->OscillatorType) & RCC_OSCILLATORTYPE_HSI48) == RCC_OSCILLATORTYPE_HSI48)
 8004682:	687b      	ldr	r3, [r7, #4]
 8004684:	681b      	ldr	r3, [r3, #0]
 8004686:	f003 0320 	and.w	r3, r3, #32
 800468a:	2b00      	cmp	r3, #0
 800468c:	d036      	beq.n	80046fc <HAL_RCC_OscConfig+0x484>
  {
    /* Check the parameters */
    assert_param(IS_RCC_HSI48(RCC_OscInitStruct->HSI48State));

    /* Check the HSI48 State */
    if((RCC_OscInitStruct->HSI48State)!= RCC_HSI48_OFF)
 800468e:	687b      	ldr	r3, [r7, #4]
 8004690:	699b      	ldr	r3, [r3, #24]
 8004692:	2b00      	cmp	r3, #0
 8004694:	d019      	beq.n	80046ca <HAL_RCC_OscConfig+0x452>
    {
      /* Enable the Internal Low Speed oscillator (HSI48). */
      __HAL_RCC_HSI48_ENABLE();
 8004696:	4b2f      	ldr	r3, [pc, #188]	; (8004754 <HAL_RCC_OscConfig+0x4dc>)
 8004698:	681b      	ldr	r3, [r3, #0]
 800469a:	4a2e      	ldr	r2, [pc, #184]	; (8004754 <HAL_RCC_OscConfig+0x4dc>)
 800469c:	f443 5380 	orr.w	r3, r3, #4096	; 0x1000
 80046a0:	6013      	str	r3, [r2, #0]

      /* Get time-out */
      tickstart = HAL_GetTick();
 80046a2:	f7ff fa51 	bl	8003b48 <HAL_GetTick>
 80046a6:	6278      	str	r0, [r7, #36]	; 0x24

      /* Wait till HSI48 is ready */
      while(__HAL_RCC_GET_FLAG(RCC_FLAG_HSI48RDY) == 0U)
 80046a8:	e008      	b.n	80046bc <HAL_RCC_OscConfig+0x444>
      {
        if((HAL_GetTick() - tickstart ) > HSI48_TIMEOUT_VALUE)
 80046aa:	f7ff fa4d 	bl	8003b48 <HAL_GetTick>
 80046ae:	4602      	mov	r2, r0
 80046b0:	6a7b      	ldr	r3, [r7, #36]	; 0x24
 80046b2:	1ad3      	subs	r3, r2, r3
 80046b4:	2b02      	cmp	r3, #2
 80046b6:	d901      	bls.n	80046bc <HAL_RCC_OscConfig+0x444>
        {
          return HAL_TIMEOUT;
 80046b8:	2303      	movs	r3, #3
 80046ba:	e1db      	b.n	8004a74 <HAL_RCC_OscConfig+0x7fc>
      while(__HAL_RCC_GET_FLAG(RCC_FLAG_HSI48RDY) == 0U)
 80046bc:	4b25      	ldr	r3, [pc, #148]	; (8004754 <HAL_RCC_OscConfig+0x4dc>)
 80046be:	681b      	ldr	r3, [r3, #0]
 80046c0:	f403 5300 	and.w	r3, r3, #8192	; 0x2000
 80046c4:	2b00      	cmp	r3, #0
 80046c6:	d0f0      	beq.n	80046aa <HAL_RCC_OscConfig+0x432>
 80046c8:	e018      	b.n	80046fc <HAL_RCC_OscConfig+0x484>
      }
    }
    else
    {
      /* Disable the Internal Low Speed oscillator (HSI48). */
      __HAL_RCC_HSI48_DISABLE();
 80046ca:	4b22      	ldr	r3, [pc, #136]	; (8004754 <HAL_RCC_OscConfig+0x4dc>)
 80046cc:	681b      	ldr	r3, [r3, #0]
 80046ce:	4a21      	ldr	r2, [pc, #132]	; (8004754 <HAL_RCC_OscConfig+0x4dc>)
 80046d0:	f423 5380 	bic.w	r3, r3, #4096	; 0x1000
 80046d4:	6013      	str	r3, [r2, #0]

      /* Get time-out */
      tickstart = HAL_GetTick();
 80046d6:	f7ff fa37 	bl	8003b48 <HAL_GetTick>
 80046da:	6278      	str	r0, [r7, #36]	; 0x24

      /* Wait till HSI48 is ready */
      while(__HAL_RCC_GET_FLAG(RCC_FLAG_HSI48RDY) != 0U)
 80046dc:	e008      	b.n	80046f0 <HAL_RCC_OscConfig+0x478>
      {
        if((HAL_GetTick() - tickstart ) > HSI48_TIMEOUT_VALUE)
 80046de:	f7ff fa33 	bl	8003b48 <HAL_GetTick>
 80046e2:	4602      	mov	r2, r0
 80046e4:	6a7b      	ldr	r3, [r7, #36]	; 0x24
 80046e6:	1ad3      	subs	r3, r2, r3
 80046e8:	2b02      	cmp	r3, #2
 80046ea:	d901      	bls.n	80046f0 <HAL_RCC_OscConfig+0x478>
        {
          return HAL_TIMEOUT;
 80046ec:	2303      	movs	r3, #3
 80046ee:	e1c1      	b.n	8004a74 <HAL_RCC_OscConfig+0x7fc>
      while(__HAL_RCC_GET_FLAG(RCC_FLAG_HSI48RDY) != 0U)
 80046f0:	4b18      	ldr	r3, [pc, #96]	; (8004754 <HAL_RCC_OscConfig+0x4dc>)
 80046f2:	681b      	ldr	r3, [r3, #0]
 80046f4:	f403 5300 	and.w	r3, r3, #8192	; 0x2000
 80046f8:	2b00      	cmp	r3, #0
 80046fa:	d1f0      	bne.n	80046de <HAL_RCC_OscConfig+0x466>
        }
      }
    }
  }
  /*------------------------------ LSE Configuration -------------------------*/
  if(((RCC_OscInitStruct->OscillatorType) & RCC_OSCILLATORTYPE_LSE) == RCC_OSCILLATORTYPE_LSE)
 80046fc:	687b      	ldr	r3, [r7, #4]
 80046fe:	681b      	ldr	r3, [r3, #0]
 8004700:	f003 0304 	and.w	r3, r3, #4
 8004704:	2b00      	cmp	r3, #0
 8004706:	f000 80af 	beq.w	8004868 <HAL_RCC_OscConfig+0x5f0>
  {
    /* Check the parameters */
    assert_param(IS_RCC_LSE(RCC_OscInitStruct->LSEState));

    /* Enable write access to Backup domain */
    PWR->CR1 |= PWR_CR1_DBP;
 800470a:	4b13      	ldr	r3, [pc, #76]	; (8004758 <HAL_RCC_OscConfig+0x4e0>)
 800470c:	681b      	ldr	r3, [r3, #0]
 800470e:	4a12      	ldr	r2, [pc, #72]	; (8004758 <HAL_RCC_OscConfig+0x4e0>)
 8004710:	f443 7380 	orr.w	r3, r3, #256	; 0x100
 8004714:	6013      	str	r3, [r2, #0]

    /* Wait for Backup domain Write protection disable */
    tickstart = HAL_GetTick();
 8004716:	f7ff fa17 	bl	8003b48 <HAL_GetTick>
 800471a:	6278      	str	r0, [r7, #36]	; 0x24

    while((PWR->CR1 & PWR_CR1_DBP) == 0U)
 800471c:	e008      	b.n	8004730 <HAL_RCC_OscConfig+0x4b8>
    {
      if((HAL_GetTick() - tickstart ) > RCC_DBP_TIMEOUT_VALUE)
 800471e:	f7ff fa13 	bl	8003b48 <HAL_GetTick>
 8004722:	4602      	mov	r2, r0
 8004724:	6a7b      	ldr	r3, [r7, #36]	; 0x24
 8004726:	1ad3      	subs	r3, r2, r3
 8004728:	2b64      	cmp	r3, #100	; 0x64
 800472a:	d901      	bls.n	8004730 <HAL_RCC_OscConfig+0x4b8>
      {
        return HAL_TIMEOUT;
 800472c:	2303      	movs	r3, #3
 800472e:	e1a1      	b.n	8004a74 <HAL_RCC_OscConfig+0x7fc>
    while((PWR->CR1 & PWR_CR1_DBP) == 0U)
 8004730:	4b09      	ldr	r3, [pc, #36]	; (8004758 <HAL_RCC_OscConfig+0x4e0>)
 8004732:	681b      	ldr	r3, [r3, #0]
 8004734:	f403 7380 	and.w	r3, r3, #256	; 0x100
 8004738:	2b00      	cmp	r3, #0
 800473a:	d0f0      	beq.n	800471e <HAL_RCC_OscConfig+0x4a6>
      }
    }

    /* Set the new LSE configuration -----------------------------------------*/
    __HAL_RCC_LSE_CONFIG(RCC_OscInitStruct->LSEState);
 800473c:	687b      	ldr	r3, [r7, #4]
 800473e:	689b      	ldr	r3, [r3, #8]
 8004740:	2b01      	cmp	r3, #1
 8004742:	d10b      	bne.n	800475c <HAL_RCC_OscConfig+0x4e4>
 8004744:	4b03      	ldr	r3, [pc, #12]	; (8004754 <HAL_RCC_OscConfig+0x4dc>)
 8004746:	6f1b      	ldr	r3, [r3, #112]	; 0x70
 8004748:	4a02      	ldr	r2, [pc, #8]	; (8004754 <HAL_RCC_OscConfig+0x4dc>)
 800474a:	f043 0301 	orr.w	r3, r3, #1
 800474e:	6713      	str	r3, [r2, #112]	; 0x70
 8004750:	e05b      	b.n	800480a <HAL_RCC_OscConfig+0x592>
 8004752:	bf00      	nop
 8004754:	58024400 	.word	0x58024400
 8004758:	58024800 	.word	0x58024800
 800475c:	687b      	ldr	r3, [r7, #4]
 800475e:	689b      	ldr	r3, [r3, #8]
 8004760:	2b00      	cmp	r3, #0
 8004762:	d112      	bne.n	800478a <HAL_RCC_OscConfig+0x512>
 8004764:	4b9d      	ldr	r3, [pc, #628]	; (80049dc <HAL_RCC_OscConfig+0x764>)
 8004766:	6f1b      	ldr	r3, [r3, #112]	; 0x70
 8004768:	4a9c      	ldr	r2, [pc, #624]	; (80049dc <HAL_RCC_OscConfig+0x764>)
 800476a:	f023 0301 	bic.w	r3, r3, #1
 800476e:	6713      	str	r3, [r2, #112]	; 0x70
 8004770:	4b9a      	ldr	r3, [pc, #616]	; (80049dc <HAL_RCC_OscConfig+0x764>)
 8004772:	6f1b      	ldr	r3, [r3, #112]	; 0x70
 8004774:	4a99      	ldr	r2, [pc, #612]	; (80049dc <HAL_RCC_OscConfig+0x764>)
 8004776:	f023 0380 	bic.w	r3, r3, #128	; 0x80
 800477a:	6713      	str	r3, [r2, #112]	; 0x70
 800477c:	4b97      	ldr	r3, [pc, #604]	; (80049dc <HAL_RCC_OscConfig+0x764>)
 800477e:	6f1b      	ldr	r3, [r3, #112]	; 0x70
 8004780:	4a96      	ldr	r2, [pc, #600]	; (80049dc <HAL_RCC_OscConfig+0x764>)
 8004782:	f023 0304 	bic.w	r3, r3, #4
 8004786:	6713      	str	r3, [r2, #112]	; 0x70
 8004788:	e03f      	b.n	800480a <HAL_RCC_OscConfig+0x592>
 800478a:	687b      	ldr	r3, [r7, #4]
 800478c:	689b      	ldr	r3, [r3, #8]
 800478e:	2b05      	cmp	r3, #5
 8004790:	d112      	bne.n	80047b8 <HAL_RCC_OscConfig+0x540>
 8004792:	4b92      	ldr	r3, [pc, #584]	; (80049dc <HAL_RCC_OscConfig+0x764>)
 8004794:	6f1b      	ldr	r3, [r3, #112]	; 0x70
 8004796:	4a91      	ldr	r2, [pc, #580]	; (80049dc <HAL_RCC_OscConfig+0x764>)
 8004798:	f043 0304 	orr.w	r3, r3, #4
 800479c:	6713      	str	r3, [r2, #112]	; 0x70
 800479e:	4b8f      	ldr	r3, [pc, #572]	; (80049dc <HAL_RCC_OscConfig+0x764>)
 80047a0:	6f1b      	ldr	r3, [r3, #112]	; 0x70
 80047a2:	4a8e      	ldr	r2, [pc, #568]	; (80049dc <HAL_RCC_OscConfig+0x764>)
 80047a4:	f023 0380 	bic.w	r3, r3, #128	; 0x80
 80047a8:	6713      	str	r3, [r2, #112]	; 0x70
 80047aa:	4b8c      	ldr	r3, [pc, #560]	; (80049dc <HAL_RCC_OscConfig+0x764>)
 80047ac:	6f1b      	ldr	r3, [r3, #112]	; 0x70
 80047ae:	4a8b      	ldr	r2, [pc, #556]	; (80049dc <HAL_RCC_OscConfig+0x764>)
 80047b0:	f043 0301 	orr.w	r3, r3, #1
 80047b4:	6713      	str	r3, [r2, #112]	; 0x70
 80047b6:	e028      	b.n	800480a <HAL_RCC_OscConfig+0x592>
 80047b8:	687b      	ldr	r3, [r7, #4]
 80047ba:	689b      	ldr	r3, [r3, #8]
 80047bc:	2b85      	cmp	r3, #133	; 0x85
 80047be:	d112      	bne.n	80047e6 <HAL_RCC_OscConfig+0x56e>
 80047c0:	4b86      	ldr	r3, [pc, #536]	; (80049dc <HAL_RCC_OscConfig+0x764>)
 80047c2:	6f1b      	ldr	r3, [r3, #112]	; 0x70
 80047c4:	4a85      	ldr	r2, [pc, #532]	; (80049dc <HAL_RCC_OscConfig+0x764>)
 80047c6:	f043 0304 	orr.w	r3, r3, #4
 80047ca:	6713      	str	r3, [r2, #112]	; 0x70
 80047cc:	4b83      	ldr	r3, [pc, #524]	; (80049dc <HAL_RCC_OscConfig+0x764>)
 80047ce:	6f1b      	ldr	r3, [r3, #112]	; 0x70
 80047d0:	4a82      	ldr	r2, [pc, #520]	; (80049dc <HAL_RCC_OscConfig+0x764>)
 80047d2:	f043 0380 	orr.w	r3, r3, #128	; 0x80
 80047d6:	6713      	str	r3, [r2, #112]	; 0x70
 80047d8:	4b80      	ldr	r3, [pc, #512]	; (80049dc <HAL_RCC_OscConfig+0x764>)
 80047da:	6f1b      	ldr	r3, [r3, #112]	; 0x70
 80047dc:	4a7f      	ldr	r2, [pc, #508]	; (80049dc <HAL_RCC_OscConfig+0x764>)
 80047de:	f043 0301 	orr.w	r3, r3, #1
 80047e2:	6713      	str	r3, [r2, #112]	; 0x70
 80047e4:	e011      	b.n	800480a <HAL_RCC_OscConfig+0x592>
 80047e6:	4b7d      	ldr	r3, [pc, #500]	; (80049dc <HAL_RCC_OscConfig+0x764>)
 80047e8:	6f1b      	ldr	r3, [r3, #112]	; 0x70
 80047ea:	4a7c      	ldr	r2, [pc, #496]	; (80049dc <HAL_RCC_OscConfig+0x764>)
 80047ec:	f023 0301 	bic.w	r3, r3, #1
 80047f0:	6713      	str	r3, [r2, #112]	; 0x70
 80047f2:	4b7a      	ldr	r3, [pc, #488]	; (80049dc <HAL_RCC_OscConfig+0x764>)
 80047f4:	6f1b      	ldr	r3, [r3, #112]	; 0x70
 80047f6:	4a79      	ldr	r2, [pc, #484]	; (80049dc <HAL_RCC_OscConfig+0x764>)
 80047f8:	f023 0304 	bic.w	r3, r3, #4
 80047fc:	6713      	str	r3, [r2, #112]	; 0x70
 80047fe:	4b77      	ldr	r3, [pc, #476]	; (80049dc <HAL_RCC_OscConfig+0x764>)
 8004800:	6f1b      	ldr	r3, [r3, #112]	; 0x70
 8004802:	4a76      	ldr	r2, [pc, #472]	; (80049dc <HAL_RCC_OscConfig+0x764>)
 8004804:	f023 0380 	bic.w	r3, r3, #128	; 0x80
 8004808:	6713      	str	r3, [r2, #112]	; 0x70
    /* Check the LSE State */
    if((RCC_OscInitStruct->LSEState) != RCC_LSE_OFF)
 800480a:	687b      	ldr	r3, [r7, #4]
 800480c:	689b      	ldr	r3, [r3, #8]
 800480e:	2b00      	cmp	r3, #0
 8004810:	d015      	beq.n	800483e <HAL_RCC_OscConfig+0x5c6>
    {
      /* Get Start Tick*/
      tickstart = HAL_GetTick();
 8004812:	f7ff f999 	bl	8003b48 <HAL_GetTick>
 8004816:	6278      	str	r0, [r7, #36]	; 0x24

      /* Wait till LSE is ready */
      while(__HAL_RCC_GET_FLAG(RCC_FLAG_LSERDY) == 0U)
 8004818:	e00a      	b.n	8004830 <HAL_RCC_OscConfig+0x5b8>
      {
        if((HAL_GetTick() - tickstart ) > RCC_LSE_TIMEOUT_VALUE)
 800481a:	f7ff f995 	bl	8003b48 <HAL_GetTick>
 800481e:	4602      	mov	r2, r0
 8004820:	6a7b      	ldr	r3, [r7, #36]	; 0x24
 8004822:	1ad3      	subs	r3, r2, r3
 8004824:	f241 3288 	movw	r2, #5000	; 0x1388
 8004828:	4293      	cmp	r3, r2
 800482a:	d901      	bls.n	8004830 <HAL_RCC_OscConfig+0x5b8>
        {
          return HAL_TIMEOUT;
 800482c:	2303      	movs	r3, #3
 800482e:	e121      	b.n	8004a74 <HAL_RCC_OscConfig+0x7fc>
      while(__HAL_RCC_GET_FLAG(RCC_FLAG_LSERDY) == 0U)
 8004830:	4b6a      	ldr	r3, [pc, #424]	; (80049dc <HAL_RCC_OscConfig+0x764>)
 8004832:	6f1b      	ldr	r3, [r3, #112]	; 0x70
 8004834:	f003 0302 	and.w	r3, r3, #2
 8004838:	2b00      	cmp	r3, #0
 800483a:	d0ee      	beq.n	800481a <HAL_RCC_OscConfig+0x5a2>
 800483c:	e014      	b.n	8004868 <HAL_RCC_OscConfig+0x5f0>
      }
    }
    else
    {
      /* Get Start Tick*/
      tickstart = HAL_GetTick();
 800483e:	f7ff f983 	bl	8003b48 <HAL_GetTick>
 8004842:	6278      	str	r0, [r7, #36]	; 0x24

      /* Wait till LSE is disabled */
      while(__HAL_RCC_GET_FLAG(RCC_FLAG_LSERDY) != 0U)
 8004844:	e00a      	b.n	800485c <HAL_RCC_OscConfig+0x5e4>
      {
        if((HAL_GetTick() - tickstart ) > RCC_LSE_TIMEOUT_VALUE)
 8004846:	f7ff f97f 	bl	8003b48 <HAL_GetTick>
 800484a:	4602      	mov	r2, r0
 800484c:	6a7b      	ldr	r3, [r7, #36]	; 0x24
 800484e:	1ad3      	subs	r3, r2, r3
 8004850:	f241 3288 	movw	r2, #5000	; 0x1388
 8004854:	4293      	cmp	r3, r2
 8004856:	d901      	bls.n	800485c <HAL_RCC_OscConfig+0x5e4>
        {
          return HAL_TIMEOUT;
 8004858:	2303      	movs	r3, #3
 800485a:	e10b      	b.n	8004a74 <HAL_RCC_OscConfig+0x7fc>
      while(__HAL_RCC_GET_FLAG(RCC_FLAG_LSERDY) != 0U)
 800485c:	4b5f      	ldr	r3, [pc, #380]	; (80049dc <HAL_RCC_OscConfig+0x764>)
 800485e:	6f1b      	ldr	r3, [r3, #112]	; 0x70
 8004860:	f003 0302 	and.w	r3, r3, #2
 8004864:	2b00      	cmp	r3, #0
 8004866:	d1ee      	bne.n	8004846 <HAL_RCC_OscConfig+0x5ce>
    }
  }
  /*-------------------------------- PLL Configuration -----------------------*/
  /* Check the parameters */
  assert_param(IS_RCC_PLL(RCC_OscInitStruct->PLL.PLLState));
  if ((RCC_OscInitStruct->PLL.PLLState) != RCC_PLL_NONE)
 8004868:	687b      	ldr	r3, [r7, #4]
 800486a:	6a5b      	ldr	r3, [r3, #36]	; 0x24
 800486c:	2b00      	cmp	r3, #0
 800486e:	f000 8100 	beq.w	8004a72 <HAL_RCC_OscConfig+0x7fa>
  {
    /* Check if the PLL is used as system clock or not */
    if(__HAL_RCC_GET_SYSCLK_SOURCE() != RCC_CFGR_SWS_PLL1)
 8004872:	4b5a      	ldr	r3, [pc, #360]	; (80049dc <HAL_RCC_OscConfig+0x764>)
 8004874:	691b      	ldr	r3, [r3, #16]
 8004876:	f003 0338 	and.w	r3, r3, #56	; 0x38
 800487a:	2b18      	cmp	r3, #24
 800487c:	f000 80bb 	beq.w	80049f6 <HAL_RCC_OscConfig+0x77e>
    {
      if((RCC_OscInitStruct->PLL.PLLState) == RCC_PLL_ON)
 8004880:	687b      	ldr	r3, [r7, #4]
 8004882:	6a5b      	ldr	r3, [r3, #36]	; 0x24
 8004884:	2b02      	cmp	r3, #2
 8004886:	f040 8095 	bne.w	80049b4 <HAL_RCC_OscConfig+0x73c>
        assert_param(IS_RCC_PLLQ_VALUE(RCC_OscInitStruct->PLL.PLLQ));
        assert_param(IS_RCC_PLLR_VALUE(RCC_OscInitStruct->PLL.PLLR));
        assert_param(IS_RCC_PLLFRACN_VALUE(RCC_OscInitStruct->PLL.PLLFRACN));

        /* Disable the main PLL. */
        __HAL_RCC_PLL_DISABLE();
 800488a:	4b54      	ldr	r3, [pc, #336]	; (80049dc <HAL_RCC_OscConfig+0x764>)
 800488c:	681b      	ldr	r3, [r3, #0]
 800488e:	4a53      	ldr	r2, [pc, #332]	; (80049dc <HAL_RCC_OscConfig+0x764>)
 8004890:	f023 7380 	bic.w	r3, r3, #16777216	; 0x1000000
 8004894:	6013      	str	r3, [r2, #0]

        /* Get Start Tick*/
        tickstart = HAL_GetTick();
 8004896:	f7ff f957 	bl	8003b48 <HAL_GetTick>
 800489a:	6278      	str	r0, [r7, #36]	; 0x24

        /* Wait till PLL is disabled */
        while(__HAL_RCC_GET_FLAG(RCC_FLAG_PLLRDY) != 0U)
 800489c:	e008      	b.n	80048b0 <HAL_RCC_OscConfig+0x638>
        {
          if((HAL_GetTick() - tickstart ) > PLL_TIMEOUT_VALUE)
 800489e:	f7ff f953 	bl	8003b48 <HAL_GetTick>
 80048a2:	4602      	mov	r2, r0
 80048a4:	6a7b      	ldr	r3, [r7, #36]	; 0x24
 80048a6:	1ad3      	subs	r3, r2, r3
 80048a8:	2b02      	cmp	r3, #2
 80048aa:	d901      	bls.n	80048b0 <HAL_RCC_OscConfig+0x638>
          {
            return HAL_TIMEOUT;
 80048ac:	2303      	movs	r3, #3
 80048ae:	e0e1      	b.n	8004a74 <HAL_RCC_OscConfig+0x7fc>
        while(__HAL_RCC_GET_FLAG(RCC_FLAG_PLLRDY) != 0U)
 80048b0:	4b4a      	ldr	r3, [pc, #296]	; (80049dc <HAL_RCC_OscConfig+0x764>)
 80048b2:	681b      	ldr	r3, [r3, #0]
 80048b4:	f003 7300 	and.w	r3, r3, #33554432	; 0x2000000
 80048b8:	2b00      	cmp	r3, #0
 80048ba:	d1f0      	bne.n	800489e <HAL_RCC_OscConfig+0x626>
          }
        }

        /* Configure the main PLL clock source, multiplication and division factors. */
        __HAL_RCC_PLL_CONFIG(RCC_OscInitStruct->PLL.PLLSource,
 80048bc:	4b47      	ldr	r3, [pc, #284]	; (80049dc <HAL_RCC_OscConfig+0x764>)
 80048be:	6a9a      	ldr	r2, [r3, #40]	; 0x28
 80048c0:	4b47      	ldr	r3, [pc, #284]	; (80049e0 <HAL_RCC_OscConfig+0x768>)
 80048c2:	4013      	ands	r3, r2
 80048c4:	687a      	ldr	r2, [r7, #4]
 80048c6:	6a91      	ldr	r1, [r2, #40]	; 0x28
 80048c8:	687a      	ldr	r2, [r7, #4]
 80048ca:	6ad2      	ldr	r2, [r2, #44]	; 0x2c
 80048cc:	0112      	lsls	r2, r2, #4
 80048ce:	430a      	orrs	r2, r1
 80048d0:	4942      	ldr	r1, [pc, #264]	; (80049dc <HAL_RCC_OscConfig+0x764>)
 80048d2:	4313      	orrs	r3, r2
 80048d4:	628b      	str	r3, [r1, #40]	; 0x28
 80048d6:	687b      	ldr	r3, [r7, #4]
 80048d8:	6b1b      	ldr	r3, [r3, #48]	; 0x30
 80048da:	3b01      	subs	r3, #1
 80048dc:	f3c3 0208 	ubfx	r2, r3, #0, #9
 80048e0:	687b      	ldr	r3, [r7, #4]
 80048e2:	6b5b      	ldr	r3, [r3, #52]	; 0x34
 80048e4:	3b01      	subs	r3, #1
 80048e6:	025b      	lsls	r3, r3, #9
 80048e8:	b29b      	uxth	r3, r3
 80048ea:	431a      	orrs	r2, r3
 80048ec:	687b      	ldr	r3, [r7, #4]
 80048ee:	6b9b      	ldr	r3, [r3, #56]	; 0x38
 80048f0:	3b01      	subs	r3, #1
 80048f2:	041b      	lsls	r3, r3, #16
 80048f4:	f403 03fe 	and.w	r3, r3, #8323072	; 0x7f0000
 80048f8:	431a      	orrs	r2, r3
 80048fa:	687b      	ldr	r3, [r7, #4]
 80048fc:	6bdb      	ldr	r3, [r3, #60]	; 0x3c
 80048fe:	3b01      	subs	r3, #1
 8004900:	061b      	lsls	r3, r3, #24
 8004902:	f003 43fe 	and.w	r3, r3, #2130706432	; 0x7f000000
 8004906:	4935      	ldr	r1, [pc, #212]	; (80049dc <HAL_RCC_OscConfig+0x764>)
 8004908:	4313      	orrs	r3, r2
 800490a:	630b      	str	r3, [r1, #48]	; 0x30
                             RCC_OscInitStruct->PLL.PLLP,
                             RCC_OscInitStruct->PLL.PLLQ,
                             RCC_OscInitStruct->PLL.PLLR);

         /* Disable PLLFRACN . */
         __HAL_RCC_PLLFRACN_DISABLE();
 800490c:	4b33      	ldr	r3, [pc, #204]	; (80049dc <HAL_RCC_OscConfig+0x764>)
 800490e:	6adb      	ldr	r3, [r3, #44]	; 0x2c
 8004910:	4a32      	ldr	r2, [pc, #200]	; (80049dc <HAL_RCC_OscConfig+0x764>)
 8004912:	f023 0301 	bic.w	r3, r3, #1
 8004916:	62d3      	str	r3, [r2, #44]	; 0x2c

         /* Configure PLL PLL1FRACN */
         __HAL_RCC_PLLFRACN_CONFIG(RCC_OscInitStruct->PLL.PLLFRACN);
 8004918:	4b30      	ldr	r3, [pc, #192]	; (80049dc <HAL_RCC_OscConfig+0x764>)
 800491a:	6b5a      	ldr	r2, [r3, #52]	; 0x34
 800491c:	4b31      	ldr	r3, [pc, #196]	; (80049e4 <HAL_RCC_OscConfig+0x76c>)
 800491e:	4013      	ands	r3, r2
 8004920:	687a      	ldr	r2, [r7, #4]
 8004922:	6c92      	ldr	r2, [r2, #72]	; 0x48
 8004924:	00d2      	lsls	r2, r2, #3
 8004926:	492d      	ldr	r1, [pc, #180]	; (80049dc <HAL_RCC_OscConfig+0x764>)
 8004928:	4313      	orrs	r3, r2
 800492a:	634b      	str	r3, [r1, #52]	; 0x34

        /* Select PLL1 input reference frequency range: VCI */
        __HAL_RCC_PLL_VCIRANGE(RCC_OscInitStruct->PLL.PLLRGE) ;
 800492c:	4b2b      	ldr	r3, [pc, #172]	; (80049dc <HAL_RCC_OscConfig+0x764>)
 800492e:	6adb      	ldr	r3, [r3, #44]	; 0x2c
 8004930:	f023 020c 	bic.w	r2, r3, #12
 8004934:	687b      	ldr	r3, [r7, #4]
 8004936:	6c1b      	ldr	r3, [r3, #64]	; 0x40
 8004938:	4928      	ldr	r1, [pc, #160]	; (80049dc <HAL_RCC_OscConfig+0x764>)
 800493a:	4313      	orrs	r3, r2
 800493c:	62cb      	str	r3, [r1, #44]	; 0x2c

        /* Select PLL1 output frequency range : VCO */
        __HAL_RCC_PLL_VCORANGE(RCC_OscInitStruct->PLL.PLLVCOSEL) ;
 800493e:	4b27      	ldr	r3, [pc, #156]	; (80049dc <HAL_RCC_OscConfig+0x764>)
 8004940:	6adb      	ldr	r3, [r3, #44]	; 0x2c
 8004942:	f023 0202 	bic.w	r2, r3, #2
 8004946:	687b      	ldr	r3, [r7, #4]
 8004948:	6c5b      	ldr	r3, [r3, #68]	; 0x44
 800494a:	4924      	ldr	r1, [pc, #144]	; (80049dc <HAL_RCC_OscConfig+0x764>)
 800494c:	4313      	orrs	r3, r2
 800494e:	62cb      	str	r3, [r1, #44]	; 0x2c

        /* Enable PLL System Clock output. */
         __HAL_RCC_PLLCLKOUT_ENABLE(RCC_PLL1_DIVP);
 8004950:	4b22      	ldr	r3, [pc, #136]	; (80049dc <HAL_RCC_OscConfig+0x764>)
 8004952:	6adb      	ldr	r3, [r3, #44]	; 0x2c
 8004954:	4a21      	ldr	r2, [pc, #132]	; (80049dc <HAL_RCC_OscConfig+0x764>)
 8004956:	f443 3380 	orr.w	r3, r3, #65536	; 0x10000
 800495a:	62d3      	str	r3, [r2, #44]	; 0x2c

        /* Enable PLL1Q Clock output. */
         __HAL_RCC_PLLCLKOUT_ENABLE(RCC_PLL1_DIVQ);
 800495c:	4b1f      	ldr	r3, [pc, #124]	; (80049dc <HAL_RCC_OscConfig+0x764>)
 800495e:	6adb      	ldr	r3, [r3, #44]	; 0x2c
 8004960:	4a1e      	ldr	r2, [pc, #120]	; (80049dc <HAL_RCC_OscConfig+0x764>)
 8004962:	f443 3300 	orr.w	r3, r3, #131072	; 0x20000
 8004966:	62d3      	str	r3, [r2, #44]	; 0x2c

        /* Enable PLL1R  Clock output. */
         __HAL_RCC_PLLCLKOUT_ENABLE(RCC_PLL1_DIVR);
 8004968:	4b1c      	ldr	r3, [pc, #112]	; (80049dc <HAL_RCC_OscConfig+0x764>)
 800496a:	6adb      	ldr	r3, [r3, #44]	; 0x2c
 800496c:	4a1b      	ldr	r2, [pc, #108]	; (80049dc <HAL_RCC_OscConfig+0x764>)
 800496e:	f443 2380 	orr.w	r3, r3, #262144	; 0x40000
 8004972:	62d3      	str	r3, [r2, #44]	; 0x2c

        /* Enable PLL1FRACN . */
         __HAL_RCC_PLLFRACN_ENABLE();
 8004974:	4b19      	ldr	r3, [pc, #100]	; (80049dc <HAL_RCC_OscConfig+0x764>)
 8004976:	6adb      	ldr	r3, [r3, #44]	; 0x2c
 8004978:	4a18      	ldr	r2, [pc, #96]	; (80049dc <HAL_RCC_OscConfig+0x764>)
 800497a:	f043 0301 	orr.w	r3, r3, #1
 800497e:	62d3      	str	r3, [r2, #44]	; 0x2c

        /* Enable the main PLL. */
        __HAL_RCC_PLL_ENABLE();
 8004980:	4b16      	ldr	r3, [pc, #88]	; (80049dc <HAL_RCC_OscConfig+0x764>)
 8004982:	681b      	ldr	r3, [r3, #0]
 8004984:	4a15      	ldr	r2, [pc, #84]	; (80049dc <HAL_RCC_OscConfig+0x764>)
 8004986:	f043 7380 	orr.w	r3, r3, #16777216	; 0x1000000
 800498a:	6013      	str	r3, [r2, #0]

        /* Get Start Tick*/
        tickstart = HAL_GetTick();
 800498c:	f7ff f8dc 	bl	8003b48 <HAL_GetTick>
 8004990:	6278      	str	r0, [r7, #36]	; 0x24

        /* Wait till PLL is ready */
        while(__HAL_RCC_GET_FLAG(RCC_FLAG_PLLRDY) == 0U)
 8004992:	e008      	b.n	80049a6 <HAL_RCC_OscConfig+0x72e>
        {
          if((HAL_GetTick() - tickstart ) > PLL_TIMEOUT_VALUE)
 8004994:	f7ff f8d8 	bl	8003b48 <HAL_GetTick>
 8004998:	4602      	mov	r2, r0
 800499a:	6a7b      	ldr	r3, [r7, #36]	; 0x24
 800499c:	1ad3      	subs	r3, r2, r3
 800499e:	2b02      	cmp	r3, #2
 80049a0:	d901      	bls.n	80049a6 <HAL_RCC_OscConfig+0x72e>
          {
            return HAL_TIMEOUT;
 80049a2:	2303      	movs	r3, #3
 80049a4:	e066      	b.n	8004a74 <HAL_RCC_OscConfig+0x7fc>
        while(__HAL_RCC_GET_FLAG(RCC_FLAG_PLLRDY) == 0U)
 80049a6:	4b0d      	ldr	r3, [pc, #52]	; (80049dc <HAL_RCC_OscConfig+0x764>)
 80049a8:	681b      	ldr	r3, [r3, #0]
 80049aa:	f003 7300 	and.w	r3, r3, #33554432	; 0x2000000
 80049ae:	2b00      	cmp	r3, #0
 80049b0:	d0f0      	beq.n	8004994 <HAL_RCC_OscConfig+0x71c>
 80049b2:	e05e      	b.n	8004a72 <HAL_RCC_OscConfig+0x7fa>
        }
      }
      else
      {
        /* Disable the main PLL. */
        __HAL_RCC_PLL_DISABLE();
 80049b4:	4b09      	ldr	r3, [pc, #36]	; (80049dc <HAL_RCC_OscConfig+0x764>)
 80049b6:	681b      	ldr	r3, [r3, #0]
 80049b8:	4a08      	ldr	r2, [pc, #32]	; (80049dc <HAL_RCC_OscConfig+0x764>)
 80049ba:	f023 7380 	bic.w	r3, r3, #16777216	; 0x1000000
 80049be:	6013      	str	r3, [r2, #0]

        /* Get Start Tick*/
        tickstart = HAL_GetTick();
 80049c0:	f7ff f8c2 	bl	8003b48 <HAL_GetTick>
 80049c4:	6278      	str	r0, [r7, #36]	; 0x24

        /* Wait till PLL is disabled */
        while(__HAL_RCC_GET_FLAG(RCC_FLAG_PLLRDY) != 0U)
 80049c6:	e00f      	b.n	80049e8 <HAL_RCC_OscConfig+0x770>
        {
          if((HAL_GetTick() - tickstart ) > PLL_TIMEOUT_VALUE)
 80049c8:	f7ff f8be 	bl	8003b48 <HAL_GetTick>
 80049cc:	4602      	mov	r2, r0
 80049ce:	6a7b      	ldr	r3, [r7, #36]	; 0x24
 80049d0:	1ad3      	subs	r3, r2, r3
 80049d2:	2b02      	cmp	r3, #2
 80049d4:	d908      	bls.n	80049e8 <HAL_RCC_OscConfig+0x770>
          {
            return HAL_TIMEOUT;
 80049d6:	2303      	movs	r3, #3
 80049d8:	e04c      	b.n	8004a74 <HAL_RCC_OscConfig+0x7fc>
 80049da:	bf00      	nop
 80049dc:	58024400 	.word	0x58024400
 80049e0:	fffffc0c 	.word	0xfffffc0c
 80049e4:	ffff0007 	.word	0xffff0007
        while(__HAL_RCC_GET_FLAG(RCC_FLAG_PLLRDY) != 0U)
 80049e8:	4b24      	ldr	r3, [pc, #144]	; (8004a7c <HAL_RCC_OscConfig+0x804>)
 80049ea:	681b      	ldr	r3, [r3, #0]
 80049ec:	f003 7300 	and.w	r3, r3, #33554432	; 0x2000000
 80049f0:	2b00      	cmp	r3, #0
 80049f2:	d1e9      	bne.n	80049c8 <HAL_RCC_OscConfig+0x750>
 80049f4:	e03d      	b.n	8004a72 <HAL_RCC_OscConfig+0x7fa>
      }
    }
    else
    {
      /* Do not return HAL_ERROR if request repeats the current configuration */
      temp1_pllckcfg = RCC->PLLCKSELR;
 80049f6:	4b21      	ldr	r3, [pc, #132]	; (8004a7c <HAL_RCC_OscConfig+0x804>)
 80049f8:	6a9b      	ldr	r3, [r3, #40]	; 0x28
 80049fa:	613b      	str	r3, [r7, #16]
      temp2_pllckcfg = RCC->PLL1DIVR;
 80049fc:	4b1f      	ldr	r3, [pc, #124]	; (8004a7c <HAL_RCC_OscConfig+0x804>)
 80049fe:	6b1b      	ldr	r3, [r3, #48]	; 0x30
 8004a00:	60fb      	str	r3, [r7, #12]
      if(((RCC_OscInitStruct->PLL.PLLState) == RCC_PLL_OFF) ||
 8004a02:	687b      	ldr	r3, [r7, #4]
 8004a04:	6a5b      	ldr	r3, [r3, #36]	; 0x24
 8004a06:	2b01      	cmp	r3, #1
 8004a08:	d031      	beq.n	8004a6e <HAL_RCC_OscConfig+0x7f6>
	 (READ_BIT(temp1_pllckcfg, RCC_PLLCKSELR_PLLSRC) != RCC_OscInitStruct->PLL.PLLSource) ||
 8004a0a:	693b      	ldr	r3, [r7, #16]
 8004a0c:	f003 0203 	and.w	r2, r3, #3
 8004a10:	687b      	ldr	r3, [r7, #4]
 8004a12:	6a9b      	ldr	r3, [r3, #40]	; 0x28
      if(((RCC_OscInitStruct->PLL.PLLState) == RCC_PLL_OFF) ||
 8004a14:	429a      	cmp	r2, r3
 8004a16:	d12a      	bne.n	8004a6e <HAL_RCC_OscConfig+0x7f6>
         ((READ_BIT(temp1_pllckcfg, RCC_PLLCKSELR_DIVM1) >> RCC_PLLCKSELR_DIVM1_Pos) != RCC_OscInitStruct->PLL.PLLM) ||
 8004a18:	693b      	ldr	r3, [r7, #16]
 8004a1a:	091b      	lsrs	r3, r3, #4
 8004a1c:	f003 023f 	and.w	r2, r3, #63	; 0x3f
 8004a20:	687b      	ldr	r3, [r7, #4]
 8004a22:	6adb      	ldr	r3, [r3, #44]	; 0x2c
	 (READ_BIT(temp1_pllckcfg, RCC_PLLCKSELR_PLLSRC) != RCC_OscInitStruct->PLL.PLLSource) ||
 8004a24:	429a      	cmp	r2, r3
 8004a26:	d122      	bne.n	8004a6e <HAL_RCC_OscConfig+0x7f6>
         (READ_BIT(temp2_pllckcfg, RCC_PLL1DIVR_N1) != (RCC_OscInitStruct->PLL.PLLN - 1U)) ||
 8004a28:	68fb      	ldr	r3, [r7, #12]
 8004a2a:	f3c3 0208 	ubfx	r2, r3, #0, #9
 8004a2e:	687b      	ldr	r3, [r7, #4]
 8004a30:	6b1b      	ldr	r3, [r3, #48]	; 0x30
 8004a32:	3b01      	subs	r3, #1
         ((READ_BIT(temp1_pllckcfg, RCC_PLLCKSELR_DIVM1) >> RCC_PLLCKSELR_DIVM1_Pos) != RCC_OscInitStruct->PLL.PLLM) ||
 8004a34:	429a      	cmp	r2, r3
 8004a36:	d11a      	bne.n	8004a6e <HAL_RCC_OscConfig+0x7f6>
         ((READ_BIT(temp2_pllckcfg, RCC_PLL1DIVR_P1) >> RCC_PLL1DIVR_P1_Pos) != (RCC_OscInitStruct->PLL.PLLP - 1U)) ||
 8004a38:	68fb      	ldr	r3, [r7, #12]
 8004a3a:	0a5b      	lsrs	r3, r3, #9
 8004a3c:	f003 027f 	and.w	r2, r3, #127	; 0x7f
 8004a40:	687b      	ldr	r3, [r7, #4]
 8004a42:	6b5b      	ldr	r3, [r3, #52]	; 0x34
 8004a44:	3b01      	subs	r3, #1
         (READ_BIT(temp2_pllckcfg, RCC_PLL1DIVR_N1) != (RCC_OscInitStruct->PLL.PLLN - 1U)) ||
 8004a46:	429a      	cmp	r2, r3
 8004a48:	d111      	bne.n	8004a6e <HAL_RCC_OscConfig+0x7f6>
         ((READ_BIT(temp2_pllckcfg, RCC_PLL1DIVR_Q1) >> RCC_PLL1DIVR_Q1_Pos) != (RCC_OscInitStruct->PLL.PLLQ - 1U)) ||
 8004a4a:	68fb      	ldr	r3, [r7, #12]
 8004a4c:	0c1b      	lsrs	r3, r3, #16
 8004a4e:	f003 027f 	and.w	r2, r3, #127	; 0x7f
 8004a52:	687b      	ldr	r3, [r7, #4]
 8004a54:	6b9b      	ldr	r3, [r3, #56]	; 0x38
 8004a56:	3b01      	subs	r3, #1
         ((READ_BIT(temp2_pllckcfg, RCC_PLL1DIVR_P1) >> RCC_PLL1DIVR_P1_Pos) != (RCC_OscInitStruct->PLL.PLLP - 1U)) ||
 8004a58:	429a      	cmp	r2, r3
 8004a5a:	d108      	bne.n	8004a6e <HAL_RCC_OscConfig+0x7f6>
         ((READ_BIT(temp2_pllckcfg, RCC_PLL1DIVR_R1) >> RCC_PLL1DIVR_R1_Pos) != (RCC_OscInitStruct->PLL.PLLR - 1U)))
 8004a5c:	68fb      	ldr	r3, [r7, #12]
 8004a5e:	0e1b      	lsrs	r3, r3, #24
 8004a60:	f003 027f 	and.w	r2, r3, #127	; 0x7f
 8004a64:	687b      	ldr	r3, [r7, #4]
 8004a66:	6bdb      	ldr	r3, [r3, #60]	; 0x3c
 8004a68:	3b01      	subs	r3, #1
         ((READ_BIT(temp2_pllckcfg, RCC_PLL1DIVR_Q1) >> RCC_PLL1DIVR_Q1_Pos) != (RCC_OscInitStruct->PLL.PLLQ - 1U)) ||
 8004a6a:	429a      	cmp	r2, r3
 8004a6c:	d001      	beq.n	8004a72 <HAL_RCC_OscConfig+0x7fa>
      {
        return HAL_ERROR;
 8004a6e:	2301      	movs	r3, #1
 8004a70:	e000      	b.n	8004a74 <HAL_RCC_OscConfig+0x7fc>
      }
    }
  }
  return HAL_OK;
 8004a72:	2300      	movs	r3, #0
}
 8004a74:	4618      	mov	r0, r3
 8004a76:	3730      	adds	r7, #48	; 0x30
 8004a78:	46bd      	mov	sp, r7
 8004a7a:	bd80      	pop	{r7, pc}
 8004a7c:	58024400 	.word	0x58024400

08004a80 <HAL_RCC_ClockConfig>:
  *         D1CPRE[3:0] bits to ensure that  Domain1 core clock not exceed the maximum allowed frequency
  *         (for more details refer to section above "Initialization/de-initialization functions")
  * @retval None
  */
HAL_StatusTypeDef HAL_RCC_ClockConfig(RCC_ClkInitTypeDef  *RCC_ClkInitStruct, uint32_t FLatency)
{
 8004a80:	b580      	push	{r7, lr}
 8004a82:	b086      	sub	sp, #24
 8004a84:	af00      	add	r7, sp, #0
 8004a86:	6078      	str	r0, [r7, #4]
 8004a88:	6039      	str	r1, [r7, #0]
  HAL_StatusTypeDef halstatus;
  uint32_t tickstart;
  uint32_t common_system_clock;

   /* Check Null pointer */
  if(RCC_ClkInitStruct == NULL)
 8004a8a:	687b      	ldr	r3, [r7, #4]
 8004a8c:	2b00      	cmp	r3, #0
 8004a8e:	d101      	bne.n	8004a94 <HAL_RCC_ClockConfig+0x14>
  {
    return HAL_ERROR;
 8004a90:	2301      	movs	r3, #1
 8004a92:	e19c      	b.n	8004dce <HAL_RCC_ClockConfig+0x34e>
  /* To correctly read data from FLASH memory, the number of wait states (LATENCY)
    must be correctly programmed according to the frequency of the CPU clock
    (HCLK) and the supply voltage of the device. */

  /* Increasing the CPU frequency */
  if(FLatency > __HAL_FLASH_GET_LATENCY())
 8004a94:	4b8a      	ldr	r3, [pc, #552]	; (8004cc0 <HAL_RCC_ClockConfig+0x240>)
 8004a96:	681b      	ldr	r3, [r3, #0]
 8004a98:	f003 030f 	and.w	r3, r3, #15
 8004a9c:	683a      	ldr	r2, [r7, #0]
 8004a9e:	429a      	cmp	r2, r3
 8004aa0:	d910      	bls.n	8004ac4 <HAL_RCC_ClockConfig+0x44>
  {
    /* Program the new number of wait states to the LATENCY bits in the FLASH_ACR register */
    __HAL_FLASH_SET_LATENCY(FLatency);
 8004aa2:	4b87      	ldr	r3, [pc, #540]	; (8004cc0 <HAL_RCC_ClockConfig+0x240>)
 8004aa4:	681b      	ldr	r3, [r3, #0]
 8004aa6:	f023 020f 	bic.w	r2, r3, #15
 8004aaa:	4985      	ldr	r1, [pc, #532]	; (8004cc0 <HAL_RCC_ClockConfig+0x240>)
 8004aac:	683b      	ldr	r3, [r7, #0]
 8004aae:	4313      	orrs	r3, r2
 8004ab0:	600b      	str	r3, [r1, #0]

    /* Check that the new number of wait states is taken into account to access the Flash
    memory by reading the FLASH_ACR register */
    if(__HAL_FLASH_GET_LATENCY() != FLatency)
 8004ab2:	4b83      	ldr	r3, [pc, #524]	; (8004cc0 <HAL_RCC_ClockConfig+0x240>)
 8004ab4:	681b      	ldr	r3, [r3, #0]
 8004ab6:	f003 030f 	and.w	r3, r3, #15
 8004aba:	683a      	ldr	r2, [r7, #0]
 8004abc:	429a      	cmp	r2, r3
 8004abe:	d001      	beq.n	8004ac4 <HAL_RCC_ClockConfig+0x44>
    {
      return HAL_ERROR;
 8004ac0:	2301      	movs	r3, #1
 8004ac2:	e184      	b.n	8004dce <HAL_RCC_ClockConfig+0x34e>

  }

  /* Increasing the BUS frequency divider */
  /*-------------------------- D1PCLK1/CDPCLK1 Configuration ---------------------------*/
  if(((RCC_ClkInitStruct->ClockType) & RCC_CLOCKTYPE_D1PCLK1) == RCC_CLOCKTYPE_D1PCLK1)
 8004ac4:	687b      	ldr	r3, [r7, #4]
 8004ac6:	681b      	ldr	r3, [r3, #0]
 8004ac8:	f003 0304 	and.w	r3, r3, #4
 8004acc:	2b00      	cmp	r3, #0
 8004ace:	d010      	beq.n	8004af2 <HAL_RCC_ClockConfig+0x72>
    {
      assert_param(IS_RCC_D1PCLK1(RCC_ClkInitStruct->APB3CLKDivider));
      MODIFY_REG(RCC->D1CFGR, RCC_D1CFGR_D1PPRE, RCC_ClkInitStruct->APB3CLKDivider);
    }
#else
    if((RCC_ClkInitStruct->APB3CLKDivider) > (RCC->CDCFGR1 & RCC_CDCFGR1_CDPPRE))
 8004ad0:	687b      	ldr	r3, [r7, #4]
 8004ad2:	691a      	ldr	r2, [r3, #16]
 8004ad4:	4b7b      	ldr	r3, [pc, #492]	; (8004cc4 <HAL_RCC_ClockConfig+0x244>)
 8004ad6:	699b      	ldr	r3, [r3, #24]
 8004ad8:	f003 0370 	and.w	r3, r3, #112	; 0x70
 8004adc:	429a      	cmp	r2, r3
 8004ade:	d908      	bls.n	8004af2 <HAL_RCC_ClockConfig+0x72>
    {
      assert_param(IS_RCC_CDPCLK1(RCC_ClkInitStruct->APB3CLKDivider));
      MODIFY_REG(RCC->CDCFGR1, RCC_CDCFGR1_CDPPRE, RCC_ClkInitStruct->APB3CLKDivider);
 8004ae0:	4b78      	ldr	r3, [pc, #480]	; (8004cc4 <HAL_RCC_ClockConfig+0x244>)
 8004ae2:	699b      	ldr	r3, [r3, #24]
 8004ae4:	f023 0270 	bic.w	r2, r3, #112	; 0x70
 8004ae8:	687b      	ldr	r3, [r7, #4]
 8004aea:	691b      	ldr	r3, [r3, #16]
 8004aec:	4975      	ldr	r1, [pc, #468]	; (8004cc4 <HAL_RCC_ClockConfig+0x244>)
 8004aee:	4313      	orrs	r3, r2
 8004af0:	618b      	str	r3, [r1, #24]
    }
#endif
  }

  /*-------------------------- PCLK1 Configuration ---------------------------*/
  if(((RCC_ClkInitStruct->ClockType) & RCC_CLOCKTYPE_PCLK1) == RCC_CLOCKTYPE_PCLK1)
 8004af2:	687b      	ldr	r3, [r7, #4]
 8004af4:	681b      	ldr	r3, [r3, #0]
 8004af6:	f003 0308 	and.w	r3, r3, #8
 8004afa:	2b00      	cmp	r3, #0
 8004afc:	d010      	beq.n	8004b20 <HAL_RCC_ClockConfig+0xa0>
    {
      assert_param(IS_RCC_PCLK1(RCC_ClkInitStruct->APB1CLKDivider));
      MODIFY_REG(RCC->D2CFGR, RCC_D2CFGR_D2PPRE1, (RCC_ClkInitStruct->APB1CLKDivider));
    }
#else
    if((RCC_ClkInitStruct->APB1CLKDivider) > (RCC->CDCFGR2 & RCC_CDCFGR2_CDPPRE1))
 8004afe:	687b      	ldr	r3, [r7, #4]
 8004b00:	695a      	ldr	r2, [r3, #20]
 8004b02:	4b70      	ldr	r3, [pc, #448]	; (8004cc4 <HAL_RCC_ClockConfig+0x244>)
 8004b04:	69db      	ldr	r3, [r3, #28]
 8004b06:	f003 0370 	and.w	r3, r3, #112	; 0x70
 8004b0a:	429a      	cmp	r2, r3
 8004b0c:	d908      	bls.n	8004b20 <HAL_RCC_ClockConfig+0xa0>
    {
      assert_param(IS_RCC_PCLK1(RCC_ClkInitStruct->APB1CLKDivider));
      MODIFY_REG(RCC->CDCFGR2, RCC_CDCFGR2_CDPPRE1, (RCC_ClkInitStruct->APB1CLKDivider));
 8004b0e:	4b6d      	ldr	r3, [pc, #436]	; (8004cc4 <HAL_RCC_ClockConfig+0x244>)
 8004b10:	69db      	ldr	r3, [r3, #28]
 8004b12:	f023 0270 	bic.w	r2, r3, #112	; 0x70
 8004b16:	687b      	ldr	r3, [r7, #4]
 8004b18:	695b      	ldr	r3, [r3, #20]
 8004b1a:	496a      	ldr	r1, [pc, #424]	; (8004cc4 <HAL_RCC_ClockConfig+0x244>)
 8004b1c:	4313      	orrs	r3, r2
 8004b1e:	61cb      	str	r3, [r1, #28]
  }
#endif
    }
  /*-------------------------- PCLK2 Configuration ---------------------------*/
  if(((RCC_ClkInitStruct->ClockType) & RCC_CLOCKTYPE_PCLK2) == RCC_CLOCKTYPE_PCLK2)
 8004b20:	687b      	ldr	r3, [r7, #4]
 8004b22:	681b      	ldr	r3, [r3, #0]
 8004b24:	f003 0310 	and.w	r3, r3, #16
 8004b28:	2b00      	cmp	r3, #0
 8004b2a:	d010      	beq.n	8004b4e <HAL_RCC_ClockConfig+0xce>
    {
      assert_param(IS_RCC_PCLK2(RCC_ClkInitStruct->APB2CLKDivider));
      MODIFY_REG(RCC->D2CFGR, RCC_D2CFGR_D2PPRE2, (RCC_ClkInitStruct->APB2CLKDivider));
    }
#else
     if((RCC_ClkInitStruct->APB2CLKDivider) > (RCC->CDCFGR2 & RCC_CDCFGR2_CDPPRE2))
 8004b2c:	687b      	ldr	r3, [r7, #4]
 8004b2e:	699a      	ldr	r2, [r3, #24]
 8004b30:	4b64      	ldr	r3, [pc, #400]	; (8004cc4 <HAL_RCC_ClockConfig+0x244>)
 8004b32:	69db      	ldr	r3, [r3, #28]
 8004b34:	f403 63e0 	and.w	r3, r3, #1792	; 0x700
 8004b38:	429a      	cmp	r2, r3
 8004b3a:	d908      	bls.n	8004b4e <HAL_RCC_ClockConfig+0xce>
    {
      assert_param(IS_RCC_PCLK2(RCC_ClkInitStruct->APB2CLKDivider));
      MODIFY_REG(RCC->CDCFGR2, RCC_CDCFGR2_CDPPRE2, (RCC_ClkInitStruct->APB2CLKDivider));
 8004b3c:	4b61      	ldr	r3, [pc, #388]	; (8004cc4 <HAL_RCC_ClockConfig+0x244>)
 8004b3e:	69db      	ldr	r3, [r3, #28]
 8004b40:	f423 62e0 	bic.w	r2, r3, #1792	; 0x700
 8004b44:	687b      	ldr	r3, [r7, #4]
 8004b46:	699b      	ldr	r3, [r3, #24]
 8004b48:	495e      	ldr	r1, [pc, #376]	; (8004cc4 <HAL_RCC_ClockConfig+0x244>)
 8004b4a:	4313      	orrs	r3, r2
 8004b4c:	61cb      	str	r3, [r1, #28]
    }
#endif
  }

  /*-------------------------- D3PCLK1 Configuration ---------------------------*/
  if(((RCC_ClkInitStruct->ClockType) & RCC_CLOCKTYPE_D3PCLK1) == RCC_CLOCKTYPE_D3PCLK1)
 8004b4e:	687b      	ldr	r3, [r7, #4]
 8004b50:	681b      	ldr	r3, [r3, #0]
 8004b52:	f003 0320 	and.w	r3, r3, #32
 8004b56:	2b00      	cmp	r3, #0
 8004b58:	d010      	beq.n	8004b7c <HAL_RCC_ClockConfig+0xfc>
    {
      assert_param(IS_RCC_D3PCLK1(RCC_ClkInitStruct->APB4CLKDivider));
      MODIFY_REG(RCC->D3CFGR, RCC_D3CFGR_D3PPRE, (RCC_ClkInitStruct->APB4CLKDivider) );
    }
#else
    if((RCC_ClkInitStruct->APB4CLKDivider) > (RCC->SRDCFGR & RCC_SRDCFGR_SRDPPRE))
 8004b5a:	687b      	ldr	r3, [r7, #4]
 8004b5c:	69da      	ldr	r2, [r3, #28]
 8004b5e:	4b59      	ldr	r3, [pc, #356]	; (8004cc4 <HAL_RCC_ClockConfig+0x244>)
 8004b60:	6a1b      	ldr	r3, [r3, #32]
 8004b62:	f003 0370 	and.w	r3, r3, #112	; 0x70
 8004b66:	429a      	cmp	r2, r3
 8004b68:	d908      	bls.n	8004b7c <HAL_RCC_ClockConfig+0xfc>
    {
      assert_param(IS_RCC_D3PCLK1(RCC_ClkInitStruct->APB4CLKDivider));
      MODIFY_REG(RCC->SRDCFGR, RCC_SRDCFGR_SRDPPRE, (RCC_ClkInitStruct->APB4CLKDivider) );
 8004b6a:	4b56      	ldr	r3, [pc, #344]	; (8004cc4 <HAL_RCC_ClockConfig+0x244>)
 8004b6c:	6a1b      	ldr	r3, [r3, #32]
 8004b6e:	f023 0270 	bic.w	r2, r3, #112	; 0x70
 8004b72:	687b      	ldr	r3, [r7, #4]
 8004b74:	69db      	ldr	r3, [r3, #28]
 8004b76:	4953      	ldr	r1, [pc, #332]	; (8004cc4 <HAL_RCC_ClockConfig+0x244>)
 8004b78:	4313      	orrs	r3, r2
 8004b7a:	620b      	str	r3, [r1, #32]
    }
#endif
  }

   /*-------------------------- HCLK Configuration --------------------------*/
  if(((RCC_ClkInitStruct->ClockType) & RCC_CLOCKTYPE_HCLK) == RCC_CLOCKTYPE_HCLK)
 8004b7c:	687b      	ldr	r3, [r7, #4]
 8004b7e:	681b      	ldr	r3, [r3, #0]
 8004b80:	f003 0302 	and.w	r3, r3, #2
 8004b84:	2b00      	cmp	r3, #0
 8004b86:	d010      	beq.n	8004baa <HAL_RCC_ClockConfig+0x12a>
      /* Set the new HCLK clock divider */
      assert_param(IS_RCC_HCLK(RCC_ClkInitStruct->AHBCLKDivider));
      MODIFY_REG(RCC->D1CFGR, RCC_D1CFGR_HPRE, RCC_ClkInitStruct->AHBCLKDivider);
    }
#else
        if((RCC_ClkInitStruct->AHBCLKDivider) > (RCC->CDCFGR1 & RCC_CDCFGR1_HPRE))
 8004b88:	687b      	ldr	r3, [r7, #4]
 8004b8a:	68da      	ldr	r2, [r3, #12]
 8004b8c:	4b4d      	ldr	r3, [pc, #308]	; (8004cc4 <HAL_RCC_ClockConfig+0x244>)
 8004b8e:	699b      	ldr	r3, [r3, #24]
 8004b90:	f003 030f 	and.w	r3, r3, #15
 8004b94:	429a      	cmp	r2, r3
 8004b96:	d908      	bls.n	8004baa <HAL_RCC_ClockConfig+0x12a>
    {
      /* Set the new HCLK clock divider */
      assert_param(IS_RCC_HCLK(RCC_ClkInitStruct->AHBCLKDivider));
      MODIFY_REG(RCC->CDCFGR1, RCC_CDCFGR1_HPRE, RCC_ClkInitStruct->AHBCLKDivider);
 8004b98:	4b4a      	ldr	r3, [pc, #296]	; (8004cc4 <HAL_RCC_ClockConfig+0x244>)
 8004b9a:	699b      	ldr	r3, [r3, #24]
 8004b9c:	f023 020f 	bic.w	r2, r3, #15
 8004ba0:	687b      	ldr	r3, [r7, #4]
 8004ba2:	68db      	ldr	r3, [r3, #12]
 8004ba4:	4947      	ldr	r1, [pc, #284]	; (8004cc4 <HAL_RCC_ClockConfig+0x244>)
 8004ba6:	4313      	orrs	r3, r2
 8004ba8:	618b      	str	r3, [r1, #24]
    }
#endif
  }

    /*------------------------- SYSCLK Configuration -------------------------*/
    if(((RCC_ClkInitStruct->ClockType) & RCC_CLOCKTYPE_SYSCLK) == RCC_CLOCKTYPE_SYSCLK)
 8004baa:	687b      	ldr	r3, [r7, #4]
 8004bac:	681b      	ldr	r3, [r3, #0]
 8004bae:	f003 0301 	and.w	r3, r3, #1
 8004bb2:	2b00      	cmp	r3, #0
 8004bb4:	d055      	beq.n	8004c62 <HAL_RCC_ClockConfig+0x1e2>
      assert_param(IS_RCC_SYSCLK(RCC_ClkInitStruct->SYSCLKDivider));
      assert_param(IS_RCC_SYSCLKSOURCE(RCC_ClkInitStruct->SYSCLKSource));
#if defined(RCC_D1CFGR_D1CPRE)
      MODIFY_REG(RCC->D1CFGR, RCC_D1CFGR_D1CPRE, RCC_ClkInitStruct->SYSCLKDivider);
#else
      MODIFY_REG(RCC->CDCFGR1, RCC_CDCFGR1_CDCPRE, RCC_ClkInitStruct->SYSCLKDivider);
 8004bb6:	4b43      	ldr	r3, [pc, #268]	; (8004cc4 <HAL_RCC_ClockConfig+0x244>)
 8004bb8:	699b      	ldr	r3, [r3, #24]
 8004bba:	f423 6270 	bic.w	r2, r3, #3840	; 0xf00
 8004bbe:	687b      	ldr	r3, [r7, #4]
 8004bc0:	689b      	ldr	r3, [r3, #8]
 8004bc2:	4940      	ldr	r1, [pc, #256]	; (8004cc4 <HAL_RCC_ClockConfig+0x244>)
 8004bc4:	4313      	orrs	r3, r2
 8004bc6:	618b      	str	r3, [r1, #24]
#endif
      /* HSE is selected as System Clock Source */
      if(RCC_ClkInitStruct->SYSCLKSource == RCC_SYSCLKSOURCE_HSE)
 8004bc8:	687b      	ldr	r3, [r7, #4]
 8004bca:	685b      	ldr	r3, [r3, #4]
 8004bcc:	2b02      	cmp	r3, #2
 8004bce:	d107      	bne.n	8004be0 <HAL_RCC_ClockConfig+0x160>
      {
        /* Check the HSE ready flag */
        if(__HAL_RCC_GET_FLAG(RCC_FLAG_HSERDY) == 0U)
 8004bd0:	4b3c      	ldr	r3, [pc, #240]	; (8004cc4 <HAL_RCC_ClockConfig+0x244>)
 8004bd2:	681b      	ldr	r3, [r3, #0]
 8004bd4:	f403 3300 	and.w	r3, r3, #131072	; 0x20000
 8004bd8:	2b00      	cmp	r3, #0
 8004bda:	d121      	bne.n	8004c20 <HAL_RCC_ClockConfig+0x1a0>
        {
          return HAL_ERROR;
 8004bdc:	2301      	movs	r3, #1
 8004bde:	e0f6      	b.n	8004dce <HAL_RCC_ClockConfig+0x34e>
        }
      }
      /* PLL is selected as System Clock Source */
      else if(RCC_ClkInitStruct->SYSCLKSource == RCC_SYSCLKSOURCE_PLLCLK)
 8004be0:	687b      	ldr	r3, [r7, #4]
 8004be2:	685b      	ldr	r3, [r3, #4]
 8004be4:	2b03      	cmp	r3, #3
 8004be6:	d107      	bne.n	8004bf8 <HAL_RCC_ClockConfig+0x178>
      {
        /* Check the PLL ready flag */
        if(__HAL_RCC_GET_FLAG(RCC_FLAG_PLLRDY) == 0U)
 8004be8:	4b36      	ldr	r3, [pc, #216]	; (8004cc4 <HAL_RCC_ClockConfig+0x244>)
 8004bea:	681b      	ldr	r3, [r3, #0]
 8004bec:	f003 7300 	and.w	r3, r3, #33554432	; 0x2000000
 8004bf0:	2b00      	cmp	r3, #0
 8004bf2:	d115      	bne.n	8004c20 <HAL_RCC_ClockConfig+0x1a0>
        {
          return HAL_ERROR;
 8004bf4:	2301      	movs	r3, #1
 8004bf6:	e0ea      	b.n	8004dce <HAL_RCC_ClockConfig+0x34e>
        }
      }
      /* CSI is selected as System Clock Source */
      else if(RCC_ClkInitStruct->SYSCLKSource == RCC_SYSCLKSOURCE_CSI)
 8004bf8:	687b      	ldr	r3, [r7, #4]
 8004bfa:	685b      	ldr	r3, [r3, #4]
 8004bfc:	2b01      	cmp	r3, #1
 8004bfe:	d107      	bne.n	8004c10 <HAL_RCC_ClockConfig+0x190>
      {
        /* Check the PLL ready flag */
        if(__HAL_RCC_GET_FLAG(RCC_FLAG_CSIRDY) == 0U)
 8004c00:	4b30      	ldr	r3, [pc, #192]	; (8004cc4 <HAL_RCC_ClockConfig+0x244>)
 8004c02:	681b      	ldr	r3, [r3, #0]
 8004c04:	f403 7380 	and.w	r3, r3, #256	; 0x100
 8004c08:	2b00      	cmp	r3, #0
 8004c0a:	d109      	bne.n	8004c20 <HAL_RCC_ClockConfig+0x1a0>
        {
          return HAL_ERROR;
 8004c0c:	2301      	movs	r3, #1
 8004c0e:	e0de      	b.n	8004dce <HAL_RCC_ClockConfig+0x34e>
      }
      /* HSI is selected as System Clock Source */
      else
      {
        /* Check the HSI ready flag */
        if(__HAL_RCC_GET_FLAG(RCC_FLAG_HSIRDY) == 0U)
 8004c10:	4b2c      	ldr	r3, [pc, #176]	; (8004cc4 <HAL_RCC_ClockConfig+0x244>)
 8004c12:	681b      	ldr	r3, [r3, #0]
 8004c14:	f003 0304 	and.w	r3, r3, #4
 8004c18:	2b00      	cmp	r3, #0
 8004c1a:	d101      	bne.n	8004c20 <HAL_RCC_ClockConfig+0x1a0>
        {
          return HAL_ERROR;
 8004c1c:	2301      	movs	r3, #1
 8004c1e:	e0d6      	b.n	8004dce <HAL_RCC_ClockConfig+0x34e>
        }
      }
      MODIFY_REG(RCC->CFGR, RCC_CFGR_SW, RCC_ClkInitStruct->SYSCLKSource);
 8004c20:	4b28      	ldr	r3, [pc, #160]	; (8004cc4 <HAL_RCC_ClockConfig+0x244>)
 8004c22:	691b      	ldr	r3, [r3, #16]
 8004c24:	f023 0207 	bic.w	r2, r3, #7
 8004c28:	687b      	ldr	r3, [r7, #4]
 8004c2a:	685b      	ldr	r3, [r3, #4]
 8004c2c:	4925      	ldr	r1, [pc, #148]	; (8004cc4 <HAL_RCC_ClockConfig+0x244>)
 8004c2e:	4313      	orrs	r3, r2
 8004c30:	610b      	str	r3, [r1, #16]

      /* Get Start Tick*/
      tickstart = HAL_GetTick();
 8004c32:	f7fe ff89 	bl	8003b48 <HAL_GetTick>
 8004c36:	6178      	str	r0, [r7, #20]

        while (__HAL_RCC_GET_SYSCLK_SOURCE() !=  (RCC_ClkInitStruct->SYSCLKSource << RCC_CFGR_SWS_Pos))
 8004c38:	e00a      	b.n	8004c50 <HAL_RCC_ClockConfig+0x1d0>
        {
          if((HAL_GetTick() - tickstart ) > CLOCKSWITCH_TIMEOUT_VALUE)
 8004c3a:	f7fe ff85 	bl	8003b48 <HAL_GetTick>
 8004c3e:	4602      	mov	r2, r0
 8004c40:	697b      	ldr	r3, [r7, #20]
 8004c42:	1ad3      	subs	r3, r2, r3
 8004c44:	f241 3288 	movw	r2, #5000	; 0x1388
 8004c48:	4293      	cmp	r3, r2
 8004c4a:	d901      	bls.n	8004c50 <HAL_RCC_ClockConfig+0x1d0>
          {
            return HAL_TIMEOUT;
 8004c4c:	2303      	movs	r3, #3
 8004c4e:	e0be      	b.n	8004dce <HAL_RCC_ClockConfig+0x34e>
        while (__HAL_RCC_GET_SYSCLK_SOURCE() !=  (RCC_ClkInitStruct->SYSCLKSource << RCC_CFGR_SWS_Pos))
 8004c50:	4b1c      	ldr	r3, [pc, #112]	; (8004cc4 <HAL_RCC_ClockConfig+0x244>)
 8004c52:	691b      	ldr	r3, [r3, #16]
 8004c54:	f003 0238 	and.w	r2, r3, #56	; 0x38
 8004c58:	687b      	ldr	r3, [r7, #4]
 8004c5a:	685b      	ldr	r3, [r3, #4]
 8004c5c:	00db      	lsls	r3, r3, #3
 8004c5e:	429a      	cmp	r2, r3
 8004c60:	d1eb      	bne.n	8004c3a <HAL_RCC_ClockConfig+0x1ba>

    }

    /* Decreasing the BUS frequency divider */
   /*-------------------------- HCLK Configuration --------------------------*/
  if(((RCC_ClkInitStruct->ClockType) & RCC_CLOCKTYPE_HCLK) == RCC_CLOCKTYPE_HCLK)
 8004c62:	687b      	ldr	r3, [r7, #4]
 8004c64:	681b      	ldr	r3, [r3, #0]
 8004c66:	f003 0302 	and.w	r3, r3, #2
 8004c6a:	2b00      	cmp	r3, #0
 8004c6c:	d010      	beq.n	8004c90 <HAL_RCC_ClockConfig+0x210>
      /* Set the new HCLK clock divider */
      assert_param(IS_RCC_HCLK(RCC_ClkInitStruct->AHBCLKDivider));
      MODIFY_REG(RCC->D1CFGR, RCC_D1CFGR_HPRE, RCC_ClkInitStruct->AHBCLKDivider);
    }
#else
    if((RCC_ClkInitStruct->AHBCLKDivider) < (RCC->CDCFGR1 & RCC_CDCFGR1_HPRE))
 8004c6e:	687b      	ldr	r3, [r7, #4]
 8004c70:	68da      	ldr	r2, [r3, #12]
 8004c72:	4b14      	ldr	r3, [pc, #80]	; (8004cc4 <HAL_RCC_ClockConfig+0x244>)
 8004c74:	699b      	ldr	r3, [r3, #24]
 8004c76:	f003 030f 	and.w	r3, r3, #15
 8004c7a:	429a      	cmp	r2, r3
 8004c7c:	d208      	bcs.n	8004c90 <HAL_RCC_ClockConfig+0x210>
    {
      /* Set the new HCLK clock divider */
      assert_param(IS_RCC_HCLK(RCC_ClkInitStruct->AHBCLKDivider));
      MODIFY_REG(RCC->CDCFGR1, RCC_CDCFGR1_HPRE, RCC_ClkInitStruct->AHBCLKDivider);
 8004c7e:	4b11      	ldr	r3, [pc, #68]	; (8004cc4 <HAL_RCC_ClockConfig+0x244>)
 8004c80:	699b      	ldr	r3, [r3, #24]
 8004c82:	f023 020f 	bic.w	r2, r3, #15
 8004c86:	687b      	ldr	r3, [r7, #4]
 8004c88:	68db      	ldr	r3, [r3, #12]
 8004c8a:	490e      	ldr	r1, [pc, #56]	; (8004cc4 <HAL_RCC_ClockConfig+0x244>)
 8004c8c:	4313      	orrs	r3, r2
 8004c8e:	618b      	str	r3, [r1, #24]
    }
#endif
  }

  /* Decreasing the number of wait states because of lower CPU frequency */
  if(FLatency < __HAL_FLASH_GET_LATENCY())
 8004c90:	4b0b      	ldr	r3, [pc, #44]	; (8004cc0 <HAL_RCC_ClockConfig+0x240>)
 8004c92:	681b      	ldr	r3, [r3, #0]
 8004c94:	f003 030f 	and.w	r3, r3, #15
 8004c98:	683a      	ldr	r2, [r7, #0]
 8004c9a:	429a      	cmp	r2, r3
 8004c9c:	d214      	bcs.n	8004cc8 <HAL_RCC_ClockConfig+0x248>
  {
    /* Program the new number of wait states to the LATENCY bits in the FLASH_ACR register */
    __HAL_FLASH_SET_LATENCY(FLatency);
 8004c9e:	4b08      	ldr	r3, [pc, #32]	; (8004cc0 <HAL_RCC_ClockConfig+0x240>)
 8004ca0:	681b      	ldr	r3, [r3, #0]
 8004ca2:	f023 020f 	bic.w	r2, r3, #15
 8004ca6:	4906      	ldr	r1, [pc, #24]	; (8004cc0 <HAL_RCC_ClockConfig+0x240>)
 8004ca8:	683b      	ldr	r3, [r7, #0]
 8004caa:	4313      	orrs	r3, r2
 8004cac:	600b      	str	r3, [r1, #0]

    /* Check that the new number of wait states is taken into account to access the Flash
    memory by reading the FLASH_ACR register */
    if(__HAL_FLASH_GET_LATENCY() != FLatency)
 8004cae:	4b04      	ldr	r3, [pc, #16]	; (8004cc0 <HAL_RCC_ClockConfig+0x240>)
 8004cb0:	681b      	ldr	r3, [r3, #0]
 8004cb2:	f003 030f 	and.w	r3, r3, #15
 8004cb6:	683a      	ldr	r2, [r7, #0]
 8004cb8:	429a      	cmp	r2, r3
 8004cba:	d005      	beq.n	8004cc8 <HAL_RCC_ClockConfig+0x248>
    {
      return HAL_ERROR;
 8004cbc:	2301      	movs	r3, #1
 8004cbe:	e086      	b.n	8004dce <HAL_RCC_ClockConfig+0x34e>
 8004cc0:	52002000 	.word	0x52002000
 8004cc4:	58024400 	.word	0x58024400
    }
 }

  /*-------------------------- D1PCLK1/CDPCLK Configuration ---------------------------*/
 if(((RCC_ClkInitStruct->ClockType) & RCC_CLOCKTYPE_D1PCLK1) == RCC_CLOCKTYPE_D1PCLK1)
 8004cc8:	687b      	ldr	r3, [r7, #4]
 8004cca:	681b      	ldr	r3, [r3, #0]
 8004ccc:	f003 0304 	and.w	r3, r3, #4
 8004cd0:	2b00      	cmp	r3, #0
 8004cd2:	d010      	beq.n	8004cf6 <HAL_RCC_ClockConfig+0x276>
   {
     assert_param(IS_RCC_D1PCLK1(RCC_ClkInitStruct->APB3CLKDivider));
     MODIFY_REG(RCC->D1CFGR, RCC_D1CFGR_D1PPRE, RCC_ClkInitStruct->APB3CLKDivider);
   }
#else
   if((RCC_ClkInitStruct->APB3CLKDivider) < (RCC->CDCFGR1 & RCC_CDCFGR1_CDPPRE))
 8004cd4:	687b      	ldr	r3, [r7, #4]
 8004cd6:	691a      	ldr	r2, [r3, #16]
 8004cd8:	4b3f      	ldr	r3, [pc, #252]	; (8004dd8 <HAL_RCC_ClockConfig+0x358>)
 8004cda:	699b      	ldr	r3, [r3, #24]
 8004cdc:	f003 0370 	and.w	r3, r3, #112	; 0x70
 8004ce0:	429a      	cmp	r2, r3
 8004ce2:	d208      	bcs.n	8004cf6 <HAL_RCC_ClockConfig+0x276>
   {
     assert_param(IS_RCC_CDPCLK1(RCC_ClkInitStruct->APB3CLKDivider));
     MODIFY_REG(RCC->CDCFGR1, RCC_CDCFGR1_CDPPRE, RCC_ClkInitStruct->APB3CLKDivider);
 8004ce4:	4b3c      	ldr	r3, [pc, #240]	; (8004dd8 <HAL_RCC_ClockConfig+0x358>)
 8004ce6:	699b      	ldr	r3, [r3, #24]
 8004ce8:	f023 0270 	bic.w	r2, r3, #112	; 0x70
 8004cec:	687b      	ldr	r3, [r7, #4]
 8004cee:	691b      	ldr	r3, [r3, #16]
 8004cf0:	4939      	ldr	r1, [pc, #228]	; (8004dd8 <HAL_RCC_ClockConfig+0x358>)
 8004cf2:	4313      	orrs	r3, r2
 8004cf4:	618b      	str	r3, [r1, #24]
   }
#endif
 }

  /*-------------------------- PCLK1 Configuration ---------------------------*/
 if(((RCC_ClkInitStruct->ClockType) & RCC_CLOCKTYPE_PCLK1) == RCC_CLOCKTYPE_PCLK1)
 8004cf6:	687b      	ldr	r3, [r7, #4]
 8004cf8:	681b      	ldr	r3, [r3, #0]
 8004cfa:	f003 0308 	and.w	r3, r3, #8
 8004cfe:	2b00      	cmp	r3, #0
 8004d00:	d010      	beq.n	8004d24 <HAL_RCC_ClockConfig+0x2a4>
   {
     assert_param(IS_RCC_PCLK1(RCC_ClkInitStruct->APB1CLKDivider));
     MODIFY_REG(RCC->D2CFGR, RCC_D2CFGR_D2PPRE1, (RCC_ClkInitStruct->APB1CLKDivider));
   }
#else
   if((RCC_ClkInitStruct->APB1CLKDivider) < (RCC->CDCFGR2 & RCC_CDCFGR2_CDPPRE1))
 8004d02:	687b      	ldr	r3, [r7, #4]
 8004d04:	695a      	ldr	r2, [r3, #20]
 8004d06:	4b34      	ldr	r3, [pc, #208]	; (8004dd8 <HAL_RCC_ClockConfig+0x358>)
 8004d08:	69db      	ldr	r3, [r3, #28]
 8004d0a:	f003 0370 	and.w	r3, r3, #112	; 0x70
 8004d0e:	429a      	cmp	r2, r3
 8004d10:	d208      	bcs.n	8004d24 <HAL_RCC_ClockConfig+0x2a4>
   {
     assert_param(IS_RCC_PCLK1(RCC_ClkInitStruct->APB1CLKDivider));
     MODIFY_REG(RCC->CDCFGR2, RCC_CDCFGR2_CDPPRE1, (RCC_ClkInitStruct->APB1CLKDivider));
 8004d12:	4b31      	ldr	r3, [pc, #196]	; (8004dd8 <HAL_RCC_ClockConfig+0x358>)
 8004d14:	69db      	ldr	r3, [r3, #28]
 8004d16:	f023 0270 	bic.w	r2, r3, #112	; 0x70
 8004d1a:	687b      	ldr	r3, [r7, #4]
 8004d1c:	695b      	ldr	r3, [r3, #20]
 8004d1e:	492e      	ldr	r1, [pc, #184]	; (8004dd8 <HAL_RCC_ClockConfig+0x358>)
 8004d20:	4313      	orrs	r3, r2
 8004d22:	61cb      	str	r3, [r1, #28]
   }
#endif
 }

  /*-------------------------- PCLK2 Configuration ---------------------------*/
 if(((RCC_ClkInitStruct->ClockType) & RCC_CLOCKTYPE_PCLK2) == RCC_CLOCKTYPE_PCLK2)
 8004d24:	687b      	ldr	r3, [r7, #4]
 8004d26:	681b      	ldr	r3, [r3, #0]
 8004d28:	f003 0310 	and.w	r3, r3, #16
 8004d2c:	2b00      	cmp	r3, #0
 8004d2e:	d010      	beq.n	8004d52 <HAL_RCC_ClockConfig+0x2d2>
   {
     assert_param(IS_RCC_PCLK2(RCC_ClkInitStruct->APB2CLKDivider));
     MODIFY_REG(RCC->D2CFGR, RCC_D2CFGR_D2PPRE2, (RCC_ClkInitStruct->APB2CLKDivider));
   }
#else
   if((RCC_ClkInitStruct->APB2CLKDivider) < (RCC->CDCFGR2 & RCC_CDCFGR2_CDPPRE2))
 8004d30:	687b      	ldr	r3, [r7, #4]
 8004d32:	699a      	ldr	r2, [r3, #24]
 8004d34:	4b28      	ldr	r3, [pc, #160]	; (8004dd8 <HAL_RCC_ClockConfig+0x358>)
 8004d36:	69db      	ldr	r3, [r3, #28]
 8004d38:	f403 63e0 	and.w	r3, r3, #1792	; 0x700
 8004d3c:	429a      	cmp	r2, r3
 8004d3e:	d208      	bcs.n	8004d52 <HAL_RCC_ClockConfig+0x2d2>
   {
     assert_param(IS_RCC_PCLK2(RCC_ClkInitStruct->APB2CLKDivider));
     MODIFY_REG(RCC->CDCFGR2, RCC_CDCFGR2_CDPPRE2, (RCC_ClkInitStruct->APB2CLKDivider));
 8004d40:	4b25      	ldr	r3, [pc, #148]	; (8004dd8 <HAL_RCC_ClockConfig+0x358>)
 8004d42:	69db      	ldr	r3, [r3, #28]
 8004d44:	f423 62e0 	bic.w	r2, r3, #1792	; 0x700
 8004d48:	687b      	ldr	r3, [r7, #4]
 8004d4a:	699b      	ldr	r3, [r3, #24]
 8004d4c:	4922      	ldr	r1, [pc, #136]	; (8004dd8 <HAL_RCC_ClockConfig+0x358>)
 8004d4e:	4313      	orrs	r3, r2
 8004d50:	61cb      	str	r3, [r1, #28]
   }
#endif
 }

  /*-------------------------- D3PCLK1/SRDPCLK1 Configuration ---------------------------*/
 if(((RCC_ClkInitStruct->ClockType) & RCC_CLOCKTYPE_D3PCLK1) == RCC_CLOCKTYPE_D3PCLK1)
 8004d52:	687b      	ldr	r3, [r7, #4]
 8004d54:	681b      	ldr	r3, [r3, #0]
 8004d56:	f003 0320 	and.w	r3, r3, #32
 8004d5a:	2b00      	cmp	r3, #0
 8004d5c:	d010      	beq.n	8004d80 <HAL_RCC_ClockConfig+0x300>
   {
     assert_param(IS_RCC_D3PCLK1(RCC_ClkInitStruct->APB4CLKDivider));
     MODIFY_REG(RCC->D3CFGR, RCC_D3CFGR_D3PPRE, (RCC_ClkInitStruct->APB4CLKDivider) );
   }
#else
   if((RCC_ClkInitStruct->APB4CLKDivider) < (RCC->SRDCFGR & RCC_SRDCFGR_SRDPPRE))
 8004d5e:	687b      	ldr	r3, [r7, #4]
 8004d60:	69da      	ldr	r2, [r3, #28]
 8004d62:	4b1d      	ldr	r3, [pc, #116]	; (8004dd8 <HAL_RCC_ClockConfig+0x358>)
 8004d64:	6a1b      	ldr	r3, [r3, #32]
 8004d66:	f003 0370 	and.w	r3, r3, #112	; 0x70
 8004d6a:	429a      	cmp	r2, r3
 8004d6c:	d208      	bcs.n	8004d80 <HAL_RCC_ClockConfig+0x300>
   {
     assert_param(IS_RCC_SRDPCLK1(RCC_ClkInitStruct->APB4CLKDivider));
     MODIFY_REG(RCC->SRDCFGR, RCC_SRDCFGR_SRDPPRE, (RCC_ClkInitStruct->APB4CLKDivider) );
 8004d6e:	4b1a      	ldr	r3, [pc, #104]	; (8004dd8 <HAL_RCC_ClockConfig+0x358>)
 8004d70:	6a1b      	ldr	r3, [r3, #32]
 8004d72:	f023 0270 	bic.w	r2, r3, #112	; 0x70
 8004d76:	687b      	ldr	r3, [r7, #4]
 8004d78:	69db      	ldr	r3, [r3, #28]
 8004d7a:	4917      	ldr	r1, [pc, #92]	; (8004dd8 <HAL_RCC_ClockConfig+0x358>)
 8004d7c:	4313      	orrs	r3, r2
 8004d7e:	620b      	str	r3, [r1, #32]

  /* Update the SystemCoreClock global variable */
#if defined(RCC_D1CFGR_D1CPRE)
  common_system_clock = HAL_RCC_GetSysClockFreq() >> ((D1CorePrescTable[(RCC->D1CFGR & RCC_D1CFGR_D1CPRE)>> RCC_D1CFGR_D1CPRE_Pos]) & 0x1FU);
#else
  common_system_clock = HAL_RCC_GetSysClockFreq() >> ((D1CorePrescTable[(RCC->CDCFGR1 & RCC_CDCFGR1_CDCPRE)>> RCC_CDCFGR1_CDCPRE_Pos]) & 0x1FU);
 8004d80:	f000 f834 	bl	8004dec <HAL_RCC_GetSysClockFreq>
 8004d84:	4602      	mov	r2, r0
 8004d86:	4b14      	ldr	r3, [pc, #80]	; (8004dd8 <HAL_RCC_ClockConfig+0x358>)
 8004d88:	699b      	ldr	r3, [r3, #24]
 8004d8a:	0a1b      	lsrs	r3, r3, #8
 8004d8c:	f003 030f 	and.w	r3, r3, #15
 8004d90:	4912      	ldr	r1, [pc, #72]	; (8004ddc <HAL_RCC_ClockConfig+0x35c>)
 8004d92:	5ccb      	ldrb	r3, [r1, r3]
 8004d94:	f003 031f 	and.w	r3, r3, #31
 8004d98:	fa22 f303 	lsr.w	r3, r2, r3
 8004d9c:	613b      	str	r3, [r7, #16]
#endif

#if defined(RCC_D1CFGR_HPRE)
  SystemD2Clock = (common_system_clock >> ((D1CorePrescTable[(RCC->D1CFGR & RCC_D1CFGR_HPRE)>> RCC_D1CFGR_HPRE_Pos]) & 0x1FU));
#else
  SystemD2Clock = (common_system_clock >> ((D1CorePrescTable[(RCC->CDCFGR1 & RCC_CDCFGR1_HPRE)>> RCC_CDCFGR1_HPRE_Pos]) & 0x1FU));
 8004d9e:	4b0e      	ldr	r3, [pc, #56]	; (8004dd8 <HAL_RCC_ClockConfig+0x358>)
 8004da0:	699b      	ldr	r3, [r3, #24]
 8004da2:	f003 030f 	and.w	r3, r3, #15
 8004da6:	4a0d      	ldr	r2, [pc, #52]	; (8004ddc <HAL_RCC_ClockConfig+0x35c>)
 8004da8:	5cd3      	ldrb	r3, [r2, r3]
 8004daa:	f003 031f 	and.w	r3, r3, #31
 8004dae:	693a      	ldr	r2, [r7, #16]
 8004db0:	fa22 f303 	lsr.w	r3, r2, r3
 8004db4:	4a0a      	ldr	r2, [pc, #40]	; (8004de0 <HAL_RCC_ClockConfig+0x360>)
 8004db6:	6013      	str	r3, [r2, #0]
#endif

#if defined(DUAL_CORE) && defined(CORE_CM4)
  SystemCoreClock = SystemD2Clock;
#else
  SystemCoreClock = common_system_clock;
 8004db8:	4a0a      	ldr	r2, [pc, #40]	; (8004de4 <HAL_RCC_ClockConfig+0x364>)
 8004dba:	693b      	ldr	r3, [r7, #16]
 8004dbc:	6013      	str	r3, [r2, #0]
#endif /* DUAL_CORE && CORE_CM4 */

  /* Configure the source of time base considering new system clocks settings*/
  halstatus = HAL_InitTick (uwTickPrio);
 8004dbe:	4b0a      	ldr	r3, [pc, #40]	; (8004de8 <HAL_RCC_ClockConfig+0x368>)
 8004dc0:	681b      	ldr	r3, [r3, #0]
 8004dc2:	4618      	mov	r0, r3
 8004dc4:	f7fe fe76 	bl	8003ab4 <HAL_InitTick>
 8004dc8:	4603      	mov	r3, r0
 8004dca:	73fb      	strb	r3, [r7, #15]

  return halstatus;
 8004dcc:	7bfb      	ldrb	r3, [r7, #15]
}
 8004dce:	4618      	mov	r0, r3
 8004dd0:	3718      	adds	r7, #24
 8004dd2:	46bd      	mov	sp, r7
 8004dd4:	bd80      	pop	{r7, pc}
 8004dd6:	bf00      	nop
 8004dd8:	58024400 	.word	0x58024400
 8004ddc:	0801988c 	.word	0x0801988c
 8004de0:	24000074 	.word	0x24000074
 8004de4:	24000070 	.word	0x24000070
 8004de8:	24000078 	.word	0x24000078

08004dec <HAL_RCC_GetSysClockFreq>:
  *
  *
  * @retval SYSCLK frequency
  */
uint32_t HAL_RCC_GetSysClockFreq(void)
{
 8004dec:	b480      	push	{r7}
 8004dee:	b089      	sub	sp, #36	; 0x24
 8004df0:	af00      	add	r7, sp, #0
  float_t fracn1, pllvco;
  uint32_t sysclockfreq;

  /* Get SYSCLK source -------------------------------------------------------*/

  switch (RCC->CFGR & RCC_CFGR_SWS)
 8004df2:	4bb3      	ldr	r3, [pc, #716]	; (80050c0 <HAL_RCC_GetSysClockFreq+0x2d4>)
 8004df4:	691b      	ldr	r3, [r3, #16]
 8004df6:	f003 0338 	and.w	r3, r3, #56	; 0x38
 8004dfa:	2b18      	cmp	r3, #24
 8004dfc:	f200 8155 	bhi.w	80050aa <HAL_RCC_GetSysClockFreq+0x2be>
 8004e00:	a201      	add	r2, pc, #4	; (adr r2, 8004e08 <HAL_RCC_GetSysClockFreq+0x1c>)
 8004e02:	f852 f023 	ldr.w	pc, [r2, r3, lsl #2]
 8004e06:	bf00      	nop
 8004e08:	08004e6d 	.word	0x08004e6d
 8004e0c:	080050ab 	.word	0x080050ab
 8004e10:	080050ab 	.word	0x080050ab
 8004e14:	080050ab 	.word	0x080050ab
 8004e18:	080050ab 	.word	0x080050ab
 8004e1c:	080050ab 	.word	0x080050ab
 8004e20:	080050ab 	.word	0x080050ab
 8004e24:	080050ab 	.word	0x080050ab
 8004e28:	08004e93 	.word	0x08004e93
 8004e2c:	080050ab 	.word	0x080050ab
 8004e30:	080050ab 	.word	0x080050ab
 8004e34:	080050ab 	.word	0x080050ab
 8004e38:	080050ab 	.word	0x080050ab
 8004e3c:	080050ab 	.word	0x080050ab
 8004e40:	080050ab 	.word	0x080050ab
 8004e44:	080050ab 	.word	0x080050ab
 8004e48:	08004e99 	.word	0x08004e99
 8004e4c:	080050ab 	.word	0x080050ab
 8004e50:	080050ab 	.word	0x080050ab
 8004e54:	080050ab 	.word	0x080050ab
 8004e58:	080050ab 	.word	0x080050ab
 8004e5c:	080050ab 	.word	0x080050ab
 8004e60:	080050ab 	.word	0x080050ab
 8004e64:	080050ab 	.word	0x080050ab
 8004e68:	08004e9f 	.word	0x08004e9f
  {
  case RCC_CFGR_SWS_HSI:  /* HSI used as system clock source */

   if (__HAL_RCC_GET_FLAG(RCC_FLAG_HSIDIV) != 0U)
 8004e6c:	4b94      	ldr	r3, [pc, #592]	; (80050c0 <HAL_RCC_GetSysClockFreq+0x2d4>)
 8004e6e:	681b      	ldr	r3, [r3, #0]
 8004e70:	f003 0320 	and.w	r3, r3, #32
 8004e74:	2b00      	cmp	r3, #0
 8004e76:	d009      	beq.n	8004e8c <HAL_RCC_GetSysClockFreq+0xa0>
      {
        sysclockfreq = (uint32_t) (HSI_VALUE >> (__HAL_RCC_GET_HSI_DIVIDER()>> 3));
 8004e78:	4b91      	ldr	r3, [pc, #580]	; (80050c0 <HAL_RCC_GetSysClockFreq+0x2d4>)
 8004e7a:	681b      	ldr	r3, [r3, #0]
 8004e7c:	08db      	lsrs	r3, r3, #3
 8004e7e:	f003 0303 	and.w	r3, r3, #3
 8004e82:	4a90      	ldr	r2, [pc, #576]	; (80050c4 <HAL_RCC_GetSysClockFreq+0x2d8>)
 8004e84:	fa22 f303 	lsr.w	r3, r2, r3
 8004e88:	61bb      	str	r3, [r7, #24]
      else
      {
        sysclockfreq = (uint32_t) HSI_VALUE;
      }

    break;
 8004e8a:	e111      	b.n	80050b0 <HAL_RCC_GetSysClockFreq+0x2c4>
        sysclockfreq = (uint32_t) HSI_VALUE;
 8004e8c:	4b8d      	ldr	r3, [pc, #564]	; (80050c4 <HAL_RCC_GetSysClockFreq+0x2d8>)
 8004e8e:	61bb      	str	r3, [r7, #24]
    break;
 8004e90:	e10e      	b.n	80050b0 <HAL_RCC_GetSysClockFreq+0x2c4>

  case RCC_CFGR_SWS_CSI:  /* CSI used as system clock  source */
    sysclockfreq = CSI_VALUE;
 8004e92:	4b8d      	ldr	r3, [pc, #564]	; (80050c8 <HAL_RCC_GetSysClockFreq+0x2dc>)
 8004e94:	61bb      	str	r3, [r7, #24]
    break;
 8004e96:	e10b      	b.n	80050b0 <HAL_RCC_GetSysClockFreq+0x2c4>

  case RCC_CFGR_SWS_HSE:  /* HSE used as system clock  source */
    sysclockfreq = HSE_VALUE;
 8004e98:	4b8c      	ldr	r3, [pc, #560]	; (80050cc <HAL_RCC_GetSysClockFreq+0x2e0>)
 8004e9a:	61bb      	str	r3, [r7, #24]
    break;
 8004e9c:	e108      	b.n	80050b0 <HAL_RCC_GetSysClockFreq+0x2c4>
  case RCC_CFGR_SWS_PLL1:  /* PLL1 used as system clock  source */

    /* PLL_VCO = (HSE_VALUE or HSI_VALUE or CSI_VALUE/ PLLM) * PLLN
    SYSCLK = PLL_VCO / PLLR
    */
    pllsource = (RCC->PLLCKSELR & RCC_PLLCKSELR_PLLSRC);
 8004e9e:	4b88      	ldr	r3, [pc, #544]	; (80050c0 <HAL_RCC_GetSysClockFreq+0x2d4>)
 8004ea0:	6a9b      	ldr	r3, [r3, #40]	; 0x28
 8004ea2:	f003 0303 	and.w	r3, r3, #3
 8004ea6:	617b      	str	r3, [r7, #20]
    pllm = ((RCC->PLLCKSELR & RCC_PLLCKSELR_DIVM1)>> 4)  ;
 8004ea8:	4b85      	ldr	r3, [pc, #532]	; (80050c0 <HAL_RCC_GetSysClockFreq+0x2d4>)
 8004eaa:	6a9b      	ldr	r3, [r3, #40]	; 0x28
 8004eac:	091b      	lsrs	r3, r3, #4
 8004eae:	f003 033f 	and.w	r3, r3, #63	; 0x3f
 8004eb2:	613b      	str	r3, [r7, #16]
    pllfracen = ((RCC-> PLLCFGR & RCC_PLLCFGR_PLL1FRACEN)>>RCC_PLLCFGR_PLL1FRACEN_Pos);
 8004eb4:	4b82      	ldr	r3, [pc, #520]	; (80050c0 <HAL_RCC_GetSysClockFreq+0x2d4>)
 8004eb6:	6adb      	ldr	r3, [r3, #44]	; 0x2c
 8004eb8:	f003 0301 	and.w	r3, r3, #1
 8004ebc:	60fb      	str	r3, [r7, #12]
    fracn1 = (float_t)(uint32_t)(pllfracen* ((RCC->PLL1FRACR & RCC_PLL1FRACR_FRACN1)>> 3));
 8004ebe:	4b80      	ldr	r3, [pc, #512]	; (80050c0 <HAL_RCC_GetSysClockFreq+0x2d4>)
 8004ec0:	6b5b      	ldr	r3, [r3, #52]	; 0x34
 8004ec2:	08db      	lsrs	r3, r3, #3
 8004ec4:	f3c3 030c 	ubfx	r3, r3, #0, #13
 8004ec8:	68fa      	ldr	r2, [r7, #12]
 8004eca:	fb02 f303 	mul.w	r3, r2, r3
 8004ece:	ee07 3a90 	vmov	s15, r3
 8004ed2:	eef8 7a67 	vcvt.f32.u32	s15, s15
 8004ed6:	edc7 7a02 	vstr	s15, [r7, #8]

    if (pllm != 0U)
 8004eda:	693b      	ldr	r3, [r7, #16]
 8004edc:	2b00      	cmp	r3, #0
 8004ede:	f000 80e1 	beq.w	80050a4 <HAL_RCC_GetSysClockFreq+0x2b8>
 8004ee2:	697b      	ldr	r3, [r7, #20]
 8004ee4:	2b02      	cmp	r3, #2
 8004ee6:	f000 8083 	beq.w	8004ff0 <HAL_RCC_GetSysClockFreq+0x204>
 8004eea:	697b      	ldr	r3, [r7, #20]
 8004eec:	2b02      	cmp	r3, #2
 8004eee:	f200 80a1 	bhi.w	8005034 <HAL_RCC_GetSysClockFreq+0x248>
 8004ef2:	697b      	ldr	r3, [r7, #20]
 8004ef4:	2b00      	cmp	r3, #0
 8004ef6:	d003      	beq.n	8004f00 <HAL_RCC_GetSysClockFreq+0x114>
 8004ef8:	697b      	ldr	r3, [r7, #20]
 8004efa:	2b01      	cmp	r3, #1
 8004efc:	d056      	beq.n	8004fac <HAL_RCC_GetSysClockFreq+0x1c0>
 8004efe:	e099      	b.n	8005034 <HAL_RCC_GetSysClockFreq+0x248>
    {
      switch (pllsource)
      {
      case RCC_PLLSOURCE_HSI:  /* HSI used as PLL clock source */

       if (__HAL_RCC_GET_FLAG(RCC_FLAG_HSIDIV) != 0U)
 8004f00:	4b6f      	ldr	r3, [pc, #444]	; (80050c0 <HAL_RCC_GetSysClockFreq+0x2d4>)
 8004f02:	681b      	ldr	r3, [r3, #0]
 8004f04:	f003 0320 	and.w	r3, r3, #32
 8004f08:	2b00      	cmp	r3, #0
 8004f0a:	d02d      	beq.n	8004f68 <HAL_RCC_GetSysClockFreq+0x17c>
        {
          hsivalue= (HSI_VALUE >> (__HAL_RCC_GET_HSI_DIVIDER()>> 3));
 8004f0c:	4b6c      	ldr	r3, [pc, #432]	; (80050c0 <HAL_RCC_GetSysClockFreq+0x2d4>)
 8004f0e:	681b      	ldr	r3, [r3, #0]
 8004f10:	08db      	lsrs	r3, r3, #3
 8004f12:	f003 0303 	and.w	r3, r3, #3
 8004f16:	4a6b      	ldr	r2, [pc, #428]	; (80050c4 <HAL_RCC_GetSysClockFreq+0x2d8>)
 8004f18:	fa22 f303 	lsr.w	r3, r2, r3
 8004f1c:	607b      	str	r3, [r7, #4]
          pllvco = ( (float_t)hsivalue / (float_t)pllm) * ((float_t)(uint32_t)(RCC->PLL1DIVR & RCC_PLL1DIVR_N1) + (fracn1/(float_t)0x2000) +(float_t)1 );
 8004f1e:	687b      	ldr	r3, [r7, #4]
 8004f20:	ee07 3a90 	vmov	s15, r3
 8004f24:	eef8 6a67 	vcvt.f32.u32	s13, s15
 8004f28:	693b      	ldr	r3, [r7, #16]
 8004f2a:	ee07 3a90 	vmov	s15, r3
 8004f2e:	eef8 7a67 	vcvt.f32.u32	s15, s15
 8004f32:	ee86 7aa7 	vdiv.f32	s14, s13, s15
 8004f36:	4b62      	ldr	r3, [pc, #392]	; (80050c0 <HAL_RCC_GetSysClockFreq+0x2d4>)
 8004f38:	6b1b      	ldr	r3, [r3, #48]	; 0x30
 8004f3a:	f3c3 0308 	ubfx	r3, r3, #0, #9
 8004f3e:	ee07 3a90 	vmov	s15, r3
 8004f42:	eef8 6a67 	vcvt.f32.u32	s13, s15
 8004f46:	ed97 6a02 	vldr	s12, [r7, #8]
 8004f4a:	eddf 5a61 	vldr	s11, [pc, #388]	; 80050d0 <HAL_RCC_GetSysClockFreq+0x2e4>
 8004f4e:	eec6 7a25 	vdiv.f32	s15, s12, s11
 8004f52:	ee76 7aa7 	vadd.f32	s15, s13, s15
 8004f56:	eef7 6a00 	vmov.f32	s13, #112	; 0x3f800000  1.0
 8004f5a:	ee77 7aa6 	vadd.f32	s15, s15, s13
 8004f5e:	ee67 7a27 	vmul.f32	s15, s14, s15
 8004f62:	edc7 7a07 	vstr	s15, [r7, #28]
        }
        else
        {
          pllvco = ((float_t)HSI_VALUE / (float_t)pllm) * ((float_t)(uint32_t)(RCC->PLL1DIVR & RCC_PLL1DIVR_N1) + (fracn1/(float_t)0x2000) +(float_t)1 );
        }
        break;
 8004f66:	e087      	b.n	8005078 <HAL_RCC_GetSysClockFreq+0x28c>
          pllvco = ((float_t)HSI_VALUE / (float_t)pllm) * ((float_t)(uint32_t)(RCC->PLL1DIVR & RCC_PLL1DIVR_N1) + (fracn1/(float_t)0x2000) +(float_t)1 );
 8004f68:	693b      	ldr	r3, [r7, #16]
 8004f6a:	ee07 3a90 	vmov	s15, r3
 8004f6e:	eef8 7a67 	vcvt.f32.u32	s15, s15
 8004f72:	eddf 6a58 	vldr	s13, [pc, #352]	; 80050d4 <HAL_RCC_GetSysClockFreq+0x2e8>
 8004f76:	ee86 7aa7 	vdiv.f32	s14, s13, s15
 8004f7a:	4b51      	ldr	r3, [pc, #324]	; (80050c0 <HAL_RCC_GetSysClockFreq+0x2d4>)
 8004f7c:	6b1b      	ldr	r3, [r3, #48]	; 0x30
 8004f7e:	f3c3 0308 	ubfx	r3, r3, #0, #9
 8004f82:	ee07 3a90 	vmov	s15, r3
 8004f86:	eef8 6a67 	vcvt.f32.u32	s13, s15
 8004f8a:	ed97 6a02 	vldr	s12, [r7, #8]
 8004f8e:	eddf 5a50 	vldr	s11, [pc, #320]	; 80050d0 <HAL_RCC_GetSysClockFreq+0x2e4>
 8004f92:	eec6 7a25 	vdiv.f32	s15, s12, s11
 8004f96:	ee76 7aa7 	vadd.f32	s15, s13, s15
 8004f9a:	eef7 6a00 	vmov.f32	s13, #112	; 0x3f800000  1.0
 8004f9e:	ee77 7aa6 	vadd.f32	s15, s15, s13
 8004fa2:	ee67 7a27 	vmul.f32	s15, s14, s15
 8004fa6:	edc7 7a07 	vstr	s15, [r7, #28]
        break;
 8004faa:	e065      	b.n	8005078 <HAL_RCC_GetSysClockFreq+0x28c>

      case RCC_PLLSOURCE_CSI:  /* CSI used as PLL clock source */
        pllvco = ((float_t)CSI_VALUE / (float_t)pllm) * ((float_t)(uint32_t)(RCC->PLL1DIVR & RCC_PLL1DIVR_N1) + (fracn1/(float_t)0x2000) +(float_t)1 );
 8004fac:	693b      	ldr	r3, [r7, #16]
 8004fae:	ee07 3a90 	vmov	s15, r3
 8004fb2:	eef8 7a67 	vcvt.f32.u32	s15, s15
 8004fb6:	eddf 6a48 	vldr	s13, [pc, #288]	; 80050d8 <HAL_RCC_GetSysClockFreq+0x2ec>
 8004fba:	ee86 7aa7 	vdiv.f32	s14, s13, s15
 8004fbe:	4b40      	ldr	r3, [pc, #256]	; (80050c0 <HAL_RCC_GetSysClockFreq+0x2d4>)
 8004fc0:	6b1b      	ldr	r3, [r3, #48]	; 0x30
 8004fc2:	f3c3 0308 	ubfx	r3, r3, #0, #9
 8004fc6:	ee07 3a90 	vmov	s15, r3
 8004fca:	eef8 6a67 	vcvt.f32.u32	s13, s15
 8004fce:	ed97 6a02 	vldr	s12, [r7, #8]
 8004fd2:	eddf 5a3f 	vldr	s11, [pc, #252]	; 80050d0 <HAL_RCC_GetSysClockFreq+0x2e4>
 8004fd6:	eec6 7a25 	vdiv.f32	s15, s12, s11
 8004fda:	ee76 7aa7 	vadd.f32	s15, s13, s15
 8004fde:	eef7 6a00 	vmov.f32	s13, #112	; 0x3f800000  1.0
 8004fe2:	ee77 7aa6 	vadd.f32	s15, s15, s13
 8004fe6:	ee67 7a27 	vmul.f32	s15, s14, s15
 8004fea:	edc7 7a07 	vstr	s15, [r7, #28]
        break;
 8004fee:	e043      	b.n	8005078 <HAL_RCC_GetSysClockFreq+0x28c>

      case RCC_PLLSOURCE_HSE:  /* HSE used as PLL clock source */
        pllvco = ((float_t)HSE_VALUE / (float_t)pllm) * ((float_t)(uint32_t)(RCC->PLL1DIVR & RCC_PLL1DIVR_N1) + (fracn1/(float_t)0x2000) +(float_t)1 );
 8004ff0:	693b      	ldr	r3, [r7, #16]
 8004ff2:	ee07 3a90 	vmov	s15, r3
 8004ff6:	eef8 7a67 	vcvt.f32.u32	s15, s15
 8004ffa:	eddf 6a38 	vldr	s13, [pc, #224]	; 80050dc <HAL_RCC_GetSysClockFreq+0x2f0>
 8004ffe:	ee86 7aa7 	vdiv.f32	s14, s13, s15
 8005002:	4b2f      	ldr	r3, [pc, #188]	; (80050c0 <HAL_RCC_GetSysClockFreq+0x2d4>)
 8005004:	6b1b      	ldr	r3, [r3, #48]	; 0x30
 8005006:	f3c3 0308 	ubfx	r3, r3, #0, #9
 800500a:	ee07 3a90 	vmov	s15, r3
 800500e:	eef8 6a67 	vcvt.f32.u32	s13, s15
 8005012:	ed97 6a02 	vldr	s12, [r7, #8]
 8005016:	eddf 5a2e 	vldr	s11, [pc, #184]	; 80050d0 <HAL_RCC_GetSysClockFreq+0x2e4>
 800501a:	eec6 7a25 	vdiv.f32	s15, s12, s11
 800501e:	ee76 7aa7 	vadd.f32	s15, s13, s15
 8005022:	eef7 6a00 	vmov.f32	s13, #112	; 0x3f800000  1.0
 8005026:	ee77 7aa6 	vadd.f32	s15, s15, s13
 800502a:	ee67 7a27 	vmul.f32	s15, s14, s15
 800502e:	edc7 7a07 	vstr	s15, [r7, #28]
        break;
 8005032:	e021      	b.n	8005078 <HAL_RCC_GetSysClockFreq+0x28c>

      default:
        pllvco = ((float_t)CSI_VALUE / (float_t)pllm) * ((float_t)(uint32_t)(RCC->PLL1DIVR & RCC_PLL1DIVR_N1) + (fracn1/(float_t)0x2000) +(float_t)1 );
 8005034:	693b      	ldr	r3, [r7, #16]
 8005036:	ee07 3a90 	vmov	s15, r3
 800503a:	eef8 7a67 	vcvt.f32.u32	s15, s15
 800503e:	eddf 6a26 	vldr	s13, [pc, #152]	; 80050d8 <HAL_RCC_GetSysClockFreq+0x2ec>
 8005042:	ee86 7aa7 	vdiv.f32	s14, s13, s15
 8005046:	4b1e      	ldr	r3, [pc, #120]	; (80050c0 <HAL_RCC_GetSysClockFreq+0x2d4>)
 8005048:	6b1b      	ldr	r3, [r3, #48]	; 0x30
 800504a:	f3c3 0308 	ubfx	r3, r3, #0, #9
 800504e:	ee07 3a90 	vmov	s15, r3
 8005052:	eef8 6a67 	vcvt.f32.u32	s13, s15
 8005056:	ed97 6a02 	vldr	s12, [r7, #8]
 800505a:	eddf 5a1d 	vldr	s11, [pc, #116]	; 80050d0 <HAL_RCC_GetSysClockFreq+0x2e4>
 800505e:	eec6 7a25 	vdiv.f32	s15, s12, s11
 8005062:	ee76 7aa7 	vadd.f32	s15, s13, s15
 8005066:	eef7 6a00 	vmov.f32	s13, #112	; 0x3f800000  1.0
 800506a:	ee77 7aa6 	vadd.f32	s15, s15, s13
 800506e:	ee67 7a27 	vmul.f32	s15, s14, s15
 8005072:	edc7 7a07 	vstr	s15, [r7, #28]
        break;
 8005076:	bf00      	nop
      }
      pllp = (((RCC->PLL1DIVR & RCC_PLL1DIVR_P1) >>9) + 1U ) ;
 8005078:	4b11      	ldr	r3, [pc, #68]	; (80050c0 <HAL_RCC_GetSysClockFreq+0x2d4>)
 800507a:	6b1b      	ldr	r3, [r3, #48]	; 0x30
 800507c:	0a5b      	lsrs	r3, r3, #9
 800507e:	f003 037f 	and.w	r3, r3, #127	; 0x7f
 8005082:	3301      	adds	r3, #1
 8005084:	603b      	str	r3, [r7, #0]
      sysclockfreq =  (uint32_t)(float_t)(pllvco/(float_t)pllp);
 8005086:	683b      	ldr	r3, [r7, #0]
 8005088:	ee07 3a90 	vmov	s15, r3
 800508c:	eeb8 7a67 	vcvt.f32.u32	s14, s15
 8005090:	edd7 6a07 	vldr	s13, [r7, #28]
 8005094:	eec6 7a87 	vdiv.f32	s15, s13, s14
 8005098:	eefc 7ae7 	vcvt.u32.f32	s15, s15
 800509c:	ee17 3a90 	vmov	r3, s15
 80050a0:	61bb      	str	r3, [r7, #24]
    }
    else
    {
      sysclockfreq = 0U;
    }
    break;
 80050a2:	e005      	b.n	80050b0 <HAL_RCC_GetSysClockFreq+0x2c4>
      sysclockfreq = 0U;
 80050a4:	2300      	movs	r3, #0
 80050a6:	61bb      	str	r3, [r7, #24]
    break;
 80050a8:	e002      	b.n	80050b0 <HAL_RCC_GetSysClockFreq+0x2c4>

  default:
    sysclockfreq = CSI_VALUE;
 80050aa:	4b07      	ldr	r3, [pc, #28]	; (80050c8 <HAL_RCC_GetSysClockFreq+0x2dc>)
 80050ac:	61bb      	str	r3, [r7, #24]
    break;
 80050ae:	bf00      	nop
  }

  return sysclockfreq;
 80050b0:	69bb      	ldr	r3, [r7, #24]
}
 80050b2:	4618      	mov	r0, r3
 80050b4:	3724      	adds	r7, #36	; 0x24
 80050b6:	46bd      	mov	sp, r7
 80050b8:	f85d 7b04 	ldr.w	r7, [sp], #4
 80050bc:	4770      	bx	lr
 80050be:	bf00      	nop
 80050c0:	58024400 	.word	0x58024400
 80050c4:	03d09000 	.word	0x03d09000
 80050c8:	003d0900 	.word	0x003d0900
 80050cc:	007a1200 	.word	0x007a1200
 80050d0:	46000000 	.word	0x46000000
 80050d4:	4c742400 	.word	0x4c742400
 80050d8:	4a742400 	.word	0x4a742400
 80050dc:	4af42400 	.word	0x4af42400

080050e0 <HAL_RCC_GetHCLKFreq>:
  * @note   The SystemD2Clock CMSIS variable is used to store System domain2 Clock Frequency
  *         and updated within this function
  * @retval HCLK frequency
  */
uint32_t HAL_RCC_GetHCLKFreq(void)
{
 80050e0:	b580      	push	{r7, lr}
 80050e2:	b082      	sub	sp, #8
 80050e4:	af00      	add	r7, sp, #0
uint32_t common_system_clock;

#if defined(RCC_D1CFGR_D1CPRE)
  common_system_clock = HAL_RCC_GetSysClockFreq() >> (D1CorePrescTable[(RCC->D1CFGR & RCC_D1CFGR_D1CPRE)>> RCC_D1CFGR_D1CPRE_Pos] & 0x1FU);
#else
  common_system_clock = HAL_RCC_GetSysClockFreq() >> (D1CorePrescTable[(RCC->CDCFGR1 & RCC_CDCFGR1_CDCPRE)>> RCC_CDCFGR1_CDCPRE_Pos] & 0x1FU);
 80050e6:	f7ff fe81 	bl	8004dec <HAL_RCC_GetSysClockFreq>
 80050ea:	4602      	mov	r2, r0
 80050ec:	4b10      	ldr	r3, [pc, #64]	; (8005130 <HAL_RCC_GetHCLKFreq+0x50>)
 80050ee:	699b      	ldr	r3, [r3, #24]
 80050f0:	0a1b      	lsrs	r3, r3, #8
 80050f2:	f003 030f 	and.w	r3, r3, #15
 80050f6:	490f      	ldr	r1, [pc, #60]	; (8005134 <HAL_RCC_GetHCLKFreq+0x54>)
 80050f8:	5ccb      	ldrb	r3, [r1, r3]
 80050fa:	f003 031f 	and.w	r3, r3, #31
 80050fe:	fa22 f303 	lsr.w	r3, r2, r3
 8005102:	607b      	str	r3, [r7, #4]
#endif

#if defined(RCC_D1CFGR_HPRE)
  SystemD2Clock = (common_system_clock >> ((D1CorePrescTable[(RCC->D1CFGR & RCC_D1CFGR_HPRE)>> RCC_D1CFGR_HPRE_Pos]) & 0x1FU));
#else
  SystemD2Clock = (common_system_clock >> ((D1CorePrescTable[(RCC->CDCFGR1 & RCC_CDCFGR1_HPRE)>> RCC_CDCFGR1_HPRE_Pos]) & 0x1FU));
 8005104:	4b0a      	ldr	r3, [pc, #40]	; (8005130 <HAL_RCC_GetHCLKFreq+0x50>)
 8005106:	699b      	ldr	r3, [r3, #24]
 8005108:	f003 030f 	and.w	r3, r3, #15
 800510c:	4a09      	ldr	r2, [pc, #36]	; (8005134 <HAL_RCC_GetHCLKFreq+0x54>)
 800510e:	5cd3      	ldrb	r3, [r2, r3]
 8005110:	f003 031f 	and.w	r3, r3, #31
 8005114:	687a      	ldr	r2, [r7, #4]
 8005116:	fa22 f303 	lsr.w	r3, r2, r3
 800511a:	4a07      	ldr	r2, [pc, #28]	; (8005138 <HAL_RCC_GetHCLKFreq+0x58>)
 800511c:	6013      	str	r3, [r2, #0]
#endif

#if defined(DUAL_CORE) && defined(CORE_CM4)
  SystemCoreClock = SystemD2Clock;
#else
  SystemCoreClock = common_system_clock;
 800511e:	4a07      	ldr	r2, [pc, #28]	; (800513c <HAL_RCC_GetHCLKFreq+0x5c>)
 8005120:	687b      	ldr	r3, [r7, #4]
 8005122:	6013      	str	r3, [r2, #0]
#endif /* DUAL_CORE && CORE_CM4 */

  return SystemD2Clock;
 8005124:	4b04      	ldr	r3, [pc, #16]	; (8005138 <HAL_RCC_GetHCLKFreq+0x58>)
 8005126:	681b      	ldr	r3, [r3, #0]
}
 8005128:	4618      	mov	r0, r3
 800512a:	3708      	adds	r7, #8
 800512c:	46bd      	mov	sp, r7
 800512e:	bd80      	pop	{r7, pc}
 8005130:	58024400 	.word	0x58024400
 8005134:	0801988c 	.word	0x0801988c
 8005138:	24000074 	.word	0x24000074
 800513c:	24000070 	.word	0x24000070

08005140 <HAL_RCC_GetPCLK1Freq>:
  * @note   Each time PCLK1 changes, this function must be called to update the
  *         right PCLK1 value. Otherwise, any configuration based on this function will be incorrect.
  * @retval PCLK1 frequency
  */
uint32_t HAL_RCC_GetPCLK1Freq(void)
{
 8005140:	b580      	push	{r7, lr}
 8005142:	af00      	add	r7, sp, #0
#if defined (RCC_D2CFGR_D2PPRE1)
  /* Get HCLK source and Compute PCLK1 frequency ---------------------------*/
  return (HAL_RCC_GetHCLKFreq() >> ((D1CorePrescTable[(RCC->D2CFGR & RCC_D2CFGR_D2PPRE1)>> RCC_D2CFGR_D2PPRE1_Pos]) & 0x1FU));
#else
 /* Get HCLK source and Compute PCLK1 frequency ---------------------------*/
  return (HAL_RCC_GetHCLKFreq() >> ((D1CorePrescTable[(RCC->CDCFGR2 & RCC_CDCFGR2_CDPPRE1)>> RCC_CDCFGR2_CDPPRE1_Pos]) & 0x1FU));
 8005144:	f7ff ffcc 	bl	80050e0 <HAL_RCC_GetHCLKFreq>
 8005148:	4602      	mov	r2, r0
 800514a:	4b06      	ldr	r3, [pc, #24]	; (8005164 <HAL_RCC_GetPCLK1Freq+0x24>)
 800514c:	69db      	ldr	r3, [r3, #28]
 800514e:	091b      	lsrs	r3, r3, #4
 8005150:	f003 0307 	and.w	r3, r3, #7
 8005154:	4904      	ldr	r1, [pc, #16]	; (8005168 <HAL_RCC_GetPCLK1Freq+0x28>)
 8005156:	5ccb      	ldrb	r3, [r1, r3]
 8005158:	f003 031f 	and.w	r3, r3, #31
 800515c:	fa22 f303 	lsr.w	r3, r2, r3
#endif
}
 8005160:	4618      	mov	r0, r3
 8005162:	bd80      	pop	{r7, pc}
 8005164:	58024400 	.word	0x58024400
 8005168:	0801988c 	.word	0x0801988c

0800516c <HAL_RCC_GetPCLK2Freq>:
  * @note   Each time PCLK2 changes, this function must be called to update the
  *         right PCLK2 value. Otherwise, any configuration based on this function will be incorrect.
  * @retval PCLK1 frequency
  */
uint32_t HAL_RCC_GetPCLK2Freq(void)
{
 800516c:	b580      	push	{r7, lr}
 800516e:	af00      	add	r7, sp, #0
  /* Get HCLK source and Compute PCLK1 frequency ---------------------------*/
#if defined(RCC_D2CFGR_D2PPRE2)
  return (HAL_RCC_GetHCLKFreq() >> ((D1CorePrescTable[(RCC->D2CFGR & RCC_D2CFGR_D2PPRE2)>> RCC_D2CFGR_D2PPRE2_Pos]) & 0x1FU));
#else
  return (HAL_RCC_GetHCLKFreq() >> ((D1CorePrescTable[(RCC->CDCFGR2 & RCC_CDCFGR2_CDPPRE2)>> RCC_CDCFGR2_CDPPRE2_Pos]) & 0x1FU));
 8005170:	f7ff ffb6 	bl	80050e0 <HAL_RCC_GetHCLKFreq>
 8005174:	4602      	mov	r2, r0
 8005176:	4b06      	ldr	r3, [pc, #24]	; (8005190 <HAL_RCC_GetPCLK2Freq+0x24>)
 8005178:	69db      	ldr	r3, [r3, #28]
 800517a:	0a1b      	lsrs	r3, r3, #8
 800517c:	f003 0307 	and.w	r3, r3, #7
 8005180:	4904      	ldr	r1, [pc, #16]	; (8005194 <HAL_RCC_GetPCLK2Freq+0x28>)
 8005182:	5ccb      	ldrb	r3, [r1, r3]
 8005184:	f003 031f 	and.w	r3, r3, #31
 8005188:	fa22 f303 	lsr.w	r3, r2, r3
#endif
}
 800518c:	4618      	mov	r0, r3
 800518e:	bd80      	pop	{r7, pc}
 8005190:	58024400 	.word	0x58024400
 8005194:	0801988c 	.word	0x0801988c

08005198 <HAL_RCCEx_PeriphCLKConfig>:
  * (*) : Available on some STM32H7 lines only.
  *
  * @retval HAL status
  */
HAL_StatusTypeDef HAL_RCCEx_PeriphCLKConfig(RCC_PeriphCLKInitTypeDef  *PeriphClkInit)
{
 8005198:	b580      	push	{r7, lr}
 800519a:	b086      	sub	sp, #24
 800519c:	af00      	add	r7, sp, #0
 800519e:	6078      	str	r0, [r7, #4]
  uint32_t tmpreg;
  uint32_t tickstart;
  HAL_StatusTypeDef ret = HAL_OK;      /* Intermediate status */
 80051a0:	2300      	movs	r3, #0
 80051a2:	75fb      	strb	r3, [r7, #23]
  HAL_StatusTypeDef status = HAL_OK;   /* Final status */
 80051a4:	2300      	movs	r3, #0
 80051a6:	75bb      	strb	r3, [r7, #22]

  /*---------------------------- SPDIFRX configuration -------------------------------*/

  if(((PeriphClkInit->PeriphClockSelection) & RCC_PERIPHCLK_SPDIFRX) == RCC_PERIPHCLK_SPDIFRX)
 80051a8:	687b      	ldr	r3, [r7, #4]
 80051aa:	681b      	ldr	r3, [r3, #0]
 80051ac:	f003 6300 	and.w	r3, r3, #134217728	; 0x8000000
 80051b0:	2b00      	cmp	r3, #0
 80051b2:	d03f      	beq.n	8005234 <HAL_RCCEx_PeriphCLKConfig+0x9c>
  {

    switch(PeriphClkInit->SpdifrxClockSelection)
 80051b4:	687b      	ldr	r3, [r7, #4]
 80051b6:	6e9b      	ldr	r3, [r3, #104]	; 0x68
 80051b8:	f5b3 1f40 	cmp.w	r3, #3145728	; 0x300000
 80051bc:	d02a      	beq.n	8005214 <HAL_RCCEx_PeriphCLKConfig+0x7c>
 80051be:	f5b3 1f40 	cmp.w	r3, #3145728	; 0x300000
 80051c2:	d824      	bhi.n	800520e <HAL_RCCEx_PeriphCLKConfig+0x76>
 80051c4:	f5b3 1f00 	cmp.w	r3, #2097152	; 0x200000
 80051c8:	d018      	beq.n	80051fc <HAL_RCCEx_PeriphCLKConfig+0x64>
 80051ca:	f5b3 1f00 	cmp.w	r3, #2097152	; 0x200000
 80051ce:	d81e      	bhi.n	800520e <HAL_RCCEx_PeriphCLKConfig+0x76>
 80051d0:	2b00      	cmp	r3, #0
 80051d2:	d003      	beq.n	80051dc <HAL_RCCEx_PeriphCLKConfig+0x44>
 80051d4:	f5b3 1f80 	cmp.w	r3, #1048576	; 0x100000
 80051d8:	d007      	beq.n	80051ea <HAL_RCCEx_PeriphCLKConfig+0x52>
 80051da:	e018      	b.n	800520e <HAL_RCCEx_PeriphCLKConfig+0x76>
    {
    case RCC_SPDIFRXCLKSOURCE_PLL:      /* PLL is used as clock source for SPDIFRX*/
      /* Enable PLL1Q Clock output generated form System PLL . */
      __HAL_RCC_PLLCLKOUT_ENABLE(RCC_PLL1_DIVQ);
 80051dc:	4b9f      	ldr	r3, [pc, #636]	; (800545c <HAL_RCCEx_PeriphCLKConfig+0x2c4>)
 80051de:	6adb      	ldr	r3, [r3, #44]	; 0x2c
 80051e0:	4a9e      	ldr	r2, [pc, #632]	; (800545c <HAL_RCCEx_PeriphCLKConfig+0x2c4>)
 80051e2:	f443 3300 	orr.w	r3, r3, #131072	; 0x20000
 80051e6:	62d3      	str	r3, [r2, #44]	; 0x2c

      /* SPDIFRX clock source configuration done later after clock selection check */
      break;
 80051e8:	e015      	b.n	8005216 <HAL_RCCEx_PeriphCLKConfig+0x7e>

    case RCC_SPDIFRXCLKSOURCE_PLL2: /* PLL2 is used as clock source for SPDIFRX*/

      ret = RCCEx_PLL2_Config(&(PeriphClkInit->PLL2),DIVIDER_R_UPDATE);
 80051ea:	687b      	ldr	r3, [r7, #4]
 80051ec:	3304      	adds	r3, #4
 80051ee:	2102      	movs	r1, #2
 80051f0:	4618      	mov	r0, r3
 80051f2:	f001 f99b 	bl	800652c <RCCEx_PLL2_Config>
 80051f6:	4603      	mov	r3, r0
 80051f8:	75fb      	strb	r3, [r7, #23]

      /* SPDIFRX clock source configuration done later after clock selection check */
      break;
 80051fa:	e00c      	b.n	8005216 <HAL_RCCEx_PeriphCLKConfig+0x7e>

    case RCC_SPDIFRXCLKSOURCE_PLL3:  /* PLL3 is used as clock source for SPDIFRX*/
      ret = RCCEx_PLL3_Config(&(PeriphClkInit->PLL3),DIVIDER_R_UPDATE);
 80051fc:	687b      	ldr	r3, [r7, #4]
 80051fe:	3324      	adds	r3, #36	; 0x24
 8005200:	2102      	movs	r1, #2
 8005202:	4618      	mov	r0, r3
 8005204:	f001 fa44 	bl	8006690 <RCCEx_PLL3_Config>
 8005208:	4603      	mov	r3, r0
 800520a:	75fb      	strb	r3, [r7, #23]

      /* SPDIFRX clock source configuration done later after clock selection check */
      break;
 800520c:	e003      	b.n	8005216 <HAL_RCCEx_PeriphCLKConfig+0x7e>
      /* Internal OSC clock is used as source of SPDIFRX clock*/
      /* SPDIFRX clock source configuration done later after clock selection check */
      break;

    default:
      ret = HAL_ERROR;
 800520e:	2301      	movs	r3, #1
 8005210:	75fb      	strb	r3, [r7, #23]
      break;
 8005212:	e000      	b.n	8005216 <HAL_RCCEx_PeriphCLKConfig+0x7e>
      break;
 8005214:	bf00      	nop
    }

    if(ret == HAL_OK)
 8005216:	7dfb      	ldrb	r3, [r7, #23]
 8005218:	2b00      	cmp	r3, #0
 800521a:	d109      	bne.n	8005230 <HAL_RCCEx_PeriphCLKConfig+0x98>
    {
      /* Set the source of SPDIFRX clock*/
      __HAL_RCC_SPDIFRX_CONFIG(PeriphClkInit->SpdifrxClockSelection);
 800521c:	4b8f      	ldr	r3, [pc, #572]	; (800545c <HAL_RCCEx_PeriphCLKConfig+0x2c4>)
 800521e:	6d1b      	ldr	r3, [r3, #80]	; 0x50
 8005220:	f423 1240 	bic.w	r2, r3, #3145728	; 0x300000
 8005224:	687b      	ldr	r3, [r7, #4]
 8005226:	6e9b      	ldr	r3, [r3, #104]	; 0x68
 8005228:	498c      	ldr	r1, [pc, #560]	; (800545c <HAL_RCCEx_PeriphCLKConfig+0x2c4>)
 800522a:	4313      	orrs	r3, r2
 800522c:	650b      	str	r3, [r1, #80]	; 0x50
 800522e:	e001      	b.n	8005234 <HAL_RCCEx_PeriphCLKConfig+0x9c>
    }
    else
    {
      /* set overall return value */
      status = ret;
 8005230:	7dfb      	ldrb	r3, [r7, #23]
 8005232:	75bb      	strb	r3, [r7, #22]
    }
  }

  /*---------------------------- SAI1 configuration -------------------------------*/
  if(((PeriphClkInit->PeriphClockSelection) & RCC_PERIPHCLK_SAI1) == RCC_PERIPHCLK_SAI1)
 8005234:	687b      	ldr	r3, [r7, #4]
 8005236:	681b      	ldr	r3, [r3, #0]
 8005238:	f403 7380 	and.w	r3, r3, #256	; 0x100
 800523c:	2b00      	cmp	r3, #0
 800523e:	d03d      	beq.n	80052bc <HAL_RCCEx_PeriphCLKConfig+0x124>
  {
    switch(PeriphClkInit->Sai1ClockSelection)
 8005240:	687b      	ldr	r3, [r7, #4]
 8005242:	6d5b      	ldr	r3, [r3, #84]	; 0x54
 8005244:	2b04      	cmp	r3, #4
 8005246:	d826      	bhi.n	8005296 <HAL_RCCEx_PeriphCLKConfig+0xfe>
 8005248:	a201      	add	r2, pc, #4	; (adr r2, 8005250 <HAL_RCCEx_PeriphCLKConfig+0xb8>)
 800524a:	f852 f023 	ldr.w	pc, [r2, r3, lsl #2]
 800524e:	bf00      	nop
 8005250:	08005265 	.word	0x08005265
 8005254:	08005273 	.word	0x08005273
 8005258:	08005285 	.word	0x08005285
 800525c:	0800529d 	.word	0x0800529d
 8005260:	0800529d 	.word	0x0800529d
    {
    case RCC_SAI1CLKSOURCE_PLL:      /* PLL is used as clock source for SAI1*/
      /* Enable SAI Clock output generated form System PLL . */
      __HAL_RCC_PLLCLKOUT_ENABLE(RCC_PLL1_DIVQ);
 8005264:	4b7d      	ldr	r3, [pc, #500]	; (800545c <HAL_RCCEx_PeriphCLKConfig+0x2c4>)
 8005266:	6adb      	ldr	r3, [r3, #44]	; 0x2c
 8005268:	4a7c      	ldr	r2, [pc, #496]	; (800545c <HAL_RCCEx_PeriphCLKConfig+0x2c4>)
 800526a:	f443 3300 	orr.w	r3, r3, #131072	; 0x20000
 800526e:	62d3      	str	r3, [r2, #44]	; 0x2c

      /* SAI1 clock source configuration done later after clock selection check */
      break;
 8005270:	e015      	b.n	800529e <HAL_RCCEx_PeriphCLKConfig+0x106>

    case RCC_SAI1CLKSOURCE_PLL2: /* PLL2 is used as clock source for SAI1*/

      ret = RCCEx_PLL2_Config(&(PeriphClkInit->PLL2),DIVIDER_P_UPDATE);
 8005272:	687b      	ldr	r3, [r7, #4]
 8005274:	3304      	adds	r3, #4
 8005276:	2100      	movs	r1, #0
 8005278:	4618      	mov	r0, r3
 800527a:	f001 f957 	bl	800652c <RCCEx_PLL2_Config>
 800527e:	4603      	mov	r3, r0
 8005280:	75fb      	strb	r3, [r7, #23]

      /* SAI1 clock source configuration done later after clock selection check */
      break;
 8005282:	e00c      	b.n	800529e <HAL_RCCEx_PeriphCLKConfig+0x106>

    case RCC_SAI1CLKSOURCE_PLL3:  /* PLL3 is used as clock source for SAI1*/
      ret = RCCEx_PLL3_Config(&(PeriphClkInit->PLL3),DIVIDER_P_UPDATE);
 8005284:	687b      	ldr	r3, [r7, #4]
 8005286:	3324      	adds	r3, #36	; 0x24
 8005288:	2100      	movs	r1, #0
 800528a:	4618      	mov	r0, r3
 800528c:	f001 fa00 	bl	8006690 <RCCEx_PLL3_Config>
 8005290:	4603      	mov	r3, r0
 8005292:	75fb      	strb	r3, [r7, #23]

      /* SAI1 clock source configuration done later after clock selection check */
      break;
 8005294:	e003      	b.n	800529e <HAL_RCCEx_PeriphCLKConfig+0x106>
      /* HSI, HSE, or CSI oscillator is used as source of SAI1 clock */
      /* SAI1 clock source configuration done later after clock selection check */
      break;

    default:
      ret = HAL_ERROR;
 8005296:	2301      	movs	r3, #1
 8005298:	75fb      	strb	r3, [r7, #23]
      break;
 800529a:	e000      	b.n	800529e <HAL_RCCEx_PeriphCLKConfig+0x106>
      break;
 800529c:	bf00      	nop
    }

    if(ret == HAL_OK)
 800529e:	7dfb      	ldrb	r3, [r7, #23]
 80052a0:	2b00      	cmp	r3, #0
 80052a2:	d109      	bne.n	80052b8 <HAL_RCCEx_PeriphCLKConfig+0x120>
    {
      /* Set the source of SAI1 clock*/
      __HAL_RCC_SAI1_CONFIG(PeriphClkInit->Sai1ClockSelection);
 80052a4:	4b6d      	ldr	r3, [pc, #436]	; (800545c <HAL_RCCEx_PeriphCLKConfig+0x2c4>)
 80052a6:	6d1b      	ldr	r3, [r3, #80]	; 0x50
 80052a8:	f023 0207 	bic.w	r2, r3, #7
 80052ac:	687b      	ldr	r3, [r7, #4]
 80052ae:	6d5b      	ldr	r3, [r3, #84]	; 0x54
 80052b0:	496a      	ldr	r1, [pc, #424]	; (800545c <HAL_RCCEx_PeriphCLKConfig+0x2c4>)
 80052b2:	4313      	orrs	r3, r2
 80052b4:	650b      	str	r3, [r1, #80]	; 0x50
 80052b6:	e001      	b.n	80052bc <HAL_RCCEx_PeriphCLKConfig+0x124>
    }
    else
    {
      /* set overall return value */
      status = ret;
 80052b8:	7dfb      	ldrb	r3, [r7, #23]
 80052ba:	75bb      	strb	r3, [r7, #22]

#endif /* SAI3 */

#if defined(RCC_CDCCIP1R_SAI2ASEL)
  /*---------------------------- SAI2A configuration -------------------------------*/
  if(((PeriphClkInit->PeriphClockSelection) & RCC_PERIPHCLK_SAI2A) == RCC_PERIPHCLK_SAI2A)
 80052bc:	687b      	ldr	r3, [r7, #4]
 80052be:	681b      	ldr	r3, [r3, #0]
 80052c0:	f403 7300 	and.w	r3, r3, #512	; 0x200
 80052c4:	2b00      	cmp	r3, #0
 80052c6:	d04a      	beq.n	800535e <HAL_RCCEx_PeriphCLKConfig+0x1c6>
  {
    switch(PeriphClkInit->Sai2AClockSelection)
 80052c8:	687b      	ldr	r3, [r7, #4]
 80052ca:	6d9b      	ldr	r3, [r3, #88]	; 0x58
 80052cc:	f5b3 7fa0 	cmp.w	r3, #320	; 0x140
 80052d0:	d031      	beq.n	8005336 <HAL_RCCEx_PeriphCLKConfig+0x19e>
 80052d2:	f5b3 7fa0 	cmp.w	r3, #320	; 0x140
 80052d6:	d82b      	bhi.n	8005330 <HAL_RCCEx_PeriphCLKConfig+0x198>
 80052d8:	f5b3 7f80 	cmp.w	r3, #256	; 0x100
 80052dc:	d02d      	beq.n	800533a <HAL_RCCEx_PeriphCLKConfig+0x1a2>
 80052de:	f5b3 7f80 	cmp.w	r3, #256	; 0x100
 80052e2:	d825      	bhi.n	8005330 <HAL_RCCEx_PeriphCLKConfig+0x198>
 80052e4:	2bc0      	cmp	r3, #192	; 0xc0
 80052e6:	d02a      	beq.n	800533e <HAL_RCCEx_PeriphCLKConfig+0x1a6>
 80052e8:	2bc0      	cmp	r3, #192	; 0xc0
 80052ea:	d821      	bhi.n	8005330 <HAL_RCCEx_PeriphCLKConfig+0x198>
 80052ec:	2b80      	cmp	r3, #128	; 0x80
 80052ee:	d016      	beq.n	800531e <HAL_RCCEx_PeriphCLKConfig+0x186>
 80052f0:	2b80      	cmp	r3, #128	; 0x80
 80052f2:	d81d      	bhi.n	8005330 <HAL_RCCEx_PeriphCLKConfig+0x198>
 80052f4:	2b00      	cmp	r3, #0
 80052f6:	d002      	beq.n	80052fe <HAL_RCCEx_PeriphCLKConfig+0x166>
 80052f8:	2b40      	cmp	r3, #64	; 0x40
 80052fa:	d007      	beq.n	800530c <HAL_RCCEx_PeriphCLKConfig+0x174>
 80052fc:	e018      	b.n	8005330 <HAL_RCCEx_PeriphCLKConfig+0x198>
    {
    case RCC_SAI2ACLKSOURCE_PLL:      /* PLL is used as clock source for SAI2A */
      /* Enable SAI2A Clock output generated form System PLL . */
      __HAL_RCC_PLLCLKOUT_ENABLE(RCC_PLL1_DIVQ);
 80052fe:	4b57      	ldr	r3, [pc, #348]	; (800545c <HAL_RCCEx_PeriphCLKConfig+0x2c4>)
 8005300:	6adb      	ldr	r3, [r3, #44]	; 0x2c
 8005302:	4a56      	ldr	r2, [pc, #344]	; (800545c <HAL_RCCEx_PeriphCLKConfig+0x2c4>)
 8005304:	f443 3300 	orr.w	r3, r3, #131072	; 0x20000
 8005308:	62d3      	str	r3, [r2, #44]	; 0x2c

      /* SAI2A clock source configuration done later after clock selection check */
      break;
 800530a:	e019      	b.n	8005340 <HAL_RCCEx_PeriphCLKConfig+0x1a8>

    case RCC_SAI2ACLKSOURCE_PLL2: /* PLL2 is used as clock source for SAI2A */

      ret = RCCEx_PLL2_Config(&(PeriphClkInit->PLL2),DIVIDER_P_UPDATE);
 800530c:	687b      	ldr	r3, [r7, #4]
 800530e:	3304      	adds	r3, #4
 8005310:	2100      	movs	r1, #0
 8005312:	4618      	mov	r0, r3
 8005314:	f001 f90a 	bl	800652c <RCCEx_PLL2_Config>
 8005318:	4603      	mov	r3, r0
 800531a:	75fb      	strb	r3, [r7, #23]

      /* SAI2A clock source configuration done later after clock selection check */
      break;
 800531c:	e010      	b.n	8005340 <HAL_RCCEx_PeriphCLKConfig+0x1a8>

    case RCC_SAI2ACLKSOURCE_PLL3:  /* PLL3 is used as clock source for SAI2A */
      ret = RCCEx_PLL3_Config(&(PeriphClkInit->PLL3),DIVIDER_P_UPDATE);
 800531e:	687b      	ldr	r3, [r7, #4]
 8005320:	3324      	adds	r3, #36	; 0x24
 8005322:	2100      	movs	r1, #0
 8005324:	4618      	mov	r0, r3
 8005326:	f001 f9b3 	bl	8006690 <RCCEx_PLL3_Config>
 800532a:	4603      	mov	r3, r0
 800532c:	75fb      	strb	r3, [r7, #23]

      /* SAI2A clock source configuration done later after clock selection check */
      break;
 800532e:	e007      	b.n	8005340 <HAL_RCCEx_PeriphCLKConfig+0x1a8>
      /* SPDIF clock is used as source of SAI2A clock */
      /* SAI2A clock source configuration done later after clock selection check */
      break;

    default:
      ret = HAL_ERROR;
 8005330:	2301      	movs	r3, #1
 8005332:	75fb      	strb	r3, [r7, #23]
      break;
 8005334:	e004      	b.n	8005340 <HAL_RCCEx_PeriphCLKConfig+0x1a8>
      break;
 8005336:	bf00      	nop
 8005338:	e002      	b.n	8005340 <HAL_RCCEx_PeriphCLKConfig+0x1a8>
      break;
 800533a:	bf00      	nop
 800533c:	e000      	b.n	8005340 <HAL_RCCEx_PeriphCLKConfig+0x1a8>
      break;
 800533e:	bf00      	nop
    }

    if(ret == HAL_OK)
 8005340:	7dfb      	ldrb	r3, [r7, #23]
 8005342:	2b00      	cmp	r3, #0
 8005344:	d109      	bne.n	800535a <HAL_RCCEx_PeriphCLKConfig+0x1c2>
    {
      /* Set the source of SAI2A clock*/
      __HAL_RCC_SAI2A_CONFIG(PeriphClkInit->Sai2AClockSelection);
 8005346:	4b45      	ldr	r3, [pc, #276]	; (800545c <HAL_RCCEx_PeriphCLKConfig+0x2c4>)
 8005348:	6d1b      	ldr	r3, [r3, #80]	; 0x50
 800534a:	f423 72e0 	bic.w	r2, r3, #448	; 0x1c0
 800534e:	687b      	ldr	r3, [r7, #4]
 8005350:	6d9b      	ldr	r3, [r3, #88]	; 0x58
 8005352:	4942      	ldr	r1, [pc, #264]	; (800545c <HAL_RCCEx_PeriphCLKConfig+0x2c4>)
 8005354:	4313      	orrs	r3, r2
 8005356:	650b      	str	r3, [r1, #80]	; 0x50
 8005358:	e001      	b.n	800535e <HAL_RCCEx_PeriphCLKConfig+0x1c6>
    }
    else
    {
      /* set overall return value */
      status = ret;
 800535a:	7dfb      	ldrb	r3, [r7, #23]
 800535c:	75bb      	strb	r3, [r7, #22]
#endif  /*SAI2A*/

#if defined(RCC_CDCCIP1R_SAI2BSEL)

  /*---------------------------- SAI2B configuration -------------------------------*/
  if(((PeriphClkInit->PeriphClockSelection) & RCC_PERIPHCLK_SAI2B) == RCC_PERIPHCLK_SAI2B)
 800535e:	687b      	ldr	r3, [r7, #4]
 8005360:	681b      	ldr	r3, [r3, #0]
 8005362:	f403 6380 	and.w	r3, r3, #1024	; 0x400
 8005366:	2b00      	cmp	r3, #0
 8005368:	d04f      	beq.n	800540a <HAL_RCCEx_PeriphCLKConfig+0x272>
  {
    switch(PeriphClkInit->Sai2BClockSelection)
 800536a:	687b      	ldr	r3, [r7, #4]
 800536c:	6ddb      	ldr	r3, [r3, #92]	; 0x5c
 800536e:	f5b3 6f20 	cmp.w	r3, #2560	; 0xa00
 8005372:	d036      	beq.n	80053e2 <HAL_RCCEx_PeriphCLKConfig+0x24a>
 8005374:	f5b3 6f20 	cmp.w	r3, #2560	; 0xa00
 8005378:	d830      	bhi.n	80053dc <HAL_RCCEx_PeriphCLKConfig+0x244>
 800537a:	f5b3 6f00 	cmp.w	r3, #2048	; 0x800
 800537e:	d032      	beq.n	80053e6 <HAL_RCCEx_PeriphCLKConfig+0x24e>
 8005380:	f5b3 6f00 	cmp.w	r3, #2048	; 0x800
 8005384:	d82a      	bhi.n	80053dc <HAL_RCCEx_PeriphCLKConfig+0x244>
 8005386:	f5b3 6fc0 	cmp.w	r3, #1536	; 0x600
 800538a:	d02e      	beq.n	80053ea <HAL_RCCEx_PeriphCLKConfig+0x252>
 800538c:	f5b3 6fc0 	cmp.w	r3, #1536	; 0x600
 8005390:	d824      	bhi.n	80053dc <HAL_RCCEx_PeriphCLKConfig+0x244>
 8005392:	f5b3 6f80 	cmp.w	r3, #1024	; 0x400
 8005396:	d018      	beq.n	80053ca <HAL_RCCEx_PeriphCLKConfig+0x232>
 8005398:	f5b3 6f80 	cmp.w	r3, #1024	; 0x400
 800539c:	d81e      	bhi.n	80053dc <HAL_RCCEx_PeriphCLKConfig+0x244>
 800539e:	2b00      	cmp	r3, #0
 80053a0:	d003      	beq.n	80053aa <HAL_RCCEx_PeriphCLKConfig+0x212>
 80053a2:	f5b3 7f00 	cmp.w	r3, #512	; 0x200
 80053a6:	d007      	beq.n	80053b8 <HAL_RCCEx_PeriphCLKConfig+0x220>
 80053a8:	e018      	b.n	80053dc <HAL_RCCEx_PeriphCLKConfig+0x244>
    {
    case RCC_SAI2BCLKSOURCE_PLL:      /* PLL is used as clock source for SAI2B */
      /* Enable SAI Clock output generated form System PLL . */
      __HAL_RCC_PLLCLKOUT_ENABLE(RCC_PLL1_DIVQ);
 80053aa:	4b2c      	ldr	r3, [pc, #176]	; (800545c <HAL_RCCEx_PeriphCLKConfig+0x2c4>)
 80053ac:	6adb      	ldr	r3, [r3, #44]	; 0x2c
 80053ae:	4a2b      	ldr	r2, [pc, #172]	; (800545c <HAL_RCCEx_PeriphCLKConfig+0x2c4>)
 80053b0:	f443 3300 	orr.w	r3, r3, #131072	; 0x20000
 80053b4:	62d3      	str	r3, [r2, #44]	; 0x2c

      /* SAI2B clock source configuration done later after clock selection check */
      break;
 80053b6:	e019      	b.n	80053ec <HAL_RCCEx_PeriphCLKConfig+0x254>

    case RCC_SAI2BCLKSOURCE_PLL2: /* PLL2 is used as clock source for SAI2B */

      ret = RCCEx_PLL2_Config(&(PeriphClkInit->PLL2),DIVIDER_P_UPDATE);
 80053b8:	687b      	ldr	r3, [r7, #4]
 80053ba:	3304      	adds	r3, #4
 80053bc:	2100      	movs	r1, #0
 80053be:	4618      	mov	r0, r3
 80053c0:	f001 f8b4 	bl	800652c <RCCEx_PLL2_Config>
 80053c4:	4603      	mov	r3, r0
 80053c6:	75fb      	strb	r3, [r7, #23]

      /* SAI2B clock source configuration done later after clock selection check */
      break;
 80053c8:	e010      	b.n	80053ec <HAL_RCCEx_PeriphCLKConfig+0x254>

    case RCC_SAI2BCLKSOURCE_PLL3:  /* PLL3 is used as clock source for SAI2B */
      ret = RCCEx_PLL3_Config(&(PeriphClkInit->PLL3),DIVIDER_P_UPDATE);
 80053ca:	687b      	ldr	r3, [r7, #4]
 80053cc:	3324      	adds	r3, #36	; 0x24
 80053ce:	2100      	movs	r1, #0
 80053d0:	4618      	mov	r0, r3
 80053d2:	f001 f95d 	bl	8006690 <RCCEx_PLL3_Config>
 80053d6:	4603      	mov	r3, r0
 80053d8:	75fb      	strb	r3, [r7, #23]

      /* SAI2B clock source configuration done later after clock selection check */
      break;
 80053da:	e007      	b.n	80053ec <HAL_RCCEx_PeriphCLKConfig+0x254>
      /* SPDIF clock is used as source of SAI2B clock */
      /* SAI2B clock source configuration done later after clock selection check */
      break;

    default:
      ret = HAL_ERROR;
 80053dc:	2301      	movs	r3, #1
 80053de:	75fb      	strb	r3, [r7, #23]
      break;
 80053e0:	e004      	b.n	80053ec <HAL_RCCEx_PeriphCLKConfig+0x254>
      break;
 80053e2:	bf00      	nop
 80053e4:	e002      	b.n	80053ec <HAL_RCCEx_PeriphCLKConfig+0x254>
      break;
 80053e6:	bf00      	nop
 80053e8:	e000      	b.n	80053ec <HAL_RCCEx_PeriphCLKConfig+0x254>
      break;
 80053ea:	bf00      	nop
    }

    if(ret == HAL_OK)
 80053ec:	7dfb      	ldrb	r3, [r7, #23]
 80053ee:	2b00      	cmp	r3, #0
 80053f0:	d109      	bne.n	8005406 <HAL_RCCEx_PeriphCLKConfig+0x26e>
    {
      /* Set the source of SAI2B clock*/
      __HAL_RCC_SAI2B_CONFIG(PeriphClkInit->Sai2BClockSelection);
 80053f2:	4b1a      	ldr	r3, [pc, #104]	; (800545c <HAL_RCCEx_PeriphCLKConfig+0x2c4>)
 80053f4:	6d1b      	ldr	r3, [r3, #80]	; 0x50
 80053f6:	f423 6260 	bic.w	r2, r3, #3584	; 0xe00
 80053fa:	687b      	ldr	r3, [r7, #4]
 80053fc:	6ddb      	ldr	r3, [r3, #92]	; 0x5c
 80053fe:	4917      	ldr	r1, [pc, #92]	; (800545c <HAL_RCCEx_PeriphCLKConfig+0x2c4>)
 8005400:	4313      	orrs	r3, r2
 8005402:	650b      	str	r3, [r1, #80]	; 0x50
 8005404:	e001      	b.n	800540a <HAL_RCCEx_PeriphCLKConfig+0x272>
    }
    else
    {
      /* set overall return value */
      status = ret;
 8005406:	7dfb      	ldrb	r3, [r7, #23]
 8005408:	75bb      	strb	r3, [r7, #22]
  }
#endif  /*QUADSPI*/

#if defined(OCTOSPI1) || defined(OCTOSPI2)
  /*---------------------------- OCTOSPI configuration -------------------------------*/
  if(((PeriphClkInit->PeriphClockSelection) & RCC_PERIPHCLK_OSPI) == RCC_PERIPHCLK_OSPI)
 800540a:	687b      	ldr	r3, [r7, #4]
 800540c:	681b      	ldr	r3, [r3, #0]
 800540e:	f003 7300 	and.w	r3, r3, #33554432	; 0x2000000
 8005412:	2b00      	cmp	r3, #0
 8005414:	d034      	beq.n	8005480 <HAL_RCCEx_PeriphCLKConfig+0x2e8>
  {
    switch(PeriphClkInit->OspiClockSelection)
 8005416:	687b      	ldr	r3, [r7, #4]
 8005418:	6c9b      	ldr	r3, [r3, #72]	; 0x48
 800541a:	2b30      	cmp	r3, #48	; 0x30
 800541c:	d01c      	beq.n	8005458 <HAL_RCCEx_PeriphCLKConfig+0x2c0>
 800541e:	2b30      	cmp	r3, #48	; 0x30
 8005420:	d817      	bhi.n	8005452 <HAL_RCCEx_PeriphCLKConfig+0x2ba>
 8005422:	2b20      	cmp	r3, #32
 8005424:	d00c      	beq.n	8005440 <HAL_RCCEx_PeriphCLKConfig+0x2a8>
 8005426:	2b20      	cmp	r3, #32
 8005428:	d813      	bhi.n	8005452 <HAL_RCCEx_PeriphCLKConfig+0x2ba>
 800542a:	2b00      	cmp	r3, #0
 800542c:	d018      	beq.n	8005460 <HAL_RCCEx_PeriphCLKConfig+0x2c8>
 800542e:	2b10      	cmp	r3, #16
 8005430:	d10f      	bne.n	8005452 <HAL_RCCEx_PeriphCLKConfig+0x2ba>
    {
    case RCC_OSPICLKSOURCE_PLL:      /* PLL is used as clock source for OSPI*/
      /* Enable OSPI Clock output generated form System PLL . */
      __HAL_RCC_PLLCLKOUT_ENABLE(RCC_PLL1_DIVQ);
 8005432:	4b0a      	ldr	r3, [pc, #40]	; (800545c <HAL_RCCEx_PeriphCLKConfig+0x2c4>)
 8005434:	6adb      	ldr	r3, [r3, #44]	; 0x2c
 8005436:	4a09      	ldr	r2, [pc, #36]	; (800545c <HAL_RCCEx_PeriphCLKConfig+0x2c4>)
 8005438:	f443 3300 	orr.w	r3, r3, #131072	; 0x20000
 800543c:	62d3      	str	r3, [r2, #44]	; 0x2c

      /* OSPI clock source configuration done later after clock selection check */
      break;
 800543e:	e010      	b.n	8005462 <HAL_RCCEx_PeriphCLKConfig+0x2ca>

    case RCC_OSPICLKSOURCE_PLL2: /* PLL2 is used as clock source for OSPI*/

      ret = RCCEx_PLL2_Config(&(PeriphClkInit->PLL2),DIVIDER_R_UPDATE);
 8005440:	687b      	ldr	r3, [r7, #4]
 8005442:	3304      	adds	r3, #4
 8005444:	2102      	movs	r1, #2
 8005446:	4618      	mov	r0, r3
 8005448:	f001 f870 	bl	800652c <RCCEx_PLL2_Config>
 800544c:	4603      	mov	r3, r0
 800544e:	75fb      	strb	r3, [r7, #23]

      /* OSPI clock source configuration done later after clock selection check */
      break;
 8005450:	e007      	b.n	8005462 <HAL_RCCEx_PeriphCLKConfig+0x2ca>
    case RCC_OSPICLKSOURCE_HCLK:
      /* HCLK clock selected as OSPI kernel peripheral clock */
      break;

    default:
      ret = HAL_ERROR;
 8005452:	2301      	movs	r3, #1
 8005454:	75fb      	strb	r3, [r7, #23]
      break;
 8005456:	e004      	b.n	8005462 <HAL_RCCEx_PeriphCLKConfig+0x2ca>
      break;
 8005458:	bf00      	nop
 800545a:	e002      	b.n	8005462 <HAL_RCCEx_PeriphCLKConfig+0x2ca>
 800545c:	58024400 	.word	0x58024400
      break;
 8005460:	bf00      	nop
    }

    if(ret == HAL_OK)
 8005462:	7dfb      	ldrb	r3, [r7, #23]
 8005464:	2b00      	cmp	r3, #0
 8005466:	d109      	bne.n	800547c <HAL_RCCEx_PeriphCLKConfig+0x2e4>
    {
      /* Set the source of OSPI clock*/
      __HAL_RCC_OSPI_CONFIG(PeriphClkInit->OspiClockSelection);
 8005468:	4b9b      	ldr	r3, [pc, #620]	; (80056d8 <HAL_RCCEx_PeriphCLKConfig+0x540>)
 800546a:	6cdb      	ldr	r3, [r3, #76]	; 0x4c
 800546c:	f023 0230 	bic.w	r2, r3, #48	; 0x30
 8005470:	687b      	ldr	r3, [r7, #4]
 8005472:	6c9b      	ldr	r3, [r3, #72]	; 0x48
 8005474:	4998      	ldr	r1, [pc, #608]	; (80056d8 <HAL_RCCEx_PeriphCLKConfig+0x540>)
 8005476:	4313      	orrs	r3, r2
 8005478:	64cb      	str	r3, [r1, #76]	; 0x4c
 800547a:	e001      	b.n	8005480 <HAL_RCCEx_PeriphCLKConfig+0x2e8>
    }
    else
    {
      /* set overall return value */
      status = ret;
 800547c:	7dfb      	ldrb	r3, [r7, #23]
 800547e:	75bb      	strb	r3, [r7, #22]
    }
  }
#endif  /*OCTOSPI*/

  /*---------------------------- SPI1/2/3 configuration -------------------------------*/
  if(((PeriphClkInit->PeriphClockSelection) & RCC_PERIPHCLK_SPI123) == RCC_PERIPHCLK_SPI123)
 8005480:	687b      	ldr	r3, [r7, #4]
 8005482:	681b      	ldr	r3, [r3, #0]
 8005484:	f403 5380 	and.w	r3, r3, #4096	; 0x1000
 8005488:	2b00      	cmp	r3, #0
 800548a:	d047      	beq.n	800551c <HAL_RCCEx_PeriphCLKConfig+0x384>
  {
    switch(PeriphClkInit->Spi123ClockSelection)
 800548c:	687b      	ldr	r3, [r7, #4]
 800548e:	6e1b      	ldr	r3, [r3, #96]	; 0x60
 8005490:	f5b3 4f80 	cmp.w	r3, #16384	; 0x4000
 8005494:	d030      	beq.n	80054f8 <HAL_RCCEx_PeriphCLKConfig+0x360>
 8005496:	f5b3 4f80 	cmp.w	r3, #16384	; 0x4000
 800549a:	d82a      	bhi.n	80054f2 <HAL_RCCEx_PeriphCLKConfig+0x35a>
 800549c:	f5b3 5f40 	cmp.w	r3, #12288	; 0x3000
 80054a0:	d02c      	beq.n	80054fc <HAL_RCCEx_PeriphCLKConfig+0x364>
 80054a2:	f5b3 5f40 	cmp.w	r3, #12288	; 0x3000
 80054a6:	d824      	bhi.n	80054f2 <HAL_RCCEx_PeriphCLKConfig+0x35a>
 80054a8:	f5b3 5f00 	cmp.w	r3, #8192	; 0x2000
 80054ac:	d018      	beq.n	80054e0 <HAL_RCCEx_PeriphCLKConfig+0x348>
 80054ae:	f5b3 5f00 	cmp.w	r3, #8192	; 0x2000
 80054b2:	d81e      	bhi.n	80054f2 <HAL_RCCEx_PeriphCLKConfig+0x35a>
 80054b4:	2b00      	cmp	r3, #0
 80054b6:	d003      	beq.n	80054c0 <HAL_RCCEx_PeriphCLKConfig+0x328>
 80054b8:	f5b3 5f80 	cmp.w	r3, #4096	; 0x1000
 80054bc:	d007      	beq.n	80054ce <HAL_RCCEx_PeriphCLKConfig+0x336>
 80054be:	e018      	b.n	80054f2 <HAL_RCCEx_PeriphCLKConfig+0x35a>
    {
    case RCC_SPI123CLKSOURCE_PLL:      /* PLL is used as clock source for SPI1/2/3 */
      /* Enable SPI Clock output generated form System PLL . */
      __HAL_RCC_PLLCLKOUT_ENABLE(RCC_PLL1_DIVQ);
 80054c0:	4b85      	ldr	r3, [pc, #532]	; (80056d8 <HAL_RCCEx_PeriphCLKConfig+0x540>)
 80054c2:	6adb      	ldr	r3, [r3, #44]	; 0x2c
 80054c4:	4a84      	ldr	r2, [pc, #528]	; (80056d8 <HAL_RCCEx_PeriphCLKConfig+0x540>)
 80054c6:	f443 3300 	orr.w	r3, r3, #131072	; 0x20000
 80054ca:	62d3      	str	r3, [r2, #44]	; 0x2c

      /* SPI1/2/3 clock source configuration done later after clock selection check */
      break;
 80054cc:	e017      	b.n	80054fe <HAL_RCCEx_PeriphCLKConfig+0x366>

    case RCC_SPI123CLKSOURCE_PLL2: /* PLL2 is used as clock source for SPI1/2/3 */
      ret = RCCEx_PLL2_Config(&(PeriphClkInit->PLL2),DIVIDER_P_UPDATE);
 80054ce:	687b      	ldr	r3, [r7, #4]
 80054d0:	3304      	adds	r3, #4
 80054d2:	2100      	movs	r1, #0
 80054d4:	4618      	mov	r0, r3
 80054d6:	f001 f829 	bl	800652c <RCCEx_PLL2_Config>
 80054da:	4603      	mov	r3, r0
 80054dc:	75fb      	strb	r3, [r7, #23]

      /* SPI1/2/3 clock source configuration done later after clock selection check */
      break;
 80054de:	e00e      	b.n	80054fe <HAL_RCCEx_PeriphCLKConfig+0x366>

    case RCC_SPI123CLKSOURCE_PLL3:  /* PLL3 is used as clock source for SPI1/2/3 */
      ret = RCCEx_PLL3_Config(&(PeriphClkInit->PLL3),DIVIDER_P_UPDATE);
 80054e0:	687b      	ldr	r3, [r7, #4]
 80054e2:	3324      	adds	r3, #36	; 0x24
 80054e4:	2100      	movs	r1, #0
 80054e6:	4618      	mov	r0, r3
 80054e8:	f001 f8d2 	bl	8006690 <RCCEx_PLL3_Config>
 80054ec:	4603      	mov	r3, r0
 80054ee:	75fb      	strb	r3, [r7, #23]

      /* SPI1/2/3 clock source configuration done later after clock selection check */
      break;
 80054f0:	e005      	b.n	80054fe <HAL_RCCEx_PeriphCLKConfig+0x366>
      /* HSI, HSE, or CSI oscillator is used as source of SPI1/2/3 clock */
      /* SPI1/2/3 clock source configuration done later after clock selection check */
      break;

    default:
      ret = HAL_ERROR;
 80054f2:	2301      	movs	r3, #1
 80054f4:	75fb      	strb	r3, [r7, #23]
      break;
 80054f6:	e002      	b.n	80054fe <HAL_RCCEx_PeriphCLKConfig+0x366>
      break;
 80054f8:	bf00      	nop
 80054fa:	e000      	b.n	80054fe <HAL_RCCEx_PeriphCLKConfig+0x366>
      break;
 80054fc:	bf00      	nop
    }

    if(ret == HAL_OK)
 80054fe:	7dfb      	ldrb	r3, [r7, #23]
 8005500:	2b00      	cmp	r3, #0
 8005502:	d109      	bne.n	8005518 <HAL_RCCEx_PeriphCLKConfig+0x380>
    {
      /* Set the source of SPI1/2/3 clock*/
      __HAL_RCC_SPI123_CONFIG(PeriphClkInit->Spi123ClockSelection);
 8005504:	4b74      	ldr	r3, [pc, #464]	; (80056d8 <HAL_RCCEx_PeriphCLKConfig+0x540>)
 8005506:	6d1b      	ldr	r3, [r3, #80]	; 0x50
 8005508:	f423 42e0 	bic.w	r2, r3, #28672	; 0x7000
 800550c:	687b      	ldr	r3, [r7, #4]
 800550e:	6e1b      	ldr	r3, [r3, #96]	; 0x60
 8005510:	4971      	ldr	r1, [pc, #452]	; (80056d8 <HAL_RCCEx_PeriphCLKConfig+0x540>)
 8005512:	4313      	orrs	r3, r2
 8005514:	650b      	str	r3, [r1, #80]	; 0x50
 8005516:	e001      	b.n	800551c <HAL_RCCEx_PeriphCLKConfig+0x384>
    }
    else
    {
      /* set overall return value */
      status = ret;
 8005518:	7dfb      	ldrb	r3, [r7, #23]
 800551a:	75bb      	strb	r3, [r7, #22]
    }
  }

  /*---------------------------- SPI4/5 configuration -------------------------------*/
  if(((PeriphClkInit->PeriphClockSelection) & RCC_PERIPHCLK_SPI45) == RCC_PERIPHCLK_SPI45)
 800551c:	687b      	ldr	r3, [r7, #4]
 800551e:	681b      	ldr	r3, [r3, #0]
 8005520:	f403 5300 	and.w	r3, r3, #8192	; 0x2000
 8005524:	2b00      	cmp	r3, #0
 8005526:	d049      	beq.n	80055bc <HAL_RCCEx_PeriphCLKConfig+0x424>
  {
    switch(PeriphClkInit->Spi45ClockSelection)
 8005528:	687b      	ldr	r3, [r7, #4]
 800552a:	6e5b      	ldr	r3, [r3, #100]	; 0x64
 800552c:	f5b3 2fa0 	cmp.w	r3, #327680	; 0x50000
 8005530:	d02e      	beq.n	8005590 <HAL_RCCEx_PeriphCLKConfig+0x3f8>
 8005532:	f5b3 2fa0 	cmp.w	r3, #327680	; 0x50000
 8005536:	d828      	bhi.n	800558a <HAL_RCCEx_PeriphCLKConfig+0x3f2>
 8005538:	f5b3 2f80 	cmp.w	r3, #262144	; 0x40000
 800553c:	d02a      	beq.n	8005594 <HAL_RCCEx_PeriphCLKConfig+0x3fc>
 800553e:	f5b3 2f80 	cmp.w	r3, #262144	; 0x40000
 8005542:	d822      	bhi.n	800558a <HAL_RCCEx_PeriphCLKConfig+0x3f2>
 8005544:	f5b3 3f40 	cmp.w	r3, #196608	; 0x30000
 8005548:	d026      	beq.n	8005598 <HAL_RCCEx_PeriphCLKConfig+0x400>
 800554a:	f5b3 3f40 	cmp.w	r3, #196608	; 0x30000
 800554e:	d81c      	bhi.n	800558a <HAL_RCCEx_PeriphCLKConfig+0x3f2>
 8005550:	f5b3 3f00 	cmp.w	r3, #131072	; 0x20000
 8005554:	d010      	beq.n	8005578 <HAL_RCCEx_PeriphCLKConfig+0x3e0>
 8005556:	f5b3 3f00 	cmp.w	r3, #131072	; 0x20000
 800555a:	d816      	bhi.n	800558a <HAL_RCCEx_PeriphCLKConfig+0x3f2>
 800555c:	2b00      	cmp	r3, #0
 800555e:	d01d      	beq.n	800559c <HAL_RCCEx_PeriphCLKConfig+0x404>
 8005560:	f5b3 3f80 	cmp.w	r3, #65536	; 0x10000
 8005564:	d111      	bne.n	800558a <HAL_RCCEx_PeriphCLKConfig+0x3f2>
      /* SPI4/5 clock source configuration done later after clock selection check */
      break;

    case RCC_SPI45CLKSOURCE_PLL2: /* PLL2 is used as clock source for SPI4/5 */

      ret = RCCEx_PLL2_Config(&(PeriphClkInit->PLL2),DIVIDER_Q_UPDATE);
 8005566:	687b      	ldr	r3, [r7, #4]
 8005568:	3304      	adds	r3, #4
 800556a:	2101      	movs	r1, #1
 800556c:	4618      	mov	r0, r3
 800556e:	f000 ffdd 	bl	800652c <RCCEx_PLL2_Config>
 8005572:	4603      	mov	r3, r0
 8005574:	75fb      	strb	r3, [r7, #23]

      /* SPI4/5 clock source configuration done later after clock selection check */
      break;
 8005576:	e012      	b.n	800559e <HAL_RCCEx_PeriphCLKConfig+0x406>
    case RCC_SPI45CLKSOURCE_PLL3:  /* PLL3 is used as clock source for SPI4/5 */
      ret = RCCEx_PLL3_Config(&(PeriphClkInit->PLL3),DIVIDER_Q_UPDATE);
 8005578:	687b      	ldr	r3, [r7, #4]
 800557a:	3324      	adds	r3, #36	; 0x24
 800557c:	2101      	movs	r1, #1
 800557e:	4618      	mov	r0, r3
 8005580:	f001 f886 	bl	8006690 <RCCEx_PLL3_Config>
 8005584:	4603      	mov	r3, r0
 8005586:	75fb      	strb	r3, [r7, #23]
      /* SPI4/5 clock source configuration done later after clock selection check */
      break;
 8005588:	e009      	b.n	800559e <HAL_RCCEx_PeriphCLKConfig+0x406>
      /* HSE,  oscillator is used as source of SPI4/5 clock */
      /* SPI4/5 clock source configuration done later after clock selection check */
      break;

    default:
      ret = HAL_ERROR;
 800558a:	2301      	movs	r3, #1
 800558c:	75fb      	strb	r3, [r7, #23]
      break;
 800558e:	e006      	b.n	800559e <HAL_RCCEx_PeriphCLKConfig+0x406>
      break;
 8005590:	bf00      	nop
 8005592:	e004      	b.n	800559e <HAL_RCCEx_PeriphCLKConfig+0x406>
      break;
 8005594:	bf00      	nop
 8005596:	e002      	b.n	800559e <HAL_RCCEx_PeriphCLKConfig+0x406>
      break;
 8005598:	bf00      	nop
 800559a:	e000      	b.n	800559e <HAL_RCCEx_PeriphCLKConfig+0x406>
      break;
 800559c:	bf00      	nop
    }

    if(ret == HAL_OK)
 800559e:	7dfb      	ldrb	r3, [r7, #23]
 80055a0:	2b00      	cmp	r3, #0
 80055a2:	d109      	bne.n	80055b8 <HAL_RCCEx_PeriphCLKConfig+0x420>
    {
      /* Set the source of SPI4/5 clock*/
      __HAL_RCC_SPI45_CONFIG(PeriphClkInit->Spi45ClockSelection);
 80055a4:	4b4c      	ldr	r3, [pc, #304]	; (80056d8 <HAL_RCCEx_PeriphCLKConfig+0x540>)
 80055a6:	6d1b      	ldr	r3, [r3, #80]	; 0x50
 80055a8:	f423 22e0 	bic.w	r2, r3, #458752	; 0x70000
 80055ac:	687b      	ldr	r3, [r7, #4]
 80055ae:	6e5b      	ldr	r3, [r3, #100]	; 0x64
 80055b0:	4949      	ldr	r1, [pc, #292]	; (80056d8 <HAL_RCCEx_PeriphCLKConfig+0x540>)
 80055b2:	4313      	orrs	r3, r2
 80055b4:	650b      	str	r3, [r1, #80]	; 0x50
 80055b6:	e001      	b.n	80055bc <HAL_RCCEx_PeriphCLKConfig+0x424>
    }
    else
    {
      /* set overall return value */
      status = ret;
 80055b8:	7dfb      	ldrb	r3, [r7, #23]
 80055ba:	75bb      	strb	r3, [r7, #22]
    }
  }

  /*---------------------------- SPI6 configuration -------------------------------*/
  if(((PeriphClkInit->PeriphClockSelection) & RCC_PERIPHCLK_SPI6) == RCC_PERIPHCLK_SPI6)
 80055bc:	687b      	ldr	r3, [r7, #4]
 80055be:	681b      	ldr	r3, [r3, #0]
 80055c0:	f403 4380 	and.w	r3, r3, #16384	; 0x4000
 80055c4:	2b00      	cmp	r3, #0
 80055c6:	d053      	beq.n	8005670 <HAL_RCCEx_PeriphCLKConfig+0x4d8>
  {
    switch(PeriphClkInit->Spi6ClockSelection)
 80055c8:	687b      	ldr	r3, [r7, #4]
 80055ca:	f8d3 30ac 	ldr.w	r3, [r3, #172]	; 0xac
 80055ce:	f1b3 4fc0 	cmp.w	r3, #1610612736	; 0x60000000
 80055d2:	d034      	beq.n	800563e <HAL_RCCEx_PeriphCLKConfig+0x4a6>
 80055d4:	f1b3 4fc0 	cmp.w	r3, #1610612736	; 0x60000000
 80055d8:	d82e      	bhi.n	8005638 <HAL_RCCEx_PeriphCLKConfig+0x4a0>
 80055da:	f1b3 4fa0 	cmp.w	r3, #1342177280	; 0x50000000
 80055de:	d030      	beq.n	8005642 <HAL_RCCEx_PeriphCLKConfig+0x4aa>
 80055e0:	f1b3 4fa0 	cmp.w	r3, #1342177280	; 0x50000000
 80055e4:	d828      	bhi.n	8005638 <HAL_RCCEx_PeriphCLKConfig+0x4a0>
 80055e6:	f1b3 4f80 	cmp.w	r3, #1073741824	; 0x40000000
 80055ea:	d02c      	beq.n	8005646 <HAL_RCCEx_PeriphCLKConfig+0x4ae>
 80055ec:	f1b3 4f80 	cmp.w	r3, #1073741824	; 0x40000000
 80055f0:	d822      	bhi.n	8005638 <HAL_RCCEx_PeriphCLKConfig+0x4a0>
 80055f2:	f1b3 5f40 	cmp.w	r3, #805306368	; 0x30000000
 80055f6:	d028      	beq.n	800564a <HAL_RCCEx_PeriphCLKConfig+0x4b2>
 80055f8:	f1b3 5f40 	cmp.w	r3, #805306368	; 0x30000000
 80055fc:	d81c      	bhi.n	8005638 <HAL_RCCEx_PeriphCLKConfig+0x4a0>
 80055fe:	f1b3 5f00 	cmp.w	r3, #536870912	; 0x20000000
 8005602:	d010      	beq.n	8005626 <HAL_RCCEx_PeriphCLKConfig+0x48e>
 8005604:	f1b3 5f00 	cmp.w	r3, #536870912	; 0x20000000
 8005608:	d816      	bhi.n	8005638 <HAL_RCCEx_PeriphCLKConfig+0x4a0>
 800560a:	2b00      	cmp	r3, #0
 800560c:	d01f      	beq.n	800564e <HAL_RCCEx_PeriphCLKConfig+0x4b6>
 800560e:	f1b3 5f80 	cmp.w	r3, #268435456	; 0x10000000
 8005612:	d111      	bne.n	8005638 <HAL_RCCEx_PeriphCLKConfig+0x4a0>
      /* SPI6 clock source configuration done later after clock selection check */
      break;

    case RCC_SPI6CLKSOURCE_PLL2: /* PLL2 is used as clock source for SPI6*/

      ret = RCCEx_PLL2_Config(&(PeriphClkInit->PLL2),DIVIDER_Q_UPDATE);
 8005614:	687b      	ldr	r3, [r7, #4]
 8005616:	3304      	adds	r3, #4
 8005618:	2101      	movs	r1, #1
 800561a:	4618      	mov	r0, r3
 800561c:	f000 ff86 	bl	800652c <RCCEx_PLL2_Config>
 8005620:	4603      	mov	r3, r0
 8005622:	75fb      	strb	r3, [r7, #23]

      /* SPI6 clock source configuration done later after clock selection check */
      break;
 8005624:	e014      	b.n	8005650 <HAL_RCCEx_PeriphCLKConfig+0x4b8>
    case RCC_SPI6CLKSOURCE_PLL3:  /* PLL3 is used as clock source for SPI6*/
      ret = RCCEx_PLL3_Config(&(PeriphClkInit->PLL3),DIVIDER_Q_UPDATE);
 8005626:	687b      	ldr	r3, [r7, #4]
 8005628:	3324      	adds	r3, #36	; 0x24
 800562a:	2101      	movs	r1, #1
 800562c:	4618      	mov	r0, r3
 800562e:	f001 f82f 	bl	8006690 <RCCEx_PLL3_Config>
 8005632:	4603      	mov	r3, r0
 8005634:	75fb      	strb	r3, [r7, #23]
      /* SPI6 clock source configuration done later after clock selection check */
      break;
 8005636:	e00b      	b.n	8005650 <HAL_RCCEx_PeriphCLKConfig+0x4b8>
      /* SPI6 clock source configuration done later after clock selection check */
      break;
#endif

    default:
      ret = HAL_ERROR;
 8005638:	2301      	movs	r3, #1
 800563a:	75fb      	strb	r3, [r7, #23]
      break;
 800563c:	e008      	b.n	8005650 <HAL_RCCEx_PeriphCLKConfig+0x4b8>
      break;
 800563e:	bf00      	nop
 8005640:	e006      	b.n	8005650 <HAL_RCCEx_PeriphCLKConfig+0x4b8>
      break;
 8005642:	bf00      	nop
 8005644:	e004      	b.n	8005650 <HAL_RCCEx_PeriphCLKConfig+0x4b8>
      break;
 8005646:	bf00      	nop
 8005648:	e002      	b.n	8005650 <HAL_RCCEx_PeriphCLKConfig+0x4b8>
      break;
 800564a:	bf00      	nop
 800564c:	e000      	b.n	8005650 <HAL_RCCEx_PeriphCLKConfig+0x4b8>
      break;
 800564e:	bf00      	nop
    }

    if(ret == HAL_OK)
 8005650:	7dfb      	ldrb	r3, [r7, #23]
 8005652:	2b00      	cmp	r3, #0
 8005654:	d10a      	bne.n	800566c <HAL_RCCEx_PeriphCLKConfig+0x4d4>
    {
      /* Set the source of SPI6 clock*/
      __HAL_RCC_SPI6_CONFIG(PeriphClkInit->Spi6ClockSelection);
 8005656:	4b20      	ldr	r3, [pc, #128]	; (80056d8 <HAL_RCCEx_PeriphCLKConfig+0x540>)
 8005658:	6d9b      	ldr	r3, [r3, #88]	; 0x58
 800565a:	f023 42e0 	bic.w	r2, r3, #1879048192	; 0x70000000
 800565e:	687b      	ldr	r3, [r7, #4]
 8005660:	f8d3 30ac 	ldr.w	r3, [r3, #172]	; 0xac
 8005664:	491c      	ldr	r1, [pc, #112]	; (80056d8 <HAL_RCCEx_PeriphCLKConfig+0x540>)
 8005666:	4313      	orrs	r3, r2
 8005668:	658b      	str	r3, [r1, #88]	; 0x58
 800566a:	e001      	b.n	8005670 <HAL_RCCEx_PeriphCLKConfig+0x4d8>
    }
    else
    {
      /* set overall return value */
      status = ret;
 800566c:	7dfb      	ldrb	r3, [r7, #23]
 800566e:	75bb      	strb	r3, [r7, #22]
  }
#endif /*DSI*/

#if defined(FDCAN1) || defined(FDCAN2)
  /*---------------------------- FDCAN configuration -------------------------------*/
  if(((PeriphClkInit->PeriphClockSelection) & RCC_PERIPHCLK_FDCAN) == RCC_PERIPHCLK_FDCAN)
 8005670:	687b      	ldr	r3, [r7, #4]
 8005672:	681b      	ldr	r3, [r3, #0]
 8005674:	f403 4300 	and.w	r3, r3, #32768	; 0x8000
 8005678:	2b00      	cmp	r3, #0
 800567a:	d031      	beq.n	80056e0 <HAL_RCCEx_PeriphCLKConfig+0x548>
  {
    switch(PeriphClkInit->FdcanClockSelection)
 800567c:	687b      	ldr	r3, [r7, #4]
 800567e:	6f5b      	ldr	r3, [r3, #116]	; 0x74
 8005680:	f1b3 5f00 	cmp.w	r3, #536870912	; 0x20000000
 8005684:	d00e      	beq.n	80056a4 <HAL_RCCEx_PeriphCLKConfig+0x50c>
 8005686:	f1b3 5f00 	cmp.w	r3, #536870912	; 0x20000000
 800568a:	d814      	bhi.n	80056b6 <HAL_RCCEx_PeriphCLKConfig+0x51e>
 800568c:	2b00      	cmp	r3, #0
 800568e:	d015      	beq.n	80056bc <HAL_RCCEx_PeriphCLKConfig+0x524>
 8005690:	f1b3 5f80 	cmp.w	r3, #268435456	; 0x10000000
 8005694:	d10f      	bne.n	80056b6 <HAL_RCCEx_PeriphCLKConfig+0x51e>
    {
    case RCC_FDCANCLKSOURCE_PLL:      /* PLL is used as clock source for FDCAN*/
      /* Enable FDCAN Clock output generated form System PLL . */
      __HAL_RCC_PLLCLKOUT_ENABLE(RCC_PLL1_DIVQ);
 8005696:	4b10      	ldr	r3, [pc, #64]	; (80056d8 <HAL_RCCEx_PeriphCLKConfig+0x540>)
 8005698:	6adb      	ldr	r3, [r3, #44]	; 0x2c
 800569a:	4a0f      	ldr	r2, [pc, #60]	; (80056d8 <HAL_RCCEx_PeriphCLKConfig+0x540>)
 800569c:	f443 3300 	orr.w	r3, r3, #131072	; 0x20000
 80056a0:	62d3      	str	r3, [r2, #44]	; 0x2c

      /* FDCAN clock source configuration done later after clock selection check */
      break;
 80056a2:	e00c      	b.n	80056be <HAL_RCCEx_PeriphCLKConfig+0x526>

    case RCC_FDCANCLKSOURCE_PLL2: /* PLL2 is used as clock source for FDCAN*/

      ret = RCCEx_PLL2_Config(&(PeriphClkInit->PLL2),DIVIDER_Q_UPDATE);
 80056a4:	687b      	ldr	r3, [r7, #4]
 80056a6:	3304      	adds	r3, #4
 80056a8:	2101      	movs	r1, #1
 80056aa:	4618      	mov	r0, r3
 80056ac:	f000 ff3e 	bl	800652c <RCCEx_PLL2_Config>
 80056b0:	4603      	mov	r3, r0
 80056b2:	75fb      	strb	r3, [r7, #23]

      /* FDCAN clock source configuration done later after clock selection check */
      break;
 80056b4:	e003      	b.n	80056be <HAL_RCCEx_PeriphCLKConfig+0x526>
      /* HSE is used as clock source for FDCAN*/
      /* FDCAN clock source configuration done later after clock selection check */
      break;

    default:
      ret = HAL_ERROR;
 80056b6:	2301      	movs	r3, #1
 80056b8:	75fb      	strb	r3, [r7, #23]
      break;
 80056ba:	e000      	b.n	80056be <HAL_RCCEx_PeriphCLKConfig+0x526>
      break;
 80056bc:	bf00      	nop
    }

    if(ret == HAL_OK)
 80056be:	7dfb      	ldrb	r3, [r7, #23]
 80056c0:	2b00      	cmp	r3, #0
 80056c2:	d10b      	bne.n	80056dc <HAL_RCCEx_PeriphCLKConfig+0x544>
    {
      /* Set the source of FDCAN clock*/
      __HAL_RCC_FDCAN_CONFIG(PeriphClkInit->FdcanClockSelection);
 80056c4:	4b04      	ldr	r3, [pc, #16]	; (80056d8 <HAL_RCCEx_PeriphCLKConfig+0x540>)
 80056c6:	6d1b      	ldr	r3, [r3, #80]	; 0x50
 80056c8:	f023 5240 	bic.w	r2, r3, #805306368	; 0x30000000
 80056cc:	687b      	ldr	r3, [r7, #4]
 80056ce:	6f5b      	ldr	r3, [r3, #116]	; 0x74
 80056d0:	4901      	ldr	r1, [pc, #4]	; (80056d8 <HAL_RCCEx_PeriphCLKConfig+0x540>)
 80056d2:	4313      	orrs	r3, r2
 80056d4:	650b      	str	r3, [r1, #80]	; 0x50
 80056d6:	e003      	b.n	80056e0 <HAL_RCCEx_PeriphCLKConfig+0x548>
 80056d8:	58024400 	.word	0x58024400
    }
    else
    {
      /* set overall return value */
      status = ret;
 80056dc:	7dfb      	ldrb	r3, [r7, #23]
 80056de:	75bb      	strb	r3, [r7, #22]
    }
  }
#endif /*FDCAN1 || FDCAN2*/

  /*---------------------------- FMC configuration -------------------------------*/
  if(((PeriphClkInit->PeriphClockSelection) & RCC_PERIPHCLK_FMC) == RCC_PERIPHCLK_FMC)
 80056e0:	687b      	ldr	r3, [r7, #4]
 80056e2:	681b      	ldr	r3, [r3, #0]
 80056e4:	f003 7380 	and.w	r3, r3, #16777216	; 0x1000000
 80056e8:	2b00      	cmp	r3, #0
 80056ea:	d032      	beq.n	8005752 <HAL_RCCEx_PeriphCLKConfig+0x5ba>
  {
    switch(PeriphClkInit->FmcClockSelection)
 80056ec:	687b      	ldr	r3, [r7, #4]
 80056ee:	6c5b      	ldr	r3, [r3, #68]	; 0x44
 80056f0:	2b03      	cmp	r3, #3
 80056f2:	d81b      	bhi.n	800572c <HAL_RCCEx_PeriphCLKConfig+0x594>
 80056f4:	a201      	add	r2, pc, #4	; (adr r2, 80056fc <HAL_RCCEx_PeriphCLKConfig+0x564>)
 80056f6:	f852 f023 	ldr.w	pc, [r2, r3, lsl #2]
 80056fa:	bf00      	nop
 80056fc:	08005733 	.word	0x08005733
 8005700:	0800570d 	.word	0x0800570d
 8005704:	0800571b 	.word	0x0800571b
 8005708:	08005733 	.word	0x08005733
    {
    case RCC_FMCCLKSOURCE_PLL:      /* PLL is used as clock source for FMC*/
      /* Enable FMC Clock output generated form System PLL . */
      __HAL_RCC_PLLCLKOUT_ENABLE(RCC_PLL1_DIVQ);
 800570c:	4bb2      	ldr	r3, [pc, #712]	; (80059d8 <HAL_RCCEx_PeriphCLKConfig+0x840>)
 800570e:	6adb      	ldr	r3, [r3, #44]	; 0x2c
 8005710:	4ab1      	ldr	r2, [pc, #708]	; (80059d8 <HAL_RCCEx_PeriphCLKConfig+0x840>)
 8005712:	f443 3300 	orr.w	r3, r3, #131072	; 0x20000
 8005716:	62d3      	str	r3, [r2, #44]	; 0x2c

      /* FMC clock source configuration done later after clock selection check */
      break;
 8005718:	e00c      	b.n	8005734 <HAL_RCCEx_PeriphCLKConfig+0x59c>

    case RCC_FMCCLKSOURCE_PLL2: /* PLL2 is used as clock source for FMC*/

      ret = RCCEx_PLL2_Config(&(PeriphClkInit->PLL2),DIVIDER_R_UPDATE);
 800571a:	687b      	ldr	r3, [r7, #4]
 800571c:	3304      	adds	r3, #4
 800571e:	2102      	movs	r1, #2
 8005720:	4618      	mov	r0, r3
 8005722:	f000 ff03 	bl	800652c <RCCEx_PLL2_Config>
 8005726:	4603      	mov	r3, r0
 8005728:	75fb      	strb	r3, [r7, #23]

      /* FMC clock source configuration done later after clock selection check */
      break;
 800572a:	e003      	b.n	8005734 <HAL_RCCEx_PeriphCLKConfig+0x59c>
    case RCC_FMCCLKSOURCE_HCLK:
      /* D1/CD HCLK  clock selected as FMC kernel peripheral clock */
      break;

    default:
      ret = HAL_ERROR;
 800572c:	2301      	movs	r3, #1
 800572e:	75fb      	strb	r3, [r7, #23]
      break;
 8005730:	e000      	b.n	8005734 <HAL_RCCEx_PeriphCLKConfig+0x59c>
      break;
 8005732:	bf00      	nop
    }

    if(ret == HAL_OK)
 8005734:	7dfb      	ldrb	r3, [r7, #23]
 8005736:	2b00      	cmp	r3, #0
 8005738:	d109      	bne.n	800574e <HAL_RCCEx_PeriphCLKConfig+0x5b6>
    {
      /* Set the source of FMC clock*/
      __HAL_RCC_FMC_CONFIG(PeriphClkInit->FmcClockSelection);
 800573a:	4ba7      	ldr	r3, [pc, #668]	; (80059d8 <HAL_RCCEx_PeriphCLKConfig+0x840>)
 800573c:	6cdb      	ldr	r3, [r3, #76]	; 0x4c
 800573e:	f023 0203 	bic.w	r2, r3, #3
 8005742:	687b      	ldr	r3, [r7, #4]
 8005744:	6c5b      	ldr	r3, [r3, #68]	; 0x44
 8005746:	49a4      	ldr	r1, [pc, #656]	; (80059d8 <HAL_RCCEx_PeriphCLKConfig+0x840>)
 8005748:	4313      	orrs	r3, r2
 800574a:	64cb      	str	r3, [r1, #76]	; 0x4c
 800574c:	e001      	b.n	8005752 <HAL_RCCEx_PeriphCLKConfig+0x5ba>
    }
    else
    {
      /* set overall return value */
      status = ret;
 800574e:	7dfb      	ldrb	r3, [r7, #23]
 8005750:	75bb      	strb	r3, [r7, #22]
    }
  }

  /*---------------------------- RTC configuration -------------------------------*/
  if(((PeriphClkInit->PeriphClockSelection) & RCC_PERIPHCLK_RTC) == RCC_PERIPHCLK_RTC)
 8005752:	687b      	ldr	r3, [r7, #4]
 8005754:	681b      	ldr	r3, [r3, #0]
 8005756:	f403 0380 	and.w	r3, r3, #4194304	; 0x400000
 800575a:	2b00      	cmp	r3, #0
 800575c:	f000 8086 	beq.w	800586c <HAL_RCCEx_PeriphCLKConfig+0x6d4>
  {
    /* check for RTC Parameters used to output RTCCLK */
    assert_param(IS_RCC_RTCCLKSOURCE(PeriphClkInit->RTCClockSelection));

    /* Enable write access to Backup domain */
    SET_BIT(PWR->CR1, PWR_CR1_DBP);
 8005760:	4b9e      	ldr	r3, [pc, #632]	; (80059dc <HAL_RCCEx_PeriphCLKConfig+0x844>)
 8005762:	681b      	ldr	r3, [r3, #0]
 8005764:	4a9d      	ldr	r2, [pc, #628]	; (80059dc <HAL_RCCEx_PeriphCLKConfig+0x844>)
 8005766:	f443 7380 	orr.w	r3, r3, #256	; 0x100
 800576a:	6013      	str	r3, [r2, #0]

    /* Wait for Backup domain Write protection disable */
    tickstart = HAL_GetTick();
 800576c:	f7fe f9ec 	bl	8003b48 <HAL_GetTick>
 8005770:	6138      	str	r0, [r7, #16]

    while((PWR->CR1 & PWR_CR1_DBP) == 0U)
 8005772:	e009      	b.n	8005788 <HAL_RCCEx_PeriphCLKConfig+0x5f0>
    {
      if((HAL_GetTick() - tickstart) > RCC_DBP_TIMEOUT_VALUE)
 8005774:	f7fe f9e8 	bl	8003b48 <HAL_GetTick>
 8005778:	4602      	mov	r2, r0
 800577a:	693b      	ldr	r3, [r7, #16]
 800577c:	1ad3      	subs	r3, r2, r3
 800577e:	2b64      	cmp	r3, #100	; 0x64
 8005780:	d902      	bls.n	8005788 <HAL_RCCEx_PeriphCLKConfig+0x5f0>
      {
        ret = HAL_TIMEOUT;
 8005782:	2303      	movs	r3, #3
 8005784:	75fb      	strb	r3, [r7, #23]
        break;
 8005786:	e005      	b.n	8005794 <HAL_RCCEx_PeriphCLKConfig+0x5fc>
    while((PWR->CR1 & PWR_CR1_DBP) == 0U)
 8005788:	4b94      	ldr	r3, [pc, #592]	; (80059dc <HAL_RCCEx_PeriphCLKConfig+0x844>)
 800578a:	681b      	ldr	r3, [r3, #0]
 800578c:	f403 7380 	and.w	r3, r3, #256	; 0x100
 8005790:	2b00      	cmp	r3, #0
 8005792:	d0ef      	beq.n	8005774 <HAL_RCCEx_PeriphCLKConfig+0x5dc>
      }
    }

    if(ret == HAL_OK)
 8005794:	7dfb      	ldrb	r3, [r7, #23]
 8005796:	2b00      	cmp	r3, #0
 8005798:	d166      	bne.n	8005868 <HAL_RCCEx_PeriphCLKConfig+0x6d0>
    {
      /* Reset the Backup domain only if the RTC Clock source selection is modified */
      if((RCC->BDCR & RCC_BDCR_RTCSEL) != (PeriphClkInit->RTCClockSelection & RCC_BDCR_RTCSEL))
 800579a:	4b8f      	ldr	r3, [pc, #572]	; (80059d8 <HAL_RCCEx_PeriphCLKConfig+0x840>)
 800579c:	6f1a      	ldr	r2, [r3, #112]	; 0x70
 800579e:	687b      	ldr	r3, [r7, #4]
 80057a0:	f8d3 30b0 	ldr.w	r3, [r3, #176]	; 0xb0
 80057a4:	4053      	eors	r3, r2
 80057a6:	f403 7340 	and.w	r3, r3, #768	; 0x300
 80057aa:	2b00      	cmp	r3, #0
 80057ac:	d013      	beq.n	80057d6 <HAL_RCCEx_PeriphCLKConfig+0x63e>
      {
        /* Store the content of BDCR register before the reset of Backup Domain */
        tmpreg = (RCC->BDCR & ~(RCC_BDCR_RTCSEL));
 80057ae:	4b8a      	ldr	r3, [pc, #552]	; (80059d8 <HAL_RCCEx_PeriphCLKConfig+0x840>)
 80057b0:	6f1b      	ldr	r3, [r3, #112]	; 0x70
 80057b2:	f423 7340 	bic.w	r3, r3, #768	; 0x300
 80057b6:	60fb      	str	r3, [r7, #12]
        /* RTC Clock selection can be changed only if the Backup Domain is reset */
        __HAL_RCC_BACKUPRESET_FORCE();
 80057b8:	4b87      	ldr	r3, [pc, #540]	; (80059d8 <HAL_RCCEx_PeriphCLKConfig+0x840>)
 80057ba:	6f1b      	ldr	r3, [r3, #112]	; 0x70
 80057bc:	4a86      	ldr	r2, [pc, #536]	; (80059d8 <HAL_RCCEx_PeriphCLKConfig+0x840>)
 80057be:	f443 3380 	orr.w	r3, r3, #65536	; 0x10000
 80057c2:	6713      	str	r3, [r2, #112]	; 0x70
        __HAL_RCC_BACKUPRESET_RELEASE();
 80057c4:	4b84      	ldr	r3, [pc, #528]	; (80059d8 <HAL_RCCEx_PeriphCLKConfig+0x840>)
 80057c6:	6f1b      	ldr	r3, [r3, #112]	; 0x70
 80057c8:	4a83      	ldr	r2, [pc, #524]	; (80059d8 <HAL_RCCEx_PeriphCLKConfig+0x840>)
 80057ca:	f423 3380 	bic.w	r3, r3, #65536	; 0x10000
 80057ce:	6713      	str	r3, [r2, #112]	; 0x70
        /* Restore the Content of BDCR register */
        RCC->BDCR = tmpreg;
 80057d0:	4a81      	ldr	r2, [pc, #516]	; (80059d8 <HAL_RCCEx_PeriphCLKConfig+0x840>)
 80057d2:	68fb      	ldr	r3, [r7, #12]
 80057d4:	6713      	str	r3, [r2, #112]	; 0x70
      }

      /* If LSE is selected as RTC clock source (and enabled prior to Backup Domain reset), wait for LSE reactivation */
      if(PeriphClkInit->RTCClockSelection == RCC_RTCCLKSOURCE_LSE)
 80057d6:	687b      	ldr	r3, [r7, #4]
 80057d8:	f8d3 30b0 	ldr.w	r3, [r3, #176]	; 0xb0
 80057dc:	f5b3 7f80 	cmp.w	r3, #256	; 0x100
 80057e0:	d115      	bne.n	800580e <HAL_RCCEx_PeriphCLKConfig+0x676>
      {
        /* Get Start Tick*/
        tickstart = HAL_GetTick();
 80057e2:	f7fe f9b1 	bl	8003b48 <HAL_GetTick>
 80057e6:	6138      	str	r0, [r7, #16]

        /* Wait till LSE is ready */
        while(__HAL_RCC_GET_FLAG(RCC_FLAG_LSERDY) == 0U)
 80057e8:	e00b      	b.n	8005802 <HAL_RCCEx_PeriphCLKConfig+0x66a>
        {
          if((HAL_GetTick() - tickstart) > RCC_LSE_TIMEOUT_VALUE)
 80057ea:	f7fe f9ad 	bl	8003b48 <HAL_GetTick>
 80057ee:	4602      	mov	r2, r0
 80057f0:	693b      	ldr	r3, [r7, #16]
 80057f2:	1ad3      	subs	r3, r2, r3
 80057f4:	f241 3288 	movw	r2, #5000	; 0x1388
 80057f8:	4293      	cmp	r3, r2
 80057fa:	d902      	bls.n	8005802 <HAL_RCCEx_PeriphCLKConfig+0x66a>
          {
            ret = HAL_TIMEOUT;
 80057fc:	2303      	movs	r3, #3
 80057fe:	75fb      	strb	r3, [r7, #23]
            break;
 8005800:	e005      	b.n	800580e <HAL_RCCEx_PeriphCLKConfig+0x676>
        while(__HAL_RCC_GET_FLAG(RCC_FLAG_LSERDY) == 0U)
 8005802:	4b75      	ldr	r3, [pc, #468]	; (80059d8 <HAL_RCCEx_PeriphCLKConfig+0x840>)
 8005804:	6f1b      	ldr	r3, [r3, #112]	; 0x70
 8005806:	f003 0302 	and.w	r3, r3, #2
 800580a:	2b00      	cmp	r3, #0
 800580c:	d0ed      	beq.n	80057ea <HAL_RCCEx_PeriphCLKConfig+0x652>
          }
        }
      }

      if(ret == HAL_OK)
 800580e:	7dfb      	ldrb	r3, [r7, #23]
 8005810:	2b00      	cmp	r3, #0
 8005812:	d126      	bne.n	8005862 <HAL_RCCEx_PeriphCLKConfig+0x6ca>
      {
        __HAL_RCC_RTC_CONFIG(PeriphClkInit->RTCClockSelection);
 8005814:	687b      	ldr	r3, [r7, #4]
 8005816:	f8d3 30b0 	ldr.w	r3, [r3, #176]	; 0xb0
 800581a:	f403 7340 	and.w	r3, r3, #768	; 0x300
 800581e:	f5b3 7f40 	cmp.w	r3, #768	; 0x300
 8005822:	d10d      	bne.n	8005840 <HAL_RCCEx_PeriphCLKConfig+0x6a8>
 8005824:	4b6c      	ldr	r3, [pc, #432]	; (80059d8 <HAL_RCCEx_PeriphCLKConfig+0x840>)
 8005826:	691b      	ldr	r3, [r3, #16]
 8005828:	f423 527c 	bic.w	r2, r3, #16128	; 0x3f00
 800582c:	687b      	ldr	r3, [r7, #4]
 800582e:	f8d3 30b0 	ldr.w	r3, [r3, #176]	; 0xb0
 8005832:	0919      	lsrs	r1, r3, #4
 8005834:	4b6a      	ldr	r3, [pc, #424]	; (80059e0 <HAL_RCCEx_PeriphCLKConfig+0x848>)
 8005836:	400b      	ands	r3, r1
 8005838:	4967      	ldr	r1, [pc, #412]	; (80059d8 <HAL_RCCEx_PeriphCLKConfig+0x840>)
 800583a:	4313      	orrs	r3, r2
 800583c:	610b      	str	r3, [r1, #16]
 800583e:	e005      	b.n	800584c <HAL_RCCEx_PeriphCLKConfig+0x6b4>
 8005840:	4b65      	ldr	r3, [pc, #404]	; (80059d8 <HAL_RCCEx_PeriphCLKConfig+0x840>)
 8005842:	691b      	ldr	r3, [r3, #16]
 8005844:	4a64      	ldr	r2, [pc, #400]	; (80059d8 <HAL_RCCEx_PeriphCLKConfig+0x840>)
 8005846:	f423 537c 	bic.w	r3, r3, #16128	; 0x3f00
 800584a:	6113      	str	r3, [r2, #16]
 800584c:	4b62      	ldr	r3, [pc, #392]	; (80059d8 <HAL_RCCEx_PeriphCLKConfig+0x840>)
 800584e:	6f1a      	ldr	r2, [r3, #112]	; 0x70
 8005850:	687b      	ldr	r3, [r7, #4]
 8005852:	f8d3 30b0 	ldr.w	r3, [r3, #176]	; 0xb0
 8005856:	f3c3 030b 	ubfx	r3, r3, #0, #12
 800585a:	495f      	ldr	r1, [pc, #380]	; (80059d8 <HAL_RCCEx_PeriphCLKConfig+0x840>)
 800585c:	4313      	orrs	r3, r2
 800585e:	670b      	str	r3, [r1, #112]	; 0x70
 8005860:	e004      	b.n	800586c <HAL_RCCEx_PeriphCLKConfig+0x6d4>
      }
      else
      {
        /* set overall return value */
        status = ret;
 8005862:	7dfb      	ldrb	r3, [r7, #23]
 8005864:	75bb      	strb	r3, [r7, #22]
 8005866:	e001      	b.n	800586c <HAL_RCCEx_PeriphCLKConfig+0x6d4>
      }
    }
    else
    {
      /* set overall return value */
      status = ret;
 8005868:	7dfb      	ldrb	r3, [r7, #23]
 800586a:	75bb      	strb	r3, [r7, #22]
    }
  }


  /*-------------------------- USART1/6 configuration --------------------------*/
  if(((PeriphClkInit->PeriphClockSelection) & RCC_PERIPHCLK_USART16) == RCC_PERIPHCLK_USART16)
 800586c:	687b      	ldr	r3, [r7, #4]
 800586e:	681b      	ldr	r3, [r3, #0]
 8005870:	f003 0301 	and.w	r3, r3, #1
 8005874:	2b00      	cmp	r3, #0
 8005876:	d07f      	beq.n	8005978 <HAL_RCCEx_PeriphCLKConfig+0x7e0>
  {
    switch(PeriphClkInit->Usart16ClockSelection)
 8005878:	687b      	ldr	r3, [r7, #4]
 800587a:	f8d3 3080 	ldr.w	r3, [r3, #128]	; 0x80
 800587e:	2b28      	cmp	r3, #40	; 0x28
 8005880:	d866      	bhi.n	8005950 <HAL_RCCEx_PeriphCLKConfig+0x7b8>
 8005882:	a201      	add	r2, pc, #4	; (adr r2, 8005888 <HAL_RCCEx_PeriphCLKConfig+0x6f0>)
 8005884:	f852 f023 	ldr.w	pc, [r2, r3, lsl #2]
 8005888:	08005957 	.word	0x08005957
 800588c:	08005951 	.word	0x08005951
 8005890:	08005951 	.word	0x08005951
 8005894:	08005951 	.word	0x08005951
 8005898:	08005951 	.word	0x08005951
 800589c:	08005951 	.word	0x08005951
 80058a0:	08005951 	.word	0x08005951
 80058a4:	08005951 	.word	0x08005951
 80058a8:	0800592d 	.word	0x0800592d
 80058ac:	08005951 	.word	0x08005951
 80058b0:	08005951 	.word	0x08005951
 80058b4:	08005951 	.word	0x08005951
 80058b8:	08005951 	.word	0x08005951
 80058bc:	08005951 	.word	0x08005951
 80058c0:	08005951 	.word	0x08005951
 80058c4:	08005951 	.word	0x08005951
 80058c8:	0800593f 	.word	0x0800593f
 80058cc:	08005951 	.word	0x08005951
 80058d0:	08005951 	.word	0x08005951
 80058d4:	08005951 	.word	0x08005951
 80058d8:	08005951 	.word	0x08005951
 80058dc:	08005951 	.word	0x08005951
 80058e0:	08005951 	.word	0x08005951
 80058e4:	08005951 	.word	0x08005951
 80058e8:	08005957 	.word	0x08005957
 80058ec:	08005951 	.word	0x08005951
 80058f0:	08005951 	.word	0x08005951
 80058f4:	08005951 	.word	0x08005951
 80058f8:	08005951 	.word	0x08005951
 80058fc:	08005951 	.word	0x08005951
 8005900:	08005951 	.word	0x08005951
 8005904:	08005951 	.word	0x08005951
 8005908:	08005957 	.word	0x08005957
 800590c:	08005951 	.word	0x08005951
 8005910:	08005951 	.word	0x08005951
 8005914:	08005951 	.word	0x08005951
 8005918:	08005951 	.word	0x08005951
 800591c:	08005951 	.word	0x08005951
 8005920:	08005951 	.word	0x08005951
 8005924:	08005951 	.word	0x08005951
 8005928:	08005957 	.word	0x08005957
    case RCC_USART16CLKSOURCE_PCLK2: /* CD/D2 PCLK2 as clock source for USART1/6 */
      /* USART1/6 clock source configuration done later after clock selection check */
      break;

    case RCC_USART16CLKSOURCE_PLL2: /* PLL2 is used as clock source for USART1/6 */
      ret = RCCEx_PLL2_Config(&(PeriphClkInit->PLL2),DIVIDER_Q_UPDATE);
 800592c:	687b      	ldr	r3, [r7, #4]
 800592e:	3304      	adds	r3, #4
 8005930:	2101      	movs	r1, #1
 8005932:	4618      	mov	r0, r3
 8005934:	f000 fdfa 	bl	800652c <RCCEx_PLL2_Config>
 8005938:	4603      	mov	r3, r0
 800593a:	75fb      	strb	r3, [r7, #23]
      /* USART1/6 clock source configuration done later after clock selection check */
      break;
 800593c:	e00c      	b.n	8005958 <HAL_RCCEx_PeriphCLKConfig+0x7c0>

    case RCC_USART16CLKSOURCE_PLL3: /* PLL3 is used as clock source for USART1/6 */
      ret = RCCEx_PLL3_Config(&(PeriphClkInit->PLL3),DIVIDER_Q_UPDATE);
 800593e:	687b      	ldr	r3, [r7, #4]
 8005940:	3324      	adds	r3, #36	; 0x24
 8005942:	2101      	movs	r1, #1
 8005944:	4618      	mov	r0, r3
 8005946:	f000 fea3 	bl	8006690 <RCCEx_PLL3_Config>
 800594a:	4603      	mov	r3, r0
 800594c:	75fb      	strb	r3, [r7, #23]
      /* USART1/6 clock source configuration done later after clock selection check */
      break;
 800594e:	e003      	b.n	8005958 <HAL_RCCEx_PeriphCLKConfig+0x7c0>
      /* LSE,  oscillator is used as source of USART1/6 clock */
      /* USART1/6 clock source configuration done later after clock selection check */
      break;

    default:
      ret = HAL_ERROR;
 8005950:	2301      	movs	r3, #1
 8005952:	75fb      	strb	r3, [r7, #23]
      break;
 8005954:	e000      	b.n	8005958 <HAL_RCCEx_PeriphCLKConfig+0x7c0>
      break;
 8005956:	bf00      	nop
    }

    if(ret == HAL_OK)
 8005958:	7dfb      	ldrb	r3, [r7, #23]
 800595a:	2b00      	cmp	r3, #0
 800595c:	d10a      	bne.n	8005974 <HAL_RCCEx_PeriphCLKConfig+0x7dc>
    {
      /* Set the source of USART1/6 clock */
      __HAL_RCC_USART16_CONFIG(PeriphClkInit->Usart16ClockSelection);
 800595e:	4b1e      	ldr	r3, [pc, #120]	; (80059d8 <HAL_RCCEx_PeriphCLKConfig+0x840>)
 8005960:	6d5b      	ldr	r3, [r3, #84]	; 0x54
 8005962:	f023 0238 	bic.w	r2, r3, #56	; 0x38
 8005966:	687b      	ldr	r3, [r7, #4]
 8005968:	f8d3 3080 	ldr.w	r3, [r3, #128]	; 0x80
 800596c:	491a      	ldr	r1, [pc, #104]	; (80059d8 <HAL_RCCEx_PeriphCLKConfig+0x840>)
 800596e:	4313      	orrs	r3, r2
 8005970:	654b      	str	r3, [r1, #84]	; 0x54
 8005972:	e001      	b.n	8005978 <HAL_RCCEx_PeriphCLKConfig+0x7e0>
    }
    else
    {
      /* set overall return value */
      status = ret;
 8005974:	7dfb      	ldrb	r3, [r7, #23]
 8005976:	75bb      	strb	r3, [r7, #22]
    }
  }

  /*-------------------------- USART2/3/4/5/7/8 Configuration --------------------------*/
  if(((PeriphClkInit->PeriphClockSelection) & RCC_PERIPHCLK_USART234578) == RCC_PERIPHCLK_USART234578)
 8005978:	687b      	ldr	r3, [r7, #4]
 800597a:	681b      	ldr	r3, [r3, #0]
 800597c:	f003 0302 	and.w	r3, r3, #2
 8005980:	2b00      	cmp	r3, #0
 8005982:	d03f      	beq.n	8005a04 <HAL_RCCEx_PeriphCLKConfig+0x86c>
  {
    switch(PeriphClkInit->Usart234578ClockSelection)
 8005984:	687b      	ldr	r3, [r7, #4]
 8005986:	6fdb      	ldr	r3, [r3, #124]	; 0x7c
 8005988:	2b05      	cmp	r3, #5
 800598a:	d821      	bhi.n	80059d0 <HAL_RCCEx_PeriphCLKConfig+0x838>
 800598c:	a201      	add	r2, pc, #4	; (adr r2, 8005994 <HAL_RCCEx_PeriphCLKConfig+0x7fc>)
 800598e:	f852 f023 	ldr.w	pc, [r2, r3, lsl #2]
 8005992:	bf00      	nop
 8005994:	080059e5 	.word	0x080059e5
 8005998:	080059ad 	.word	0x080059ad
 800599c:	080059bf 	.word	0x080059bf
 80059a0:	080059e5 	.word	0x080059e5
 80059a4:	080059e5 	.word	0x080059e5
 80059a8:	080059e5 	.word	0x080059e5
    case RCC_USART234578CLKSOURCE_PCLK1: /* CD/D2 PCLK1 as clock source for USART2/3/4/5/7/8 */
      /* USART2/3/4/5/7/8 clock source configuration done later after clock selection check */
      break;

    case RCC_USART234578CLKSOURCE_PLL2: /* PLL2 is used as clock source for USART2/3/4/5/7/8 */
      ret = RCCEx_PLL2_Config(&(PeriphClkInit->PLL2),DIVIDER_Q_UPDATE);
 80059ac:	687b      	ldr	r3, [r7, #4]
 80059ae:	3304      	adds	r3, #4
 80059b0:	2101      	movs	r1, #1
 80059b2:	4618      	mov	r0, r3
 80059b4:	f000 fdba 	bl	800652c <RCCEx_PLL2_Config>
 80059b8:	4603      	mov	r3, r0
 80059ba:	75fb      	strb	r3, [r7, #23]
      /* USART2/3/4/5/7/8 clock source configuration done later after clock selection check */
      break;
 80059bc:	e013      	b.n	80059e6 <HAL_RCCEx_PeriphCLKConfig+0x84e>

    case RCC_USART234578CLKSOURCE_PLL3: /* PLL3 is used as clock source for USART2/3/4/5/7/8 */
      ret = RCCEx_PLL3_Config(&(PeriphClkInit->PLL3),DIVIDER_Q_UPDATE);
 80059be:	687b      	ldr	r3, [r7, #4]
 80059c0:	3324      	adds	r3, #36	; 0x24
 80059c2:	2101      	movs	r1, #1
 80059c4:	4618      	mov	r0, r3
 80059c6:	f000 fe63 	bl	8006690 <RCCEx_PLL3_Config>
 80059ca:	4603      	mov	r3, r0
 80059cc:	75fb      	strb	r3, [r7, #23]
      /* USART2/3/4/5/7/8 clock source configuration done later after clock selection check */
      break;
 80059ce:	e00a      	b.n	80059e6 <HAL_RCCEx_PeriphCLKConfig+0x84e>
      /* LSE,  oscillator is used as source of USART2/3/4/5/7/8 clock */
      /* USART2/3/4/5/7/8 clock source configuration done later after clock selection check */
      break;

    default:
      ret = HAL_ERROR;
 80059d0:	2301      	movs	r3, #1
 80059d2:	75fb      	strb	r3, [r7, #23]
      break;
 80059d4:	e007      	b.n	80059e6 <HAL_RCCEx_PeriphCLKConfig+0x84e>
 80059d6:	bf00      	nop
 80059d8:	58024400 	.word	0x58024400
 80059dc:	58024800 	.word	0x58024800
 80059e0:	00ffffcf 	.word	0x00ffffcf
      break;
 80059e4:	bf00      	nop
    }

    if(ret == HAL_OK)
 80059e6:	7dfb      	ldrb	r3, [r7, #23]
 80059e8:	2b00      	cmp	r3, #0
 80059ea:	d109      	bne.n	8005a00 <HAL_RCCEx_PeriphCLKConfig+0x868>
    {
      /* Set the source of USART2/3/4/5/7/8 clock */
      __HAL_RCC_USART234578_CONFIG(PeriphClkInit->Usart234578ClockSelection);
 80059ec:	4b9f      	ldr	r3, [pc, #636]	; (8005c6c <HAL_RCCEx_PeriphCLKConfig+0xad4>)
 80059ee:	6d5b      	ldr	r3, [r3, #84]	; 0x54
 80059f0:	f023 0207 	bic.w	r2, r3, #7
 80059f4:	687b      	ldr	r3, [r7, #4]
 80059f6:	6fdb      	ldr	r3, [r3, #124]	; 0x7c
 80059f8:	499c      	ldr	r1, [pc, #624]	; (8005c6c <HAL_RCCEx_PeriphCLKConfig+0xad4>)
 80059fa:	4313      	orrs	r3, r2
 80059fc:	654b      	str	r3, [r1, #84]	; 0x54
 80059fe:	e001      	b.n	8005a04 <HAL_RCCEx_PeriphCLKConfig+0x86c>
    }
    else
    {
      /* set overall return value */
      status = ret;
 8005a00:	7dfb      	ldrb	r3, [r7, #23]
 8005a02:	75bb      	strb	r3, [r7, #22]
    }
  }

  /*-------------------------- LPUART1 Configuration -------------------------*/
  if(((PeriphClkInit->PeriphClockSelection) & RCC_PERIPHCLK_LPUART1) == RCC_PERIPHCLK_LPUART1)
 8005a04:	687b      	ldr	r3, [r7, #4]
 8005a06:	681b      	ldr	r3, [r3, #0]
 8005a08:	f003 0304 	and.w	r3, r3, #4
 8005a0c:	2b00      	cmp	r3, #0
 8005a0e:	d039      	beq.n	8005a84 <HAL_RCCEx_PeriphCLKConfig+0x8ec>
  {
    switch(PeriphClkInit->Lpuart1ClockSelection)
 8005a10:	687b      	ldr	r3, [r7, #4]
 8005a12:	f8d3 3098 	ldr.w	r3, [r3, #152]	; 0x98
 8005a16:	2b05      	cmp	r3, #5
 8005a18:	d820      	bhi.n	8005a5c <HAL_RCCEx_PeriphCLKConfig+0x8c4>
 8005a1a:	a201      	add	r2, pc, #4	; (adr r2, 8005a20 <HAL_RCCEx_PeriphCLKConfig+0x888>)
 8005a1c:	f852 f023 	ldr.w	pc, [r2, r3, lsl #2]
 8005a20:	08005a63 	.word	0x08005a63
 8005a24:	08005a39 	.word	0x08005a39
 8005a28:	08005a4b 	.word	0x08005a4b
 8005a2c:	08005a63 	.word	0x08005a63
 8005a30:	08005a63 	.word	0x08005a63
 8005a34:	08005a63 	.word	0x08005a63
    case RCC_LPUART1CLKSOURCE_PCLK4: /* SRD/D3 PCLK1 (PCLK4) as clock source for LPUART1 */
      /* LPUART1 clock source configuration done later after clock selection check */
      break;

    case RCC_LPUART1CLKSOURCE_PLL2: /* PLL2 is used as clock source for LPUART1 */
      ret = RCCEx_PLL2_Config(&(PeriphClkInit->PLL2),DIVIDER_Q_UPDATE);
 8005a38:	687b      	ldr	r3, [r7, #4]
 8005a3a:	3304      	adds	r3, #4
 8005a3c:	2101      	movs	r1, #1
 8005a3e:	4618      	mov	r0, r3
 8005a40:	f000 fd74 	bl	800652c <RCCEx_PLL2_Config>
 8005a44:	4603      	mov	r3, r0
 8005a46:	75fb      	strb	r3, [r7, #23]
      /* LPUART1 clock source configuration done later after clock selection check */
      break;
 8005a48:	e00c      	b.n	8005a64 <HAL_RCCEx_PeriphCLKConfig+0x8cc>

    case RCC_LPUART1CLKSOURCE_PLL3: /* PLL3 is used as clock source for LPUART1 */
      ret = RCCEx_PLL3_Config(&(PeriphClkInit->PLL3),DIVIDER_Q_UPDATE);
 8005a4a:	687b      	ldr	r3, [r7, #4]
 8005a4c:	3324      	adds	r3, #36	; 0x24
 8005a4e:	2101      	movs	r1, #1
 8005a50:	4618      	mov	r0, r3
 8005a52:	f000 fe1d 	bl	8006690 <RCCEx_PLL3_Config>
 8005a56:	4603      	mov	r3, r0
 8005a58:	75fb      	strb	r3, [r7, #23]
      /* LPUART1 clock source configuration done later after clock selection check */
      break;
 8005a5a:	e003      	b.n	8005a64 <HAL_RCCEx_PeriphCLKConfig+0x8cc>
      /* LSE,  oscillator is used as source of LPUART1 clock */
      /* LPUART1 clock source configuration done later after clock selection check */
      break;

    default:
      ret = HAL_ERROR;
 8005a5c:	2301      	movs	r3, #1
 8005a5e:	75fb      	strb	r3, [r7, #23]
      break;
 8005a60:	e000      	b.n	8005a64 <HAL_RCCEx_PeriphCLKConfig+0x8cc>
      break;
 8005a62:	bf00      	nop
    }

    if(ret == HAL_OK)
 8005a64:	7dfb      	ldrb	r3, [r7, #23]
 8005a66:	2b00      	cmp	r3, #0
 8005a68:	d10a      	bne.n	8005a80 <HAL_RCCEx_PeriphCLKConfig+0x8e8>
    {
      /* Set the source of LPUART1 clock */
      __HAL_RCC_LPUART1_CONFIG(PeriphClkInit->Lpuart1ClockSelection);
 8005a6a:	4b80      	ldr	r3, [pc, #512]	; (8005c6c <HAL_RCCEx_PeriphCLKConfig+0xad4>)
 8005a6c:	6d9b      	ldr	r3, [r3, #88]	; 0x58
 8005a6e:	f023 0207 	bic.w	r2, r3, #7
 8005a72:	687b      	ldr	r3, [r7, #4]
 8005a74:	f8d3 3098 	ldr.w	r3, [r3, #152]	; 0x98
 8005a78:	497c      	ldr	r1, [pc, #496]	; (8005c6c <HAL_RCCEx_PeriphCLKConfig+0xad4>)
 8005a7a:	4313      	orrs	r3, r2
 8005a7c:	658b      	str	r3, [r1, #88]	; 0x58
 8005a7e:	e001      	b.n	8005a84 <HAL_RCCEx_PeriphCLKConfig+0x8ec>
    }
    else
    {
      /* set overall return value */
      status = ret;
 8005a80:	7dfb      	ldrb	r3, [r7, #23]
 8005a82:	75bb      	strb	r3, [r7, #22]
    }
  }

  /*---------------------------- LPTIM1 configuration -------------------------------*/
  if(((PeriphClkInit->PeriphClockSelection) & RCC_PERIPHCLK_LPTIM1) == RCC_PERIPHCLK_LPTIM1)
 8005a84:	687b      	ldr	r3, [r7, #4]
 8005a86:	681b      	ldr	r3, [r3, #0]
 8005a88:	f003 0320 	and.w	r3, r3, #32
 8005a8c:	2b00      	cmp	r3, #0
 8005a8e:	d04b      	beq.n	8005b28 <HAL_RCCEx_PeriphCLKConfig+0x990>
  {
    switch(PeriphClkInit->Lptim1ClockSelection)
 8005a90:	687b      	ldr	r3, [r7, #4]
 8005a92:	f8d3 3094 	ldr.w	r3, [r3, #148]	; 0x94
 8005a96:	f1b3 4fa0 	cmp.w	r3, #1342177280	; 0x50000000
 8005a9a:	d02e      	beq.n	8005afa <HAL_RCCEx_PeriphCLKConfig+0x962>
 8005a9c:	f1b3 4fa0 	cmp.w	r3, #1342177280	; 0x50000000
 8005aa0:	d828      	bhi.n	8005af4 <HAL_RCCEx_PeriphCLKConfig+0x95c>
 8005aa2:	f1b3 4f80 	cmp.w	r3, #1073741824	; 0x40000000
 8005aa6:	d02a      	beq.n	8005afe <HAL_RCCEx_PeriphCLKConfig+0x966>
 8005aa8:	f1b3 4f80 	cmp.w	r3, #1073741824	; 0x40000000
 8005aac:	d822      	bhi.n	8005af4 <HAL_RCCEx_PeriphCLKConfig+0x95c>
 8005aae:	f1b3 5f40 	cmp.w	r3, #805306368	; 0x30000000
 8005ab2:	d026      	beq.n	8005b02 <HAL_RCCEx_PeriphCLKConfig+0x96a>
 8005ab4:	f1b3 5f40 	cmp.w	r3, #805306368	; 0x30000000
 8005ab8:	d81c      	bhi.n	8005af4 <HAL_RCCEx_PeriphCLKConfig+0x95c>
 8005aba:	f1b3 5f00 	cmp.w	r3, #536870912	; 0x20000000
 8005abe:	d010      	beq.n	8005ae2 <HAL_RCCEx_PeriphCLKConfig+0x94a>
 8005ac0:	f1b3 5f00 	cmp.w	r3, #536870912	; 0x20000000
 8005ac4:	d816      	bhi.n	8005af4 <HAL_RCCEx_PeriphCLKConfig+0x95c>
 8005ac6:	2b00      	cmp	r3, #0
 8005ac8:	d01d      	beq.n	8005b06 <HAL_RCCEx_PeriphCLKConfig+0x96e>
 8005aca:	f1b3 5f80 	cmp.w	r3, #268435456	; 0x10000000
 8005ace:	d111      	bne.n	8005af4 <HAL_RCCEx_PeriphCLKConfig+0x95c>
      /* LPTIM1 clock source configuration done later after clock selection check */
      break;

    case RCC_LPTIM1CLKSOURCE_PLL2: /* PLL2 is used as clock source for LPTIM1*/

      ret = RCCEx_PLL2_Config(&(PeriphClkInit->PLL2),DIVIDER_P_UPDATE);
 8005ad0:	687b      	ldr	r3, [r7, #4]
 8005ad2:	3304      	adds	r3, #4
 8005ad4:	2100      	movs	r1, #0
 8005ad6:	4618      	mov	r0, r3
 8005ad8:	f000 fd28 	bl	800652c <RCCEx_PLL2_Config>
 8005adc:	4603      	mov	r3, r0
 8005ade:	75fb      	strb	r3, [r7, #23]

      /* LPTIM1 clock source configuration done later after clock selection check */
      break;
 8005ae0:	e012      	b.n	8005b08 <HAL_RCCEx_PeriphCLKConfig+0x970>

    case RCC_LPTIM1CLKSOURCE_PLL3:  /* PLL3 is used as clock source for LPTIM1*/
      ret = RCCEx_PLL3_Config(&(PeriphClkInit->PLL3),DIVIDER_R_UPDATE);
 8005ae2:	687b      	ldr	r3, [r7, #4]
 8005ae4:	3324      	adds	r3, #36	; 0x24
 8005ae6:	2102      	movs	r1, #2
 8005ae8:	4618      	mov	r0, r3
 8005aea:	f000 fdd1 	bl	8006690 <RCCEx_PLL3_Config>
 8005aee:	4603      	mov	r3, r0
 8005af0:	75fb      	strb	r3, [r7, #23]

      /* LPTIM1 clock source configuration done later after clock selection check */
      break;
 8005af2:	e009      	b.n	8005b08 <HAL_RCCEx_PeriphCLKConfig+0x970>
      /* HSI, HSE, or CSI oscillator is used as source of LPTIM1 clock */
      /* LPTIM1 clock source configuration done later after clock selection check */
      break;

    default:
      ret = HAL_ERROR;
 8005af4:	2301      	movs	r3, #1
 8005af6:	75fb      	strb	r3, [r7, #23]
      break;
 8005af8:	e006      	b.n	8005b08 <HAL_RCCEx_PeriphCLKConfig+0x970>
      break;
 8005afa:	bf00      	nop
 8005afc:	e004      	b.n	8005b08 <HAL_RCCEx_PeriphCLKConfig+0x970>
      break;
 8005afe:	bf00      	nop
 8005b00:	e002      	b.n	8005b08 <HAL_RCCEx_PeriphCLKConfig+0x970>
      break;
 8005b02:	bf00      	nop
 8005b04:	e000      	b.n	8005b08 <HAL_RCCEx_PeriphCLKConfig+0x970>
      break;
 8005b06:	bf00      	nop
    }

    if(ret == HAL_OK)
 8005b08:	7dfb      	ldrb	r3, [r7, #23]
 8005b0a:	2b00      	cmp	r3, #0
 8005b0c:	d10a      	bne.n	8005b24 <HAL_RCCEx_PeriphCLKConfig+0x98c>
    {
      /* Set the source of LPTIM1 clock*/
      __HAL_RCC_LPTIM1_CONFIG(PeriphClkInit->Lptim1ClockSelection);
 8005b0e:	4b57      	ldr	r3, [pc, #348]	; (8005c6c <HAL_RCCEx_PeriphCLKConfig+0xad4>)
 8005b10:	6d5b      	ldr	r3, [r3, #84]	; 0x54
 8005b12:	f023 42e0 	bic.w	r2, r3, #1879048192	; 0x70000000
 8005b16:	687b      	ldr	r3, [r7, #4]
 8005b18:	f8d3 3094 	ldr.w	r3, [r3, #148]	; 0x94
 8005b1c:	4953      	ldr	r1, [pc, #332]	; (8005c6c <HAL_RCCEx_PeriphCLKConfig+0xad4>)
 8005b1e:	4313      	orrs	r3, r2
 8005b20:	654b      	str	r3, [r1, #84]	; 0x54
 8005b22:	e001      	b.n	8005b28 <HAL_RCCEx_PeriphCLKConfig+0x990>
    }
    else
    {
      /* set overall return value */
      status = ret;
 8005b24:	7dfb      	ldrb	r3, [r7, #23]
 8005b26:	75bb      	strb	r3, [r7, #22]
    }
  }

  /*---------------------------- LPTIM2 configuration -------------------------------*/
  if(((PeriphClkInit->PeriphClockSelection) & RCC_PERIPHCLK_LPTIM2) == RCC_PERIPHCLK_LPTIM2)
 8005b28:	687b      	ldr	r3, [r7, #4]
 8005b2a:	681b      	ldr	r3, [r3, #0]
 8005b2c:	f003 0340 	and.w	r3, r3, #64	; 0x40
 8005b30:	2b00      	cmp	r3, #0
 8005b32:	d04b      	beq.n	8005bcc <HAL_RCCEx_PeriphCLKConfig+0xa34>
  {
    switch(PeriphClkInit->Lptim2ClockSelection)
 8005b34:	687b      	ldr	r3, [r7, #4]
 8005b36:	f8d3 30a0 	ldr.w	r3, [r3, #160]	; 0xa0
 8005b3a:	f5b3 5fa0 	cmp.w	r3, #5120	; 0x1400
 8005b3e:	d02e      	beq.n	8005b9e <HAL_RCCEx_PeriphCLKConfig+0xa06>
 8005b40:	f5b3 5fa0 	cmp.w	r3, #5120	; 0x1400
 8005b44:	d828      	bhi.n	8005b98 <HAL_RCCEx_PeriphCLKConfig+0xa00>
 8005b46:	f5b3 5f80 	cmp.w	r3, #4096	; 0x1000
 8005b4a:	d02a      	beq.n	8005ba2 <HAL_RCCEx_PeriphCLKConfig+0xa0a>
 8005b4c:	f5b3 5f80 	cmp.w	r3, #4096	; 0x1000
 8005b50:	d822      	bhi.n	8005b98 <HAL_RCCEx_PeriphCLKConfig+0xa00>
 8005b52:	f5b3 6f40 	cmp.w	r3, #3072	; 0xc00
 8005b56:	d026      	beq.n	8005ba6 <HAL_RCCEx_PeriphCLKConfig+0xa0e>
 8005b58:	f5b3 6f40 	cmp.w	r3, #3072	; 0xc00
 8005b5c:	d81c      	bhi.n	8005b98 <HAL_RCCEx_PeriphCLKConfig+0xa00>
 8005b5e:	f5b3 6f00 	cmp.w	r3, #2048	; 0x800
 8005b62:	d010      	beq.n	8005b86 <HAL_RCCEx_PeriphCLKConfig+0x9ee>
 8005b64:	f5b3 6f00 	cmp.w	r3, #2048	; 0x800
 8005b68:	d816      	bhi.n	8005b98 <HAL_RCCEx_PeriphCLKConfig+0xa00>
 8005b6a:	2b00      	cmp	r3, #0
 8005b6c:	d01d      	beq.n	8005baa <HAL_RCCEx_PeriphCLKConfig+0xa12>
 8005b6e:	f5b3 6f80 	cmp.w	r3, #1024	; 0x400
 8005b72:	d111      	bne.n	8005b98 <HAL_RCCEx_PeriphCLKConfig+0xa00>
      /* LPTIM2 clock source configuration done later after clock selection check */
      break;

    case RCC_LPTIM2CLKSOURCE_PLL2: /* PLL2 is used as clock source for LPTIM2*/

      ret = RCCEx_PLL2_Config(&(PeriphClkInit->PLL2),DIVIDER_P_UPDATE);
 8005b74:	687b      	ldr	r3, [r7, #4]
 8005b76:	3304      	adds	r3, #4
 8005b78:	2100      	movs	r1, #0
 8005b7a:	4618      	mov	r0, r3
 8005b7c:	f000 fcd6 	bl	800652c <RCCEx_PLL2_Config>
 8005b80:	4603      	mov	r3, r0
 8005b82:	75fb      	strb	r3, [r7, #23]

      /* LPTIM2 clock source configuration done later after clock selection check */
      break;
 8005b84:	e012      	b.n	8005bac <HAL_RCCEx_PeriphCLKConfig+0xa14>

    case RCC_LPTIM2CLKSOURCE_PLL3:  /* PLL3 is used as clock source for LPTIM2*/
      ret = RCCEx_PLL3_Config(&(PeriphClkInit->PLL3),DIVIDER_R_UPDATE);
 8005b86:	687b      	ldr	r3, [r7, #4]
 8005b88:	3324      	adds	r3, #36	; 0x24
 8005b8a:	2102      	movs	r1, #2
 8005b8c:	4618      	mov	r0, r3
 8005b8e:	f000 fd7f 	bl	8006690 <RCCEx_PLL3_Config>
 8005b92:	4603      	mov	r3, r0
 8005b94:	75fb      	strb	r3, [r7, #23]

      /* LPTIM2 clock source configuration done later after clock selection check */
      break;
 8005b96:	e009      	b.n	8005bac <HAL_RCCEx_PeriphCLKConfig+0xa14>
      /* HSI, HSE, or CSI oscillator is used as source of LPTIM2 clock */
      /* LPTIM2 clock source configuration done later after clock selection check */
      break;

    default:
      ret = HAL_ERROR;
 8005b98:	2301      	movs	r3, #1
 8005b9a:	75fb      	strb	r3, [r7, #23]
      break;
 8005b9c:	e006      	b.n	8005bac <HAL_RCCEx_PeriphCLKConfig+0xa14>
      break;
 8005b9e:	bf00      	nop
 8005ba0:	e004      	b.n	8005bac <HAL_RCCEx_PeriphCLKConfig+0xa14>
      break;
 8005ba2:	bf00      	nop
 8005ba4:	e002      	b.n	8005bac <HAL_RCCEx_PeriphCLKConfig+0xa14>
      break;
 8005ba6:	bf00      	nop
 8005ba8:	e000      	b.n	8005bac <HAL_RCCEx_PeriphCLKConfig+0xa14>
      break;
 8005baa:	bf00      	nop
    }

    if(ret == HAL_OK)
 8005bac:	7dfb      	ldrb	r3, [r7, #23]
 8005bae:	2b00      	cmp	r3, #0
 8005bb0:	d10a      	bne.n	8005bc8 <HAL_RCCEx_PeriphCLKConfig+0xa30>
    {
      /* Set the source of LPTIM2 clock*/
      __HAL_RCC_LPTIM2_CONFIG(PeriphClkInit->Lptim2ClockSelection);
 8005bb2:	4b2e      	ldr	r3, [pc, #184]	; (8005c6c <HAL_RCCEx_PeriphCLKConfig+0xad4>)
 8005bb4:	6d9b      	ldr	r3, [r3, #88]	; 0x58
 8005bb6:	f423 52e0 	bic.w	r2, r3, #7168	; 0x1c00
 8005bba:	687b      	ldr	r3, [r7, #4]
 8005bbc:	f8d3 30a0 	ldr.w	r3, [r3, #160]	; 0xa0
 8005bc0:	492a      	ldr	r1, [pc, #168]	; (8005c6c <HAL_RCCEx_PeriphCLKConfig+0xad4>)
 8005bc2:	4313      	orrs	r3, r2
 8005bc4:	658b      	str	r3, [r1, #88]	; 0x58
 8005bc6:	e001      	b.n	8005bcc <HAL_RCCEx_PeriphCLKConfig+0xa34>
    }
    else
    {
      /* set overall return value */
      status = ret;
 8005bc8:	7dfb      	ldrb	r3, [r7, #23]
 8005bca:	75bb      	strb	r3, [r7, #22]
    }
  }

  /*---------------------------- LPTIM345 configuration -------------------------------*/
  if(((PeriphClkInit->PeriphClockSelection) & RCC_PERIPHCLK_LPTIM345) == RCC_PERIPHCLK_LPTIM345)
 8005bcc:	687b      	ldr	r3, [r7, #4]
 8005bce:	681b      	ldr	r3, [r3, #0]
 8005bd0:	f003 0380 	and.w	r3, r3, #128	; 0x80
 8005bd4:	2b00      	cmp	r3, #0
 8005bd6:	d04d      	beq.n	8005c74 <HAL_RCCEx_PeriphCLKConfig+0xadc>
  {
    switch(PeriphClkInit->Lptim345ClockSelection)
 8005bd8:	687b      	ldr	r3, [r7, #4]
 8005bda:	f8d3 30a4 	ldr.w	r3, [r3, #164]	; 0xa4
 8005bde:	f5b3 4f20 	cmp.w	r3, #40960	; 0xa000
 8005be2:	d02e      	beq.n	8005c42 <HAL_RCCEx_PeriphCLKConfig+0xaaa>
 8005be4:	f5b3 4f20 	cmp.w	r3, #40960	; 0xa000
 8005be8:	d828      	bhi.n	8005c3c <HAL_RCCEx_PeriphCLKConfig+0xaa4>
 8005bea:	f5b3 4f00 	cmp.w	r3, #32768	; 0x8000
 8005bee:	d02a      	beq.n	8005c46 <HAL_RCCEx_PeriphCLKConfig+0xaae>
 8005bf0:	f5b3 4f00 	cmp.w	r3, #32768	; 0x8000
 8005bf4:	d822      	bhi.n	8005c3c <HAL_RCCEx_PeriphCLKConfig+0xaa4>
 8005bf6:	f5b3 4fc0 	cmp.w	r3, #24576	; 0x6000
 8005bfa:	d026      	beq.n	8005c4a <HAL_RCCEx_PeriphCLKConfig+0xab2>
 8005bfc:	f5b3 4fc0 	cmp.w	r3, #24576	; 0x6000
 8005c00:	d81c      	bhi.n	8005c3c <HAL_RCCEx_PeriphCLKConfig+0xaa4>
 8005c02:	f5b3 4f80 	cmp.w	r3, #16384	; 0x4000
 8005c06:	d010      	beq.n	8005c2a <HAL_RCCEx_PeriphCLKConfig+0xa92>
 8005c08:	f5b3 4f80 	cmp.w	r3, #16384	; 0x4000
 8005c0c:	d816      	bhi.n	8005c3c <HAL_RCCEx_PeriphCLKConfig+0xaa4>
 8005c0e:	2b00      	cmp	r3, #0
 8005c10:	d01d      	beq.n	8005c4e <HAL_RCCEx_PeriphCLKConfig+0xab6>
 8005c12:	f5b3 5f00 	cmp.w	r3, #8192	; 0x2000
 8005c16:	d111      	bne.n	8005c3c <HAL_RCCEx_PeriphCLKConfig+0xaa4>
    case RCC_LPTIM345CLKSOURCE_PCLK4:      /* SRD/D3 PCLK1 (PCLK4) as clock source for LPTIM3/4/5 */
      /* LPTIM3/4/5 clock source configuration done later after clock selection check */
      break;

    case RCC_LPTIM345CLKSOURCE_PLL2: /* PLL2 is used as clock source for LPTIM3/4/5 */
      ret = RCCEx_PLL2_Config(&(PeriphClkInit->PLL2),DIVIDER_P_UPDATE);
 8005c18:	687b      	ldr	r3, [r7, #4]
 8005c1a:	3304      	adds	r3, #4
 8005c1c:	2100      	movs	r1, #0
 8005c1e:	4618      	mov	r0, r3
 8005c20:	f000 fc84 	bl	800652c <RCCEx_PLL2_Config>
 8005c24:	4603      	mov	r3, r0
 8005c26:	75fb      	strb	r3, [r7, #23]

      /* LPTIM3/4/5 clock source configuration done later after clock selection check */
      break;
 8005c28:	e012      	b.n	8005c50 <HAL_RCCEx_PeriphCLKConfig+0xab8>

    case RCC_LPTIM345CLKSOURCE_PLL3:  /* PLL3 is used as clock source for LPTIM3/4/5 */
      ret = RCCEx_PLL3_Config(&(PeriphClkInit->PLL3),DIVIDER_R_UPDATE);
 8005c2a:	687b      	ldr	r3, [r7, #4]
 8005c2c:	3324      	adds	r3, #36	; 0x24
 8005c2e:	2102      	movs	r1, #2
 8005c30:	4618      	mov	r0, r3
 8005c32:	f000 fd2d 	bl	8006690 <RCCEx_PLL3_Config>
 8005c36:	4603      	mov	r3, r0
 8005c38:	75fb      	strb	r3, [r7, #23]

      /* LPTIM3/4/5 clock source configuration done later after clock selection check */
      break;
 8005c3a:	e009      	b.n	8005c50 <HAL_RCCEx_PeriphCLKConfig+0xab8>
      /* HSI, HSE, or CSI oscillator is used as source of LPTIM3/4/5 clock */
      /* LPTIM3/4/5 clock source configuration done later after clock selection check */
      break;

    default:
      ret = HAL_ERROR;
 8005c3c:	2301      	movs	r3, #1
 8005c3e:	75fb      	strb	r3, [r7, #23]
      break;
 8005c40:	e006      	b.n	8005c50 <HAL_RCCEx_PeriphCLKConfig+0xab8>
      break;
 8005c42:	bf00      	nop
 8005c44:	e004      	b.n	8005c50 <HAL_RCCEx_PeriphCLKConfig+0xab8>
      break;
 8005c46:	bf00      	nop
 8005c48:	e002      	b.n	8005c50 <HAL_RCCEx_PeriphCLKConfig+0xab8>
      break;
 8005c4a:	bf00      	nop
 8005c4c:	e000      	b.n	8005c50 <HAL_RCCEx_PeriphCLKConfig+0xab8>
      break;
 8005c4e:	bf00      	nop
    }

    if(ret == HAL_OK)
 8005c50:	7dfb      	ldrb	r3, [r7, #23]
 8005c52:	2b00      	cmp	r3, #0
 8005c54:	d10c      	bne.n	8005c70 <HAL_RCCEx_PeriphCLKConfig+0xad8>
    {
      /* Set the source of LPTIM3/4/5 clock */
      __HAL_RCC_LPTIM345_CONFIG(PeriphClkInit->Lptim345ClockSelection);
 8005c56:	4b05      	ldr	r3, [pc, #20]	; (8005c6c <HAL_RCCEx_PeriphCLKConfig+0xad4>)
 8005c58:	6d9b      	ldr	r3, [r3, #88]	; 0x58
 8005c5a:	f423 4260 	bic.w	r2, r3, #57344	; 0xe000
 8005c5e:	687b      	ldr	r3, [r7, #4]
 8005c60:	f8d3 30a4 	ldr.w	r3, [r3, #164]	; 0xa4
 8005c64:	4901      	ldr	r1, [pc, #4]	; (8005c6c <HAL_RCCEx_PeriphCLKConfig+0xad4>)
 8005c66:	4313      	orrs	r3, r2
 8005c68:	658b      	str	r3, [r1, #88]	; 0x58
 8005c6a:	e003      	b.n	8005c74 <HAL_RCCEx_PeriphCLKConfig+0xadc>
 8005c6c:	58024400 	.word	0x58024400
    }
    else
    {
      /* set overall return value */
      status = ret;
 8005c70:	7dfb      	ldrb	r3, [r7, #23]
 8005c72:	75bb      	strb	r3, [r7, #22]

      __HAL_RCC_I2C1235_CONFIG(PeriphClkInit->I2c1235ClockSelection);

  }
#else
  if(((PeriphClkInit->PeriphClockSelection) & RCC_PERIPHCLK_I2C123) == RCC_PERIPHCLK_I2C123)
 8005c74:	687b      	ldr	r3, [r7, #4]
 8005c76:	681b      	ldr	r3, [r3, #0]
 8005c78:	f003 0308 	and.w	r3, r3, #8
 8005c7c:	2b00      	cmp	r3, #0
 8005c7e:	d01a      	beq.n	8005cb6 <HAL_RCCEx_PeriphCLKConfig+0xb1e>
  {
    /* Check the parameters */
    assert_param(IS_RCC_I2C123CLKSOURCE(PeriphClkInit->I2c123ClockSelection));

    if ((PeriphClkInit->I2c123ClockSelection )== RCC_I2C123CLKSOURCE_PLL3 )
 8005c80:	687b      	ldr	r3, [r7, #4]
 8005c82:	f8d3 3088 	ldr.w	r3, [r3, #136]	; 0x88
 8005c86:	f5b3 5f80 	cmp.w	r3, #4096	; 0x1000
 8005c8a:	d10a      	bne.n	8005ca2 <HAL_RCCEx_PeriphCLKConfig+0xb0a>
    {
        if(RCCEx_PLL3_Config(&(PeriphClkInit->PLL3),DIVIDER_R_UPDATE)!= HAL_OK)
 8005c8c:	687b      	ldr	r3, [r7, #4]
 8005c8e:	3324      	adds	r3, #36	; 0x24
 8005c90:	2102      	movs	r1, #2
 8005c92:	4618      	mov	r0, r3
 8005c94:	f000 fcfc 	bl	8006690 <RCCEx_PLL3_Config>
 8005c98:	4603      	mov	r3, r0
 8005c9a:	2b00      	cmp	r3, #0
 8005c9c:	d001      	beq.n	8005ca2 <HAL_RCCEx_PeriphCLKConfig+0xb0a>
        {
          status = HAL_ERROR;
 8005c9e:	2301      	movs	r3, #1
 8005ca0:	75bb      	strb	r3, [r7, #22]
        }
    }

      __HAL_RCC_I2C123_CONFIG(PeriphClkInit->I2c123ClockSelection);
 8005ca2:	4b8c      	ldr	r3, [pc, #560]	; (8005ed4 <HAL_RCCEx_PeriphCLKConfig+0xd3c>)
 8005ca4:	6d5b      	ldr	r3, [r3, #84]	; 0x54
 8005ca6:	f423 5240 	bic.w	r2, r3, #12288	; 0x3000
 8005caa:	687b      	ldr	r3, [r7, #4]
 8005cac:	f8d3 3088 	ldr.w	r3, [r3, #136]	; 0x88
 8005cb0:	4988      	ldr	r1, [pc, #544]	; (8005ed4 <HAL_RCCEx_PeriphCLKConfig+0xd3c>)
 8005cb2:	4313      	orrs	r3, r2
 8005cb4:	654b      	str	r3, [r1, #84]	; 0x54

  }
#endif /* I2C5 */

  /*------------------------------ I2C4 Configuration ------------------------*/
  if(((PeriphClkInit->PeriphClockSelection) & RCC_PERIPHCLK_I2C4) == RCC_PERIPHCLK_I2C4)
 8005cb6:	687b      	ldr	r3, [r7, #4]
 8005cb8:	681b      	ldr	r3, [r3, #0]
 8005cba:	f003 0310 	and.w	r3, r3, #16
 8005cbe:	2b00      	cmp	r3, #0
 8005cc0:	d01a      	beq.n	8005cf8 <HAL_RCCEx_PeriphCLKConfig+0xb60>
  {
    /* Check the parameters */
    assert_param(IS_RCC_I2C4CLKSOURCE(PeriphClkInit->I2c4ClockSelection));

    if ((PeriphClkInit->I2c4ClockSelection) == RCC_I2C4CLKSOURCE_PLL3 )
 8005cc2:	687b      	ldr	r3, [r7, #4]
 8005cc4:	f8d3 309c 	ldr.w	r3, [r3, #156]	; 0x9c
 8005cc8:	f5b3 7f80 	cmp.w	r3, #256	; 0x100
 8005ccc:	d10a      	bne.n	8005ce4 <HAL_RCCEx_PeriphCLKConfig+0xb4c>
    {
      if(RCCEx_PLL3_Config(&(PeriphClkInit->PLL3),DIVIDER_R_UPDATE)!= HAL_OK)
 8005cce:	687b      	ldr	r3, [r7, #4]
 8005cd0:	3324      	adds	r3, #36	; 0x24
 8005cd2:	2102      	movs	r1, #2
 8005cd4:	4618      	mov	r0, r3
 8005cd6:	f000 fcdb 	bl	8006690 <RCCEx_PLL3_Config>
 8005cda:	4603      	mov	r3, r0
 8005cdc:	2b00      	cmp	r3, #0
 8005cde:	d001      	beq.n	8005ce4 <HAL_RCCEx_PeriphCLKConfig+0xb4c>
      {
        status = HAL_ERROR;
 8005ce0:	2301      	movs	r3, #1
 8005ce2:	75bb      	strb	r3, [r7, #22]
      }
    }

      __HAL_RCC_I2C4_CONFIG(PeriphClkInit->I2c4ClockSelection);
 8005ce4:	4b7b      	ldr	r3, [pc, #492]	; (8005ed4 <HAL_RCCEx_PeriphCLKConfig+0xd3c>)
 8005ce6:	6d9b      	ldr	r3, [r3, #88]	; 0x58
 8005ce8:	f423 7240 	bic.w	r2, r3, #768	; 0x300
 8005cec:	687b      	ldr	r3, [r7, #4]
 8005cee:	f8d3 309c 	ldr.w	r3, [r3, #156]	; 0x9c
 8005cf2:	4978      	ldr	r1, [pc, #480]	; (8005ed4 <HAL_RCCEx_PeriphCLKConfig+0xd3c>)
 8005cf4:	4313      	orrs	r3, r2
 8005cf6:	658b      	str	r3, [r1, #88]	; 0x58

  }

  /*---------------------------- ADC configuration -------------------------------*/
  if(((PeriphClkInit->PeriphClockSelection) & RCC_PERIPHCLK_ADC) == RCC_PERIPHCLK_ADC)
 8005cf8:	687b      	ldr	r3, [r7, #4]
 8005cfa:	681b      	ldr	r3, [r3, #0]
 8005cfc:	f403 2300 	and.w	r3, r3, #524288	; 0x80000
 8005d00:	2b00      	cmp	r3, #0
 8005d02:	d034      	beq.n	8005d6e <HAL_RCCEx_PeriphCLKConfig+0xbd6>
  {
    switch(PeriphClkInit->AdcClockSelection)
 8005d04:	687b      	ldr	r3, [r7, #4]
 8005d06:	f8d3 30a8 	ldr.w	r3, [r3, #168]	; 0xa8
 8005d0a:	f5b3 3f00 	cmp.w	r3, #131072	; 0x20000
 8005d0e:	d01d      	beq.n	8005d4c <HAL_RCCEx_PeriphCLKConfig+0xbb4>
 8005d10:	f5b3 3f00 	cmp.w	r3, #131072	; 0x20000
 8005d14:	d817      	bhi.n	8005d46 <HAL_RCCEx_PeriphCLKConfig+0xbae>
 8005d16:	2b00      	cmp	r3, #0
 8005d18:	d003      	beq.n	8005d22 <HAL_RCCEx_PeriphCLKConfig+0xb8a>
 8005d1a:	f5b3 3f80 	cmp.w	r3, #65536	; 0x10000
 8005d1e:	d009      	beq.n	8005d34 <HAL_RCCEx_PeriphCLKConfig+0xb9c>
 8005d20:	e011      	b.n	8005d46 <HAL_RCCEx_PeriphCLKConfig+0xbae>
    {

    case RCC_ADCCLKSOURCE_PLL2: /* PLL2 is used as clock source for ADC*/

      ret = RCCEx_PLL2_Config(&(PeriphClkInit->PLL2),DIVIDER_P_UPDATE);
 8005d22:	687b      	ldr	r3, [r7, #4]
 8005d24:	3304      	adds	r3, #4
 8005d26:	2100      	movs	r1, #0
 8005d28:	4618      	mov	r0, r3
 8005d2a:	f000 fbff 	bl	800652c <RCCEx_PLL2_Config>
 8005d2e:	4603      	mov	r3, r0
 8005d30:	75fb      	strb	r3, [r7, #23]

      /* ADC clock source configuration done later after clock selection check */
      break;
 8005d32:	e00c      	b.n	8005d4e <HAL_RCCEx_PeriphCLKConfig+0xbb6>

    case RCC_ADCCLKSOURCE_PLL3:  /* PLL3 is used as clock source for ADC*/
      ret = RCCEx_PLL3_Config(&(PeriphClkInit->PLL3),DIVIDER_R_UPDATE);
 8005d34:	687b      	ldr	r3, [r7, #4]
 8005d36:	3324      	adds	r3, #36	; 0x24
 8005d38:	2102      	movs	r1, #2
 8005d3a:	4618      	mov	r0, r3
 8005d3c:	f000 fca8 	bl	8006690 <RCCEx_PLL3_Config>
 8005d40:	4603      	mov	r3, r0
 8005d42:	75fb      	strb	r3, [r7, #23]

      /* ADC clock source configuration done later after clock selection check */
      break;
 8005d44:	e003      	b.n	8005d4e <HAL_RCCEx_PeriphCLKConfig+0xbb6>
      /* HSI, HSE, or CSI oscillator is used as source of ADC clock */
      /* ADC clock source configuration done later after clock selection check */
      break;

    default:
      ret = HAL_ERROR;
 8005d46:	2301      	movs	r3, #1
 8005d48:	75fb      	strb	r3, [r7, #23]
      break;
 8005d4a:	e000      	b.n	8005d4e <HAL_RCCEx_PeriphCLKConfig+0xbb6>
      break;
 8005d4c:	bf00      	nop
    }

    if(ret == HAL_OK)
 8005d4e:	7dfb      	ldrb	r3, [r7, #23]
 8005d50:	2b00      	cmp	r3, #0
 8005d52:	d10a      	bne.n	8005d6a <HAL_RCCEx_PeriphCLKConfig+0xbd2>
    {
      /* Set the source of ADC clock*/
      __HAL_RCC_ADC_CONFIG(PeriphClkInit->AdcClockSelection);
 8005d54:	4b5f      	ldr	r3, [pc, #380]	; (8005ed4 <HAL_RCCEx_PeriphCLKConfig+0xd3c>)
 8005d56:	6d9b      	ldr	r3, [r3, #88]	; 0x58
 8005d58:	f423 3240 	bic.w	r2, r3, #196608	; 0x30000
 8005d5c:	687b      	ldr	r3, [r7, #4]
 8005d5e:	f8d3 30a8 	ldr.w	r3, [r3, #168]	; 0xa8
 8005d62:	495c      	ldr	r1, [pc, #368]	; (8005ed4 <HAL_RCCEx_PeriphCLKConfig+0xd3c>)
 8005d64:	4313      	orrs	r3, r2
 8005d66:	658b      	str	r3, [r1, #88]	; 0x58
 8005d68:	e001      	b.n	8005d6e <HAL_RCCEx_PeriphCLKConfig+0xbd6>
    }
    else
    {
      /* set overall return value */
      status = ret;
 8005d6a:	7dfb      	ldrb	r3, [r7, #23]
 8005d6c:	75bb      	strb	r3, [r7, #22]
    }
  }

  /*------------------------------ USB Configuration -------------------------*/
  if(((PeriphClkInit->PeriphClockSelection) & RCC_PERIPHCLK_USB) == RCC_PERIPHCLK_USB)
 8005d6e:	687b      	ldr	r3, [r7, #4]
 8005d70:	681b      	ldr	r3, [r3, #0]
 8005d72:	f403 2380 	and.w	r3, r3, #262144	; 0x40000
 8005d76:	2b00      	cmp	r3, #0
 8005d78:	d033      	beq.n	8005de2 <HAL_RCCEx_PeriphCLKConfig+0xc4a>
  {

    switch(PeriphClkInit->UsbClockSelection)
 8005d7a:	687b      	ldr	r3, [r7, #4]
 8005d7c:	f8d3 308c 	ldr.w	r3, [r3, #140]	; 0x8c
 8005d80:	f5b3 1f40 	cmp.w	r3, #3145728	; 0x300000
 8005d84:	d01c      	beq.n	8005dc0 <HAL_RCCEx_PeriphCLKConfig+0xc28>
 8005d86:	f5b3 1f40 	cmp.w	r3, #3145728	; 0x300000
 8005d8a:	d816      	bhi.n	8005dba <HAL_RCCEx_PeriphCLKConfig+0xc22>
 8005d8c:	f5b3 1f80 	cmp.w	r3, #1048576	; 0x100000
 8005d90:	d003      	beq.n	8005d9a <HAL_RCCEx_PeriphCLKConfig+0xc02>
 8005d92:	f5b3 1f00 	cmp.w	r3, #2097152	; 0x200000
 8005d96:	d007      	beq.n	8005da8 <HAL_RCCEx_PeriphCLKConfig+0xc10>
 8005d98:	e00f      	b.n	8005dba <HAL_RCCEx_PeriphCLKConfig+0xc22>
    {
    case RCC_USBCLKSOURCE_PLL:      /* PLL is used as clock source for USB*/
      /* Enable USB Clock output generated form System USB . */
      __HAL_RCC_PLLCLKOUT_ENABLE(RCC_PLL1_DIVQ);
 8005d9a:	4b4e      	ldr	r3, [pc, #312]	; (8005ed4 <HAL_RCCEx_PeriphCLKConfig+0xd3c>)
 8005d9c:	6adb      	ldr	r3, [r3, #44]	; 0x2c
 8005d9e:	4a4d      	ldr	r2, [pc, #308]	; (8005ed4 <HAL_RCCEx_PeriphCLKConfig+0xd3c>)
 8005da0:	f443 3300 	orr.w	r3, r3, #131072	; 0x20000
 8005da4:	62d3      	str	r3, [r2, #44]	; 0x2c

      /* USB clock source configuration done later after clock selection check */
      break;
 8005da6:	e00c      	b.n	8005dc2 <HAL_RCCEx_PeriphCLKConfig+0xc2a>

    case RCC_USBCLKSOURCE_PLL3: /* PLL3 is used as clock source for USB*/

      ret = RCCEx_PLL3_Config(&(PeriphClkInit->PLL3),DIVIDER_Q_UPDATE);
 8005da8:	687b      	ldr	r3, [r7, #4]
 8005daa:	3324      	adds	r3, #36	; 0x24
 8005dac:	2101      	movs	r1, #1
 8005dae:	4618      	mov	r0, r3
 8005db0:	f000 fc6e 	bl	8006690 <RCCEx_PLL3_Config>
 8005db4:	4603      	mov	r3, r0
 8005db6:	75fb      	strb	r3, [r7, #23]

      /* USB clock source configuration done later after clock selection check */
      break;
 8005db8:	e003      	b.n	8005dc2 <HAL_RCCEx_PeriphCLKConfig+0xc2a>
      /* HSI48 oscillator is used as source of USB clock */
      /* USB clock source configuration done later after clock selection check */
      break;

    default:
      ret = HAL_ERROR;
 8005dba:	2301      	movs	r3, #1
 8005dbc:	75fb      	strb	r3, [r7, #23]
      break;
 8005dbe:	e000      	b.n	8005dc2 <HAL_RCCEx_PeriphCLKConfig+0xc2a>
      break;
 8005dc0:	bf00      	nop
    }

    if(ret == HAL_OK)
 8005dc2:	7dfb      	ldrb	r3, [r7, #23]
 8005dc4:	2b00      	cmp	r3, #0
 8005dc6:	d10a      	bne.n	8005dde <HAL_RCCEx_PeriphCLKConfig+0xc46>
    {
      /* Set the source of USB clock*/
      __HAL_RCC_USB_CONFIG(PeriphClkInit->UsbClockSelection);
 8005dc8:	4b42      	ldr	r3, [pc, #264]	; (8005ed4 <HAL_RCCEx_PeriphCLKConfig+0xd3c>)
 8005dca:	6d5b      	ldr	r3, [r3, #84]	; 0x54
 8005dcc:	f423 1240 	bic.w	r2, r3, #3145728	; 0x300000
 8005dd0:	687b      	ldr	r3, [r7, #4]
 8005dd2:	f8d3 308c 	ldr.w	r3, [r3, #140]	; 0x8c
 8005dd6:	493f      	ldr	r1, [pc, #252]	; (8005ed4 <HAL_RCCEx_PeriphCLKConfig+0xd3c>)
 8005dd8:	4313      	orrs	r3, r2
 8005dda:	654b      	str	r3, [r1, #84]	; 0x54
 8005ddc:	e001      	b.n	8005de2 <HAL_RCCEx_PeriphCLKConfig+0xc4a>
    }
    else
    {
      /* set overall return value */
      status = ret;
 8005dde:	7dfb      	ldrb	r3, [r7, #23]
 8005de0:	75bb      	strb	r3, [r7, #22]
    }

  }

  /*------------------------------------- SDMMC Configuration ------------------------------------*/
  if(((PeriphClkInit->PeriphClockSelection) & RCC_PERIPHCLK_SDMMC) == RCC_PERIPHCLK_SDMMC)
 8005de2:	687b      	ldr	r3, [r7, #4]
 8005de4:	681b      	ldr	r3, [r3, #0]
 8005de6:	f403 3380 	and.w	r3, r3, #65536	; 0x10000
 8005dea:	2b00      	cmp	r3, #0
 8005dec:	d029      	beq.n	8005e42 <HAL_RCCEx_PeriphCLKConfig+0xcaa>
  {
    /* Check the parameters */
    assert_param(IS_RCC_SDMMC(PeriphClkInit->SdmmcClockSelection));

    switch(PeriphClkInit->SdmmcClockSelection)
 8005dee:	687b      	ldr	r3, [r7, #4]
 8005df0:	6cdb      	ldr	r3, [r3, #76]	; 0x4c
 8005df2:	2b00      	cmp	r3, #0
 8005df4:	d003      	beq.n	8005dfe <HAL_RCCEx_PeriphCLKConfig+0xc66>
 8005df6:	f5b3 3f80 	cmp.w	r3, #65536	; 0x10000
 8005dfa:	d007      	beq.n	8005e0c <HAL_RCCEx_PeriphCLKConfig+0xc74>
 8005dfc:	e00f      	b.n	8005e1e <HAL_RCCEx_PeriphCLKConfig+0xc86>
    {
    case RCC_SDMMCCLKSOURCE_PLL:      /* PLL is used as clock source for SDMMC*/
      /* Enable SDMMC Clock output generated form System PLL . */
      __HAL_RCC_PLLCLKOUT_ENABLE(RCC_PLL1_DIVQ);
 8005dfe:	4b35      	ldr	r3, [pc, #212]	; (8005ed4 <HAL_RCCEx_PeriphCLKConfig+0xd3c>)
 8005e00:	6adb      	ldr	r3, [r3, #44]	; 0x2c
 8005e02:	4a34      	ldr	r2, [pc, #208]	; (8005ed4 <HAL_RCCEx_PeriphCLKConfig+0xd3c>)
 8005e04:	f443 3300 	orr.w	r3, r3, #131072	; 0x20000
 8005e08:	62d3      	str	r3, [r2, #44]	; 0x2c

      /* SDMMC clock source configuration done later after clock selection check */
      break;
 8005e0a:	e00b      	b.n	8005e24 <HAL_RCCEx_PeriphCLKConfig+0xc8c>

    case RCC_SDMMCCLKSOURCE_PLL2: /* PLL2 is used as clock source for SDMMC*/

      ret = RCCEx_PLL2_Config(&(PeriphClkInit->PLL2),DIVIDER_R_UPDATE);
 8005e0c:	687b      	ldr	r3, [r7, #4]
 8005e0e:	3304      	adds	r3, #4
 8005e10:	2102      	movs	r1, #2
 8005e12:	4618      	mov	r0, r3
 8005e14:	f000 fb8a 	bl	800652c <RCCEx_PLL2_Config>
 8005e18:	4603      	mov	r3, r0
 8005e1a:	75fb      	strb	r3, [r7, #23]

      /* SDMMC clock source configuration done later after clock selection check */
      break;
 8005e1c:	e002      	b.n	8005e24 <HAL_RCCEx_PeriphCLKConfig+0xc8c>

    default:
      ret = HAL_ERROR;
 8005e1e:	2301      	movs	r3, #1
 8005e20:	75fb      	strb	r3, [r7, #23]
      break;
 8005e22:	bf00      	nop
    }

    if(ret == HAL_OK)
 8005e24:	7dfb      	ldrb	r3, [r7, #23]
 8005e26:	2b00      	cmp	r3, #0
 8005e28:	d109      	bne.n	8005e3e <HAL_RCCEx_PeriphCLKConfig+0xca6>
    {
      /* Set the source of SDMMC clock*/
      __HAL_RCC_SDMMC_CONFIG(PeriphClkInit->SdmmcClockSelection);
 8005e2a:	4b2a      	ldr	r3, [pc, #168]	; (8005ed4 <HAL_RCCEx_PeriphCLKConfig+0xd3c>)
 8005e2c:	6cdb      	ldr	r3, [r3, #76]	; 0x4c
 8005e2e:	f423 3280 	bic.w	r2, r3, #65536	; 0x10000
 8005e32:	687b      	ldr	r3, [r7, #4]
 8005e34:	6cdb      	ldr	r3, [r3, #76]	; 0x4c
 8005e36:	4927      	ldr	r1, [pc, #156]	; (8005ed4 <HAL_RCCEx_PeriphCLKConfig+0xd3c>)
 8005e38:	4313      	orrs	r3, r2
 8005e3a:	64cb      	str	r3, [r1, #76]	; 0x4c
 8005e3c:	e001      	b.n	8005e42 <HAL_RCCEx_PeriphCLKConfig+0xcaa>
    }
    else
    {
      /* set overall return value */
      status = ret;
 8005e3e:	7dfb      	ldrb	r3, [r7, #23]
 8005e40:	75bb      	strb	r3, [r7, #22]
    }
  }

#if defined(LTDC)
  /*-------------------------------------- LTDC Configuration -----------------------------------*/
  if(((PeriphClkInit->PeriphClockSelection) & RCC_PERIPHCLK_LTDC) == RCC_PERIPHCLK_LTDC)
 8005e42:	687b      	ldr	r3, [r7, #4]
 8005e44:	681b      	ldr	r3, [r3, #0]
 8005e46:	f003 5300 	and.w	r3, r3, #536870912	; 0x20000000
 8005e4a:	2b00      	cmp	r3, #0
 8005e4c:	d00a      	beq.n	8005e64 <HAL_RCCEx_PeriphCLKConfig+0xccc>
  {
    if(RCCEx_PLL3_Config(&(PeriphClkInit->PLL3),DIVIDER_R_UPDATE)!=HAL_OK)
 8005e4e:	687b      	ldr	r3, [r7, #4]
 8005e50:	3324      	adds	r3, #36	; 0x24
 8005e52:	2102      	movs	r1, #2
 8005e54:	4618      	mov	r0, r3
 8005e56:	f000 fc1b 	bl	8006690 <RCCEx_PLL3_Config>
 8005e5a:	4603      	mov	r3, r0
 8005e5c:	2b00      	cmp	r3, #0
 8005e5e:	d001      	beq.n	8005e64 <HAL_RCCEx_PeriphCLKConfig+0xccc>
    {
      status=HAL_ERROR;
 8005e60:	2301      	movs	r3, #1
 8005e62:	75bb      	strb	r3, [r7, #22]
    }
  }
#endif /* LTDC */

  /*------------------------------ RNG Configuration -------------------------*/
  if(((PeriphClkInit->PeriphClockSelection) & RCC_PERIPHCLK_RNG) == RCC_PERIPHCLK_RNG)
 8005e64:	687b      	ldr	r3, [r7, #4]
 8005e66:	681b      	ldr	r3, [r3, #0]
 8005e68:	f403 3300 	and.w	r3, r3, #131072	; 0x20000
 8005e6c:	2b00      	cmp	r3, #0
 8005e6e:	d035      	beq.n	8005edc <HAL_RCCEx_PeriphCLKConfig+0xd44>
  {

    switch(PeriphClkInit->RngClockSelection)
 8005e70:	687b      	ldr	r3, [r7, #4]
 8005e72:	f8d3 3084 	ldr.w	r3, [r3, #132]	; 0x84
 8005e76:	f5b3 7f40 	cmp.w	r3, #768	; 0x300
 8005e7a:	d017      	beq.n	8005eac <HAL_RCCEx_PeriphCLKConfig+0xd14>
 8005e7c:	f5b3 7f40 	cmp.w	r3, #768	; 0x300
 8005e80:	d811      	bhi.n	8005ea6 <HAL_RCCEx_PeriphCLKConfig+0xd0e>
 8005e82:	f5b3 7f00 	cmp.w	r3, #512	; 0x200
 8005e86:	d013      	beq.n	8005eb0 <HAL_RCCEx_PeriphCLKConfig+0xd18>
 8005e88:	f5b3 7f00 	cmp.w	r3, #512	; 0x200
 8005e8c:	d80b      	bhi.n	8005ea6 <HAL_RCCEx_PeriphCLKConfig+0xd0e>
 8005e8e:	2b00      	cmp	r3, #0
 8005e90:	d010      	beq.n	8005eb4 <HAL_RCCEx_PeriphCLKConfig+0xd1c>
 8005e92:	f5b3 7f80 	cmp.w	r3, #256	; 0x100
 8005e96:	d106      	bne.n	8005ea6 <HAL_RCCEx_PeriphCLKConfig+0xd0e>
    {
    case RCC_RNGCLKSOURCE_PLL:     /* PLL is used as clock source for RNG*/
      /* Enable RNG Clock output generated form System RNG . */
      __HAL_RCC_PLLCLKOUT_ENABLE(RCC_PLL1_DIVQ);
 8005e98:	4b0e      	ldr	r3, [pc, #56]	; (8005ed4 <HAL_RCCEx_PeriphCLKConfig+0xd3c>)
 8005e9a:	6adb      	ldr	r3, [r3, #44]	; 0x2c
 8005e9c:	4a0d      	ldr	r2, [pc, #52]	; (8005ed4 <HAL_RCCEx_PeriphCLKConfig+0xd3c>)
 8005e9e:	f443 3300 	orr.w	r3, r3, #131072	; 0x20000
 8005ea2:	62d3      	str	r3, [r2, #44]	; 0x2c

      /* RNG clock source configuration done later after clock selection check */
      break;
 8005ea4:	e007      	b.n	8005eb6 <HAL_RCCEx_PeriphCLKConfig+0xd1e>
      /* HSI48 oscillator is used as source of RNG clock */
      /* RNG clock source configuration done later after clock selection check */
      break;

    default:
      ret = HAL_ERROR;
 8005ea6:	2301      	movs	r3, #1
 8005ea8:	75fb      	strb	r3, [r7, #23]
      break;
 8005eaa:	e004      	b.n	8005eb6 <HAL_RCCEx_PeriphCLKConfig+0xd1e>
      break;
 8005eac:	bf00      	nop
 8005eae:	e002      	b.n	8005eb6 <HAL_RCCEx_PeriphCLKConfig+0xd1e>
      break;
 8005eb0:	bf00      	nop
 8005eb2:	e000      	b.n	8005eb6 <HAL_RCCEx_PeriphCLKConfig+0xd1e>
      break;
 8005eb4:	bf00      	nop
    }

    if(ret == HAL_OK)
 8005eb6:	7dfb      	ldrb	r3, [r7, #23]
 8005eb8:	2b00      	cmp	r3, #0
 8005eba:	d10d      	bne.n	8005ed8 <HAL_RCCEx_PeriphCLKConfig+0xd40>
    {
      /* Set the source of RNG clock*/
      __HAL_RCC_RNG_CONFIG(PeriphClkInit->RngClockSelection);
 8005ebc:	4b05      	ldr	r3, [pc, #20]	; (8005ed4 <HAL_RCCEx_PeriphCLKConfig+0xd3c>)
 8005ebe:	6d5b      	ldr	r3, [r3, #84]	; 0x54
 8005ec0:	f423 7240 	bic.w	r2, r3, #768	; 0x300
 8005ec4:	687b      	ldr	r3, [r7, #4]
 8005ec6:	f8d3 3084 	ldr.w	r3, [r3, #132]	; 0x84
 8005eca:	4902      	ldr	r1, [pc, #8]	; (8005ed4 <HAL_RCCEx_PeriphCLKConfig+0xd3c>)
 8005ecc:	4313      	orrs	r3, r2
 8005ece:	654b      	str	r3, [r1, #84]	; 0x54
 8005ed0:	e004      	b.n	8005edc <HAL_RCCEx_PeriphCLKConfig+0xd44>
 8005ed2:	bf00      	nop
 8005ed4:	58024400 	.word	0x58024400
    }
    else
    {
      /* set overall return value */
      status = ret;
 8005ed8:	7dfb      	ldrb	r3, [r7, #23]
 8005eda:	75bb      	strb	r3, [r7, #22]
    }

  }

  /*------------------------------ SWPMI1 Configuration ------------------------*/
  if(((PeriphClkInit->PeriphClockSelection) & RCC_PERIPHCLK_SWPMI1) == RCC_PERIPHCLK_SWPMI1)
 8005edc:	687b      	ldr	r3, [r7, #4]
 8005ede:	681b      	ldr	r3, [r3, #0]
 8005ee0:	f403 1380 	and.w	r3, r3, #1048576	; 0x100000
 8005ee4:	2b00      	cmp	r3, #0
 8005ee6:	d008      	beq.n	8005efa <HAL_RCCEx_PeriphCLKConfig+0xd62>
  {
    /* Check the parameters */
    assert_param(IS_RCC_SWPMI1CLKSOURCE(PeriphClkInit->Swpmi1ClockSelection));

    /* Configure the SWPMI1 interface clock source */
    __HAL_RCC_SWPMI1_CONFIG(PeriphClkInit->Swpmi1ClockSelection);
 8005ee8:	4b30      	ldr	r3, [pc, #192]	; (8005fac <HAL_RCCEx_PeriphCLKConfig+0xe14>)
 8005eea:	6d1b      	ldr	r3, [r3, #80]	; 0x50
 8005eec:	f023 4200 	bic.w	r2, r3, #2147483648	; 0x80000000
 8005ef0:	687b      	ldr	r3, [r7, #4]
 8005ef2:	6f9b      	ldr	r3, [r3, #120]	; 0x78
 8005ef4:	492d      	ldr	r1, [pc, #180]	; (8005fac <HAL_RCCEx_PeriphCLKConfig+0xe14>)
 8005ef6:	4313      	orrs	r3, r2
 8005ef8:	650b      	str	r3, [r1, #80]	; 0x50
    /* Configure the HRTIM1 clock source */
    __HAL_RCC_HRTIM1_CONFIG(PeriphClkInit->Hrtim1ClockSelection);
  }
#endif  /*HRTIM1*/
  /*------------------------------ DFSDM1 Configuration ------------------------*/
  if(((PeriphClkInit->PeriphClockSelection) & RCC_PERIPHCLK_DFSDM1) == RCC_PERIPHCLK_DFSDM1)
 8005efa:	687b      	ldr	r3, [r7, #4]
 8005efc:	681b      	ldr	r3, [r3, #0]
 8005efe:	f403 1300 	and.w	r3, r3, #2097152	; 0x200000
 8005f02:	2b00      	cmp	r3, #0
 8005f04:	d008      	beq.n	8005f18 <HAL_RCCEx_PeriphCLKConfig+0xd80>
  {
    /* Check the parameters */
    assert_param(IS_RCC_DFSDM1CLKSOURCE(PeriphClkInit->Dfsdm1ClockSelection));

    /* Configure the DFSDM1 interface clock source */
    __HAL_RCC_DFSDM1_CONFIG(PeriphClkInit->Dfsdm1ClockSelection);
 8005f06:	4b29      	ldr	r3, [pc, #164]	; (8005fac <HAL_RCCEx_PeriphCLKConfig+0xe14>)
 8005f08:	6d1b      	ldr	r3, [r3, #80]	; 0x50
 8005f0a:	f023 7280 	bic.w	r2, r3, #16777216	; 0x1000000
 8005f0e:	687b      	ldr	r3, [r7, #4]
 8005f10:	6edb      	ldr	r3, [r3, #108]	; 0x6c
 8005f12:	4926      	ldr	r1, [pc, #152]	; (8005fac <HAL_RCCEx_PeriphCLKConfig+0xe14>)
 8005f14:	4313      	orrs	r3, r2
 8005f16:	650b      	str	r3, [r1, #80]	; 0x50
  }

#if defined(DFSDM2_BASE)
  /*------------------------------ DFSDM2 Configuration ------------------------*/
  if(((PeriphClkInit->PeriphClockSelection) & RCC_PERIPHCLK_DFSDM2) == RCC_PERIPHCLK_DFSDM2)
 8005f18:	687b      	ldr	r3, [r7, #4]
 8005f1a:	681b      	ldr	r3, [r3, #0]
 8005f1c:	f403 6300 	and.w	r3, r3, #2048	; 0x800
 8005f20:	2b00      	cmp	r3, #0
 8005f22:	d008      	beq.n	8005f36 <HAL_RCCEx_PeriphCLKConfig+0xd9e>
  {
    /* Check the parameters */
    assert_param(IS_RCC_DFSDM2CLKSOURCE(PeriphClkInit->Dfsdm2ClockSelection));

    /* Configure the DFSDM2 interface clock source */
    __HAL_RCC_DFSDM2_CONFIG(PeriphClkInit->Dfsdm2ClockSelection);
 8005f24:	4b21      	ldr	r3, [pc, #132]	; (8005fac <HAL_RCCEx_PeriphCLKConfig+0xe14>)
 8005f26:	6d9b      	ldr	r3, [r3, #88]	; 0x58
 8005f28:	f023 6200 	bic.w	r2, r3, #134217728	; 0x8000000
 8005f2c:	687b      	ldr	r3, [r7, #4]
 8005f2e:	6f1b      	ldr	r3, [r3, #112]	; 0x70
 8005f30:	491e      	ldr	r1, [pc, #120]	; (8005fac <HAL_RCCEx_PeriphCLKConfig+0xe14>)
 8005f32:	4313      	orrs	r3, r2
 8005f34:	658b      	str	r3, [r1, #88]	; 0x58
  }
#endif  /* DFSDM2 */

  /*------------------------------------ TIM configuration --------------------------------------*/
  if(((PeriphClkInit->PeriphClockSelection) & RCC_PERIPHCLK_TIM) == RCC_PERIPHCLK_TIM)
 8005f36:	687b      	ldr	r3, [r7, #4]
 8005f38:	681b      	ldr	r3, [r3, #0]
 8005f3a:	f003 4380 	and.w	r3, r3, #1073741824	; 0x40000000
 8005f3e:	2b00      	cmp	r3, #0
 8005f40:	d00d      	beq.n	8005f5e <HAL_RCCEx_PeriphCLKConfig+0xdc6>
  {
    /* Check the parameters */
    assert_param(IS_RCC_TIMPRES(PeriphClkInit->TIMPresSelection));

    /* Configure Timer Prescaler */
    __HAL_RCC_TIMCLKPRESCALER(PeriphClkInit->TIMPresSelection);
 8005f42:	4b1a      	ldr	r3, [pc, #104]	; (8005fac <HAL_RCCEx_PeriphCLKConfig+0xe14>)
 8005f44:	691b      	ldr	r3, [r3, #16]
 8005f46:	4a19      	ldr	r2, [pc, #100]	; (8005fac <HAL_RCCEx_PeriphCLKConfig+0xe14>)
 8005f48:	f423 4300 	bic.w	r3, r3, #32768	; 0x8000
 8005f4c:	6113      	str	r3, [r2, #16]
 8005f4e:	4b17      	ldr	r3, [pc, #92]	; (8005fac <HAL_RCCEx_PeriphCLKConfig+0xe14>)
 8005f50:	691a      	ldr	r2, [r3, #16]
 8005f52:	687b      	ldr	r3, [r7, #4]
 8005f54:	f8d3 30b4 	ldr.w	r3, [r3, #180]	; 0xb4
 8005f58:	4914      	ldr	r1, [pc, #80]	; (8005fac <HAL_RCCEx_PeriphCLKConfig+0xe14>)
 8005f5a:	4313      	orrs	r3, r2
 8005f5c:	610b      	str	r3, [r1, #16]
  }

  /*------------------------------------ CKPER configuration --------------------------------------*/
  if(((PeriphClkInit->PeriphClockSelection) & RCC_PERIPHCLK_CKPER) == RCC_PERIPHCLK_CKPER)
 8005f5e:	687b      	ldr	r3, [r7, #4]
 8005f60:	681b      	ldr	r3, [r3, #0]
 8005f62:	2b00      	cmp	r3, #0
 8005f64:	da08      	bge.n	8005f78 <HAL_RCCEx_PeriphCLKConfig+0xde0>
  {
    /* Check the parameters */
    assert_param(IS_RCC_CLKPSOURCE(PeriphClkInit->CkperClockSelection));

    /* Configure the CKPER clock source */
    __HAL_RCC_CLKP_CONFIG(PeriphClkInit->CkperClockSelection);
 8005f66:	4b11      	ldr	r3, [pc, #68]	; (8005fac <HAL_RCCEx_PeriphCLKConfig+0xe14>)
 8005f68:	6cdb      	ldr	r3, [r3, #76]	; 0x4c
 8005f6a:	f023 5240 	bic.w	r2, r3, #805306368	; 0x30000000
 8005f6e:	687b      	ldr	r3, [r7, #4]
 8005f70:	6d1b      	ldr	r3, [r3, #80]	; 0x50
 8005f72:	490e      	ldr	r1, [pc, #56]	; (8005fac <HAL_RCCEx_PeriphCLKConfig+0xe14>)
 8005f74:	4313      	orrs	r3, r2
 8005f76:	64cb      	str	r3, [r1, #76]	; 0x4c
  }

  /*------------------------------ CEC Configuration ------------------------*/
  if(((PeriphClkInit->PeriphClockSelection) & RCC_PERIPHCLK_CEC) == RCC_PERIPHCLK_CEC)
 8005f78:	687b      	ldr	r3, [r7, #4]
 8005f7a:	681b      	ldr	r3, [r3, #0]
 8005f7c:	f403 0300 	and.w	r3, r3, #8388608	; 0x800000
 8005f80:	2b00      	cmp	r3, #0
 8005f82:	d009      	beq.n	8005f98 <HAL_RCCEx_PeriphCLKConfig+0xe00>
  {
    /* Check the parameters */
    assert_param(IS_RCC_CECCLKSOURCE(PeriphClkInit->CecClockSelection));

    /* Configure the CEC interface clock source */
    __HAL_RCC_CEC_CONFIG(PeriphClkInit->CecClockSelection);
 8005f84:	4b09      	ldr	r3, [pc, #36]	; (8005fac <HAL_RCCEx_PeriphCLKConfig+0xe14>)
 8005f86:	6d5b      	ldr	r3, [r3, #84]	; 0x54
 8005f88:	f423 0240 	bic.w	r2, r3, #12582912	; 0xc00000
 8005f8c:	687b      	ldr	r3, [r7, #4]
 8005f8e:	f8d3 3090 	ldr.w	r3, [r3, #144]	; 0x90
 8005f92:	4906      	ldr	r1, [pc, #24]	; (8005fac <HAL_RCCEx_PeriphCLKConfig+0xe14>)
 8005f94:	4313      	orrs	r3, r2
 8005f96:	654b      	str	r3, [r1, #84]	; 0x54
  }

  if (status == HAL_OK)
 8005f98:	7dbb      	ldrb	r3, [r7, #22]
 8005f9a:	2b00      	cmp	r3, #0
 8005f9c:	d101      	bne.n	8005fa2 <HAL_RCCEx_PeriphCLKConfig+0xe0a>
  {
    return HAL_OK;
 8005f9e:	2300      	movs	r3, #0
 8005fa0:	e000      	b.n	8005fa4 <HAL_RCCEx_PeriphCLKConfig+0xe0c>
  }
  return HAL_ERROR;
 8005fa2:	2301      	movs	r3, #1
}
 8005fa4:	4618      	mov	r0, r3
 8005fa6:	3718      	adds	r7, #24
 8005fa8:	46bd      	mov	sp, r7
 8005faa:	bd80      	pop	{r7, pc}
 8005fac:	58024400 	.word	0x58024400

08005fb0 <HAL_RCCEx_GetD3PCLK1Freq>:
  * @note   Each time D3PCLK1 changes, this function must be called to update the
  *         right D3PCLK1 value. Otherwise, any configuration based on this function will be incorrect.
  * @retval D3PCLK1 frequency
  */
uint32_t HAL_RCCEx_GetD3PCLK1Freq(void)
{
 8005fb0:	b580      	push	{r7, lr}
 8005fb2:	af00      	add	r7, sp, #0
#if defined(RCC_D3CFGR_D3PPRE)
  /* Get HCLK source and Compute D3PCLK1 frequency ---------------------------*/
  return (HAL_RCC_GetHCLKFreq() >> (D1CorePrescTable[(RCC->D3CFGR & RCC_D3CFGR_D3PPRE)>> RCC_D3CFGR_D3PPRE_Pos] & 0x1FU));
#else
  /* Get HCLK source and Compute D3PCLK1 frequency ---------------------------*/
  return (HAL_RCC_GetHCLKFreq() >> (D1CorePrescTable[(RCC->SRDCFGR & RCC_SRDCFGR_SRDPPRE)>> RCC_SRDCFGR_SRDPPRE_Pos] & 0x1FU));
 8005fb4:	f7ff f894 	bl	80050e0 <HAL_RCC_GetHCLKFreq>
 8005fb8:	4602      	mov	r2, r0
 8005fba:	4b06      	ldr	r3, [pc, #24]	; (8005fd4 <HAL_RCCEx_GetD3PCLK1Freq+0x24>)
 8005fbc:	6a1b      	ldr	r3, [r3, #32]
 8005fbe:	091b      	lsrs	r3, r3, #4
 8005fc0:	f003 0307 	and.w	r3, r3, #7
 8005fc4:	4904      	ldr	r1, [pc, #16]	; (8005fd8 <HAL_RCCEx_GetD3PCLK1Freq+0x28>)
 8005fc6:	5ccb      	ldrb	r3, [r1, r3]
 8005fc8:	f003 031f 	and.w	r3, r3, #31
 8005fcc:	fa22 f303 	lsr.w	r3, r2, r3
#endif
}
 8005fd0:	4618      	mov	r0, r3
 8005fd2:	bd80      	pop	{r7, pc}
 8005fd4:	58024400 	.word	0x58024400
 8005fd8:	0801988c 	.word	0x0801988c

08005fdc <HAL_RCCEx_GetPLL2ClockFreq>:
  *         right PLL2CLK value. Otherwise, any configuration based on this function will be incorrect.
  * @param  PLL2_Clocks structure.
  * @retval None
  */
void HAL_RCCEx_GetPLL2ClockFreq(PLL2_ClocksTypeDef* PLL2_Clocks)
{
 8005fdc:	b480      	push	{r7}
 8005fde:	b089      	sub	sp, #36	; 0x24
 8005fe0:	af00      	add	r7, sp, #0
 8005fe2:	6078      	str	r0, [r7, #4]
  float_t fracn2, pll2vco;

  /* PLL_VCO = (HSE_VALUE or HSI_VALUE or CSI_VALUE/ PLL2M) * PLL2N
     PLL2xCLK = PLL2_VCO / PLL2x
  */
  pllsource = (RCC->PLLCKSELR & RCC_PLLCKSELR_PLLSRC);
 8005fe4:	4ba1      	ldr	r3, [pc, #644]	; (800626c <HAL_RCCEx_GetPLL2ClockFreq+0x290>)
 8005fe6:	6a9b      	ldr	r3, [r3, #40]	; 0x28
 8005fe8:	f003 0303 	and.w	r3, r3, #3
 8005fec:	61bb      	str	r3, [r7, #24]
  pll2m = ((RCC->PLLCKSELR & RCC_PLLCKSELR_DIVM2)>> 12);
 8005fee:	4b9f      	ldr	r3, [pc, #636]	; (800626c <HAL_RCCEx_GetPLL2ClockFreq+0x290>)
 8005ff0:	6a9b      	ldr	r3, [r3, #40]	; 0x28
 8005ff2:	0b1b      	lsrs	r3, r3, #12
 8005ff4:	f003 033f 	and.w	r3, r3, #63	; 0x3f
 8005ff8:	617b      	str	r3, [r7, #20]
  pll2fracen = (RCC->PLLCFGR & RCC_PLLCFGR_PLL2FRACEN) >> RCC_PLLCFGR_PLL2FRACEN_Pos;
 8005ffa:	4b9c      	ldr	r3, [pc, #624]	; (800626c <HAL_RCCEx_GetPLL2ClockFreq+0x290>)
 8005ffc:	6adb      	ldr	r3, [r3, #44]	; 0x2c
 8005ffe:	091b      	lsrs	r3, r3, #4
 8006000:	f003 0301 	and.w	r3, r3, #1
 8006004:	613b      	str	r3, [r7, #16]
  fracn2 =(float_t)(uint32_t)(pll2fracen* ((RCC->PLL2FRACR & RCC_PLL2FRACR_FRACN2)>> 3));
 8006006:	4b99      	ldr	r3, [pc, #612]	; (800626c <HAL_RCCEx_GetPLL2ClockFreq+0x290>)
 8006008:	6bdb      	ldr	r3, [r3, #60]	; 0x3c
 800600a:	08db      	lsrs	r3, r3, #3
 800600c:	f3c3 030c 	ubfx	r3, r3, #0, #13
 8006010:	693a      	ldr	r2, [r7, #16]
 8006012:	fb02 f303 	mul.w	r3, r2, r3
 8006016:	ee07 3a90 	vmov	s15, r3
 800601a:	eef8 7a67 	vcvt.f32.u32	s15, s15
 800601e:	edc7 7a03 	vstr	s15, [r7, #12]

  if (pll2m != 0U)
 8006022:	697b      	ldr	r3, [r7, #20]
 8006024:	2b00      	cmp	r3, #0
 8006026:	f000 8111 	beq.w	800624c <HAL_RCCEx_GetPLL2ClockFreq+0x270>
  {
    switch (pllsource)
 800602a:	69bb      	ldr	r3, [r7, #24]
 800602c:	2b02      	cmp	r3, #2
 800602e:	f000 8083 	beq.w	8006138 <HAL_RCCEx_GetPLL2ClockFreq+0x15c>
 8006032:	69bb      	ldr	r3, [r7, #24]
 8006034:	2b02      	cmp	r3, #2
 8006036:	f200 80a1 	bhi.w	800617c <HAL_RCCEx_GetPLL2ClockFreq+0x1a0>
 800603a:	69bb      	ldr	r3, [r7, #24]
 800603c:	2b00      	cmp	r3, #0
 800603e:	d003      	beq.n	8006048 <HAL_RCCEx_GetPLL2ClockFreq+0x6c>
 8006040:	69bb      	ldr	r3, [r7, #24]
 8006042:	2b01      	cmp	r3, #1
 8006044:	d056      	beq.n	80060f4 <HAL_RCCEx_GetPLL2ClockFreq+0x118>
 8006046:	e099      	b.n	800617c <HAL_RCCEx_GetPLL2ClockFreq+0x1a0>
    {

    case RCC_PLLSOURCE_HSI:  /* HSI used as PLL clock source */

      if (__HAL_RCC_GET_FLAG(RCC_FLAG_HSIDIV) != 0U)
 8006048:	4b88      	ldr	r3, [pc, #544]	; (800626c <HAL_RCCEx_GetPLL2ClockFreq+0x290>)
 800604a:	681b      	ldr	r3, [r3, #0]
 800604c:	f003 0320 	and.w	r3, r3, #32
 8006050:	2b00      	cmp	r3, #0
 8006052:	d02d      	beq.n	80060b0 <HAL_RCCEx_GetPLL2ClockFreq+0xd4>
      {
        hsivalue = (HSI_VALUE >> (__HAL_RCC_GET_HSI_DIVIDER()>> 3));
 8006054:	4b85      	ldr	r3, [pc, #532]	; (800626c <HAL_RCCEx_GetPLL2ClockFreq+0x290>)
 8006056:	681b      	ldr	r3, [r3, #0]
 8006058:	08db      	lsrs	r3, r3, #3
 800605a:	f003 0303 	and.w	r3, r3, #3
 800605e:	4a84      	ldr	r2, [pc, #528]	; (8006270 <HAL_RCCEx_GetPLL2ClockFreq+0x294>)
 8006060:	fa22 f303 	lsr.w	r3, r2, r3
 8006064:	60bb      	str	r3, [r7, #8]
        pll2vco = ( (float_t)hsivalue / (float_t)pll2m) * ((float_t)(uint32_t)(RCC->PLL2DIVR & RCC_PLL2DIVR_N2) + (fracn2/(float_t)0x2000) +(float_t)1 );
 8006066:	68bb      	ldr	r3, [r7, #8]
 8006068:	ee07 3a90 	vmov	s15, r3
 800606c:	eef8 6a67 	vcvt.f32.u32	s13, s15
 8006070:	697b      	ldr	r3, [r7, #20]
 8006072:	ee07 3a90 	vmov	s15, r3
 8006076:	eef8 7a67 	vcvt.f32.u32	s15, s15
 800607a:	ee86 7aa7 	vdiv.f32	s14, s13, s15
 800607e:	4b7b      	ldr	r3, [pc, #492]	; (800626c <HAL_RCCEx_GetPLL2ClockFreq+0x290>)
 8006080:	6b9b      	ldr	r3, [r3, #56]	; 0x38
 8006082:	f3c3 0308 	ubfx	r3, r3, #0, #9
 8006086:	ee07 3a90 	vmov	s15, r3
 800608a:	eef8 6a67 	vcvt.f32.u32	s13, s15
 800608e:	ed97 6a03 	vldr	s12, [r7, #12]
 8006092:	eddf 5a78 	vldr	s11, [pc, #480]	; 8006274 <HAL_RCCEx_GetPLL2ClockFreq+0x298>
 8006096:	eec6 7a25 	vdiv.f32	s15, s12, s11
 800609a:	ee76 7aa7 	vadd.f32	s15, s13, s15
 800609e:	eef7 6a00 	vmov.f32	s13, #112	; 0x3f800000  1.0
 80060a2:	ee77 7aa6 	vadd.f32	s15, s15, s13
 80060a6:	ee67 7a27 	vmul.f32	s15, s14, s15
 80060aa:	edc7 7a07 	vstr	s15, [r7, #28]
      }
      else
      {
        pll2vco = ((float_t)HSI_VALUE / (float_t)pll2m) * ((float_t)(uint32_t)(RCC->PLL2DIVR & RCC_PLL2DIVR_N2) + (fracn2/(float_t)0x2000) +(float_t)1 );
      }
      break;
 80060ae:	e087      	b.n	80061c0 <HAL_RCCEx_GetPLL2ClockFreq+0x1e4>
        pll2vco = ((float_t)HSI_VALUE / (float_t)pll2m) * ((float_t)(uint32_t)(RCC->PLL2DIVR & RCC_PLL2DIVR_N2) + (fracn2/(float_t)0x2000) +(float_t)1 );
 80060b0:	697b      	ldr	r3, [r7, #20]
 80060b2:	ee07 3a90 	vmov	s15, r3
 80060b6:	eef8 7a67 	vcvt.f32.u32	s15, s15
 80060ba:	eddf 6a6f 	vldr	s13, [pc, #444]	; 8006278 <HAL_RCCEx_GetPLL2ClockFreq+0x29c>
 80060be:	ee86 7aa7 	vdiv.f32	s14, s13, s15
 80060c2:	4b6a      	ldr	r3, [pc, #424]	; (800626c <HAL_RCCEx_GetPLL2ClockFreq+0x290>)
 80060c4:	6b9b      	ldr	r3, [r3, #56]	; 0x38
 80060c6:	f3c3 0308 	ubfx	r3, r3, #0, #9
 80060ca:	ee07 3a90 	vmov	s15, r3
 80060ce:	eef8 6a67 	vcvt.f32.u32	s13, s15
 80060d2:	ed97 6a03 	vldr	s12, [r7, #12]
 80060d6:	eddf 5a67 	vldr	s11, [pc, #412]	; 8006274 <HAL_RCCEx_GetPLL2ClockFreq+0x298>
 80060da:	eec6 7a25 	vdiv.f32	s15, s12, s11
 80060de:	ee76 7aa7 	vadd.f32	s15, s13, s15
 80060e2:	eef7 6a00 	vmov.f32	s13, #112	; 0x3f800000  1.0
 80060e6:	ee77 7aa6 	vadd.f32	s15, s15, s13
 80060ea:	ee67 7a27 	vmul.f32	s15, s14, s15
 80060ee:	edc7 7a07 	vstr	s15, [r7, #28]
      break;
 80060f2:	e065      	b.n	80061c0 <HAL_RCCEx_GetPLL2ClockFreq+0x1e4>

    case RCC_PLLSOURCE_CSI:  /* CSI used as PLL clock source */
      pll2vco = ((float_t)CSI_VALUE / (float_t)pll2m) * ((float_t)(uint32_t)(RCC->PLL2DIVR & RCC_PLL2DIVR_N2) + (fracn2/(float_t)0x2000) +(float_t)1 );
 80060f4:	697b      	ldr	r3, [r7, #20]
 80060f6:	ee07 3a90 	vmov	s15, r3
 80060fa:	eef8 7a67 	vcvt.f32.u32	s15, s15
 80060fe:	eddf 6a5f 	vldr	s13, [pc, #380]	; 800627c <HAL_RCCEx_GetPLL2ClockFreq+0x2a0>
 8006102:	ee86 7aa7 	vdiv.f32	s14, s13, s15
 8006106:	4b59      	ldr	r3, [pc, #356]	; (800626c <HAL_RCCEx_GetPLL2ClockFreq+0x290>)
 8006108:	6b9b      	ldr	r3, [r3, #56]	; 0x38
 800610a:	f3c3 0308 	ubfx	r3, r3, #0, #9
 800610e:	ee07 3a90 	vmov	s15, r3
 8006112:	eef8 6a67 	vcvt.f32.u32	s13, s15
 8006116:	ed97 6a03 	vldr	s12, [r7, #12]
 800611a:	eddf 5a56 	vldr	s11, [pc, #344]	; 8006274 <HAL_RCCEx_GetPLL2ClockFreq+0x298>
 800611e:	eec6 7a25 	vdiv.f32	s15, s12, s11
 8006122:	ee76 7aa7 	vadd.f32	s15, s13, s15
 8006126:	eef7 6a00 	vmov.f32	s13, #112	; 0x3f800000  1.0
 800612a:	ee77 7aa6 	vadd.f32	s15, s15, s13
 800612e:	ee67 7a27 	vmul.f32	s15, s14, s15
 8006132:	edc7 7a07 	vstr	s15, [r7, #28]
      break;
 8006136:	e043      	b.n	80061c0 <HAL_RCCEx_GetPLL2ClockFreq+0x1e4>

    case RCC_PLLSOURCE_HSE:  /* HSE used as PLL clock source */
      pll2vco = ((float_t)HSE_VALUE / (float_t)pll2m) * ((float_t)(uint32_t)(RCC->PLL2DIVR & RCC_PLL2DIVR_N2) + (fracn2/(float_t)0x2000) +(float_t)1 );
 8006138:	697b      	ldr	r3, [r7, #20]
 800613a:	ee07 3a90 	vmov	s15, r3
 800613e:	eef8 7a67 	vcvt.f32.u32	s15, s15
 8006142:	eddf 6a4f 	vldr	s13, [pc, #316]	; 8006280 <HAL_RCCEx_GetPLL2ClockFreq+0x2a4>
 8006146:	ee86 7aa7 	vdiv.f32	s14, s13, s15
 800614a:	4b48      	ldr	r3, [pc, #288]	; (800626c <HAL_RCCEx_GetPLL2ClockFreq+0x290>)
 800614c:	6b9b      	ldr	r3, [r3, #56]	; 0x38
 800614e:	f3c3 0308 	ubfx	r3, r3, #0, #9
 8006152:	ee07 3a90 	vmov	s15, r3
 8006156:	eef8 6a67 	vcvt.f32.u32	s13, s15
 800615a:	ed97 6a03 	vldr	s12, [r7, #12]
 800615e:	eddf 5a45 	vldr	s11, [pc, #276]	; 8006274 <HAL_RCCEx_GetPLL2ClockFreq+0x298>
 8006162:	eec6 7a25 	vdiv.f32	s15, s12, s11
 8006166:	ee76 7aa7 	vadd.f32	s15, s13, s15
 800616a:	eef7 6a00 	vmov.f32	s13, #112	; 0x3f800000  1.0
 800616e:	ee77 7aa6 	vadd.f32	s15, s15, s13
 8006172:	ee67 7a27 	vmul.f32	s15, s14, s15
 8006176:	edc7 7a07 	vstr	s15, [r7, #28]
      break;
 800617a:	e021      	b.n	80061c0 <HAL_RCCEx_GetPLL2ClockFreq+0x1e4>

    default:
      pll2vco = ((float_t)CSI_VALUE / (float_t)pll2m) * ((float_t)(uint32_t)(RCC->PLL2DIVR & RCC_PLL2DIVR_N2) + (fracn2/(float_t)0x2000) +(float_t)1 );
 800617c:	697b      	ldr	r3, [r7, #20]
 800617e:	ee07 3a90 	vmov	s15, r3
 8006182:	eef8 7a67 	vcvt.f32.u32	s15, s15
 8006186:	eddf 6a3d 	vldr	s13, [pc, #244]	; 800627c <HAL_RCCEx_GetPLL2ClockFreq+0x2a0>
 800618a:	ee86 7aa7 	vdiv.f32	s14, s13, s15
 800618e:	4b37      	ldr	r3, [pc, #220]	; (800626c <HAL_RCCEx_GetPLL2ClockFreq+0x290>)
 8006190:	6b9b      	ldr	r3, [r3, #56]	; 0x38
 8006192:	f3c3 0308 	ubfx	r3, r3, #0, #9
 8006196:	ee07 3a90 	vmov	s15, r3
 800619a:	eef8 6a67 	vcvt.f32.u32	s13, s15
 800619e:	ed97 6a03 	vldr	s12, [r7, #12]
 80061a2:	eddf 5a34 	vldr	s11, [pc, #208]	; 8006274 <HAL_RCCEx_GetPLL2ClockFreq+0x298>
 80061a6:	eec6 7a25 	vdiv.f32	s15, s12, s11
 80061aa:	ee76 7aa7 	vadd.f32	s15, s13, s15
 80061ae:	eef7 6a00 	vmov.f32	s13, #112	; 0x3f800000  1.0
 80061b2:	ee77 7aa6 	vadd.f32	s15, s15, s13
 80061b6:	ee67 7a27 	vmul.f32	s15, s14, s15
 80061ba:	edc7 7a07 	vstr	s15, [r7, #28]
      break;
 80061be:	bf00      	nop
    }
    PLL2_Clocks->PLL2_P_Frequency = (uint32_t)(float_t)(pll2vco/((float_t)(uint32_t)((RCC->PLL2DIVR & RCC_PLL2DIVR_P2) >>9)  + (float_t)1 )) ;
 80061c0:	4b2a      	ldr	r3, [pc, #168]	; (800626c <HAL_RCCEx_GetPLL2ClockFreq+0x290>)
 80061c2:	6b9b      	ldr	r3, [r3, #56]	; 0x38
 80061c4:	0a5b      	lsrs	r3, r3, #9
 80061c6:	f003 037f 	and.w	r3, r3, #127	; 0x7f
 80061ca:	ee07 3a90 	vmov	s15, r3
 80061ce:	eef8 7a67 	vcvt.f32.u32	s15, s15
 80061d2:	eeb7 7a00 	vmov.f32	s14, #112	; 0x3f800000  1.0
 80061d6:	ee37 7a87 	vadd.f32	s14, s15, s14
 80061da:	edd7 6a07 	vldr	s13, [r7, #28]
 80061de:	eec6 7a87 	vdiv.f32	s15, s13, s14
 80061e2:	eefc 7ae7 	vcvt.u32.f32	s15, s15
 80061e6:	ee17 2a90 	vmov	r2, s15
 80061ea:	687b      	ldr	r3, [r7, #4]
 80061ec:	601a      	str	r2, [r3, #0]
    PLL2_Clocks->PLL2_Q_Frequency = (uint32_t)(float_t)(pll2vco/((float_t)(uint32_t)((RCC->PLL2DIVR & RCC_PLL2DIVR_Q2) >>16) + (float_t)1 )) ;
 80061ee:	4b1f      	ldr	r3, [pc, #124]	; (800626c <HAL_RCCEx_GetPLL2ClockFreq+0x290>)
 80061f0:	6b9b      	ldr	r3, [r3, #56]	; 0x38
 80061f2:	0c1b      	lsrs	r3, r3, #16
 80061f4:	f003 037f 	and.w	r3, r3, #127	; 0x7f
 80061f8:	ee07 3a90 	vmov	s15, r3
 80061fc:	eef8 7a67 	vcvt.f32.u32	s15, s15
 8006200:	eeb7 7a00 	vmov.f32	s14, #112	; 0x3f800000  1.0
 8006204:	ee37 7a87 	vadd.f32	s14, s15, s14
 8006208:	edd7 6a07 	vldr	s13, [r7, #28]
 800620c:	eec6 7a87 	vdiv.f32	s15, s13, s14
 8006210:	eefc 7ae7 	vcvt.u32.f32	s15, s15
 8006214:	ee17 2a90 	vmov	r2, s15
 8006218:	687b      	ldr	r3, [r7, #4]
 800621a:	605a      	str	r2, [r3, #4]
    PLL2_Clocks->PLL2_R_Frequency = (uint32_t)(float_t)(pll2vco/((float_t)(uint32_t)((RCC->PLL2DIVR & RCC_PLL2DIVR_R2) >>24) + (float_t)1 )) ;
 800621c:	4b13      	ldr	r3, [pc, #76]	; (800626c <HAL_RCCEx_GetPLL2ClockFreq+0x290>)
 800621e:	6b9b      	ldr	r3, [r3, #56]	; 0x38
 8006220:	0e1b      	lsrs	r3, r3, #24
 8006222:	f003 037f 	and.w	r3, r3, #127	; 0x7f
 8006226:	ee07 3a90 	vmov	s15, r3
 800622a:	eef8 7a67 	vcvt.f32.u32	s15, s15
 800622e:	eeb7 7a00 	vmov.f32	s14, #112	; 0x3f800000  1.0
 8006232:	ee37 7a87 	vadd.f32	s14, s15, s14
 8006236:	edd7 6a07 	vldr	s13, [r7, #28]
 800623a:	eec6 7a87 	vdiv.f32	s15, s13, s14
 800623e:	eefc 7ae7 	vcvt.u32.f32	s15, s15
 8006242:	ee17 2a90 	vmov	r2, s15
 8006246:	687b      	ldr	r3, [r7, #4]
 8006248:	609a      	str	r2, [r3, #8]
  {
    PLL2_Clocks->PLL2_P_Frequency = 0U;
    PLL2_Clocks->PLL2_Q_Frequency = 0U;
    PLL2_Clocks->PLL2_R_Frequency = 0U;
  }
}
 800624a:	e008      	b.n	800625e <HAL_RCCEx_GetPLL2ClockFreq+0x282>
    PLL2_Clocks->PLL2_P_Frequency = 0U;
 800624c:	687b      	ldr	r3, [r7, #4]
 800624e:	2200      	movs	r2, #0
 8006250:	601a      	str	r2, [r3, #0]
    PLL2_Clocks->PLL2_Q_Frequency = 0U;
 8006252:	687b      	ldr	r3, [r7, #4]
 8006254:	2200      	movs	r2, #0
 8006256:	605a      	str	r2, [r3, #4]
    PLL2_Clocks->PLL2_R_Frequency = 0U;
 8006258:	687b      	ldr	r3, [r7, #4]
 800625a:	2200      	movs	r2, #0
 800625c:	609a      	str	r2, [r3, #8]
}
 800625e:	bf00      	nop
 8006260:	3724      	adds	r7, #36	; 0x24
 8006262:	46bd      	mov	sp, r7
 8006264:	f85d 7b04 	ldr.w	r7, [sp], #4
 8006268:	4770      	bx	lr
 800626a:	bf00      	nop
 800626c:	58024400 	.word	0x58024400
 8006270:	03d09000 	.word	0x03d09000
 8006274:	46000000 	.word	0x46000000
 8006278:	4c742400 	.word	0x4c742400
 800627c:	4a742400 	.word	0x4a742400
 8006280:	4af42400 	.word	0x4af42400

08006284 <HAL_RCCEx_GetPLL3ClockFreq>:
  *         right PLL3CLK value. Otherwise, any configuration based on this function will be incorrect.
  * @param  PLL3_Clocks structure.
  * @retval None
  */
void HAL_RCCEx_GetPLL3ClockFreq(PLL3_ClocksTypeDef* PLL3_Clocks)
{
 8006284:	b480      	push	{r7}
 8006286:	b089      	sub	sp, #36	; 0x24
 8006288:	af00      	add	r7, sp, #0
 800628a:	6078      	str	r0, [r7, #4]
  float_t fracn3, pll3vco;

  /* PLL3_VCO = (HSE_VALUE or HSI_VALUE or CSI_VALUE/ PLL3M) * PLL3N
     PLL3xCLK = PLL3_VCO / PLLxR
  */
  pllsource = (RCC->PLLCKSELR & RCC_PLLCKSELR_PLLSRC);
 800628c:	4ba1      	ldr	r3, [pc, #644]	; (8006514 <HAL_RCCEx_GetPLL3ClockFreq+0x290>)
 800628e:	6a9b      	ldr	r3, [r3, #40]	; 0x28
 8006290:	f003 0303 	and.w	r3, r3, #3
 8006294:	61bb      	str	r3, [r7, #24]
  pll3m = ((RCC->PLLCKSELR & RCC_PLLCKSELR_DIVM3)>> 20)  ;
 8006296:	4b9f      	ldr	r3, [pc, #636]	; (8006514 <HAL_RCCEx_GetPLL3ClockFreq+0x290>)
 8006298:	6a9b      	ldr	r3, [r3, #40]	; 0x28
 800629a:	0d1b      	lsrs	r3, r3, #20
 800629c:	f003 033f 	and.w	r3, r3, #63	; 0x3f
 80062a0:	617b      	str	r3, [r7, #20]
  pll3fracen = (RCC->PLLCFGR & RCC_PLLCFGR_PLL3FRACEN) >> RCC_PLLCFGR_PLL3FRACEN_Pos;
 80062a2:	4b9c      	ldr	r3, [pc, #624]	; (8006514 <HAL_RCCEx_GetPLL3ClockFreq+0x290>)
 80062a4:	6adb      	ldr	r3, [r3, #44]	; 0x2c
 80062a6:	0a1b      	lsrs	r3, r3, #8
 80062a8:	f003 0301 	and.w	r3, r3, #1
 80062ac:	613b      	str	r3, [r7, #16]
  fracn3 = (float_t)(uint32_t)(pll3fracen* ((RCC->PLL3FRACR & RCC_PLL3FRACR_FRACN3)>> 3));
 80062ae:	4b99      	ldr	r3, [pc, #612]	; (8006514 <HAL_RCCEx_GetPLL3ClockFreq+0x290>)
 80062b0:	6c5b      	ldr	r3, [r3, #68]	; 0x44
 80062b2:	08db      	lsrs	r3, r3, #3
 80062b4:	f3c3 030c 	ubfx	r3, r3, #0, #13
 80062b8:	693a      	ldr	r2, [r7, #16]
 80062ba:	fb02 f303 	mul.w	r3, r2, r3
 80062be:	ee07 3a90 	vmov	s15, r3
 80062c2:	eef8 7a67 	vcvt.f32.u32	s15, s15
 80062c6:	edc7 7a03 	vstr	s15, [r7, #12]

  if (pll3m != 0U)
 80062ca:	697b      	ldr	r3, [r7, #20]
 80062cc:	2b00      	cmp	r3, #0
 80062ce:	f000 8111 	beq.w	80064f4 <HAL_RCCEx_GetPLL3ClockFreq+0x270>
  {
    switch (pllsource)
 80062d2:	69bb      	ldr	r3, [r7, #24]
 80062d4:	2b02      	cmp	r3, #2
 80062d6:	f000 8083 	beq.w	80063e0 <HAL_RCCEx_GetPLL3ClockFreq+0x15c>
 80062da:	69bb      	ldr	r3, [r7, #24]
 80062dc:	2b02      	cmp	r3, #2
 80062de:	f200 80a1 	bhi.w	8006424 <HAL_RCCEx_GetPLL3ClockFreq+0x1a0>
 80062e2:	69bb      	ldr	r3, [r7, #24]
 80062e4:	2b00      	cmp	r3, #0
 80062e6:	d003      	beq.n	80062f0 <HAL_RCCEx_GetPLL3ClockFreq+0x6c>
 80062e8:	69bb      	ldr	r3, [r7, #24]
 80062ea:	2b01      	cmp	r3, #1
 80062ec:	d056      	beq.n	800639c <HAL_RCCEx_GetPLL3ClockFreq+0x118>
 80062ee:	e099      	b.n	8006424 <HAL_RCCEx_GetPLL3ClockFreq+0x1a0>
    {
    case RCC_PLLSOURCE_HSI:  /* HSI used as PLL clock source */

      if (__HAL_RCC_GET_FLAG(RCC_FLAG_HSIDIV) != 0U)
 80062f0:	4b88      	ldr	r3, [pc, #544]	; (8006514 <HAL_RCCEx_GetPLL3ClockFreq+0x290>)
 80062f2:	681b      	ldr	r3, [r3, #0]
 80062f4:	f003 0320 	and.w	r3, r3, #32
 80062f8:	2b00      	cmp	r3, #0
 80062fa:	d02d      	beq.n	8006358 <HAL_RCCEx_GetPLL3ClockFreq+0xd4>
      {
        hsivalue = (HSI_VALUE >> (__HAL_RCC_GET_HSI_DIVIDER()>> 3));
 80062fc:	4b85      	ldr	r3, [pc, #532]	; (8006514 <HAL_RCCEx_GetPLL3ClockFreq+0x290>)
 80062fe:	681b      	ldr	r3, [r3, #0]
 8006300:	08db      	lsrs	r3, r3, #3
 8006302:	f003 0303 	and.w	r3, r3, #3
 8006306:	4a84      	ldr	r2, [pc, #528]	; (8006518 <HAL_RCCEx_GetPLL3ClockFreq+0x294>)
 8006308:	fa22 f303 	lsr.w	r3, r2, r3
 800630c:	60bb      	str	r3, [r7, #8]
        pll3vco = ((float_t)hsivalue / (float_t)pll3m) * ((float_t)(uint32_t)(RCC->PLL3DIVR & RCC_PLL3DIVR_N3) + (fracn3/(float_t)0x2000) +(float_t)1 );
 800630e:	68bb      	ldr	r3, [r7, #8]
 8006310:	ee07 3a90 	vmov	s15, r3
 8006314:	eef8 6a67 	vcvt.f32.u32	s13, s15
 8006318:	697b      	ldr	r3, [r7, #20]
 800631a:	ee07 3a90 	vmov	s15, r3
 800631e:	eef8 7a67 	vcvt.f32.u32	s15, s15
 8006322:	ee86 7aa7 	vdiv.f32	s14, s13, s15
 8006326:	4b7b      	ldr	r3, [pc, #492]	; (8006514 <HAL_RCCEx_GetPLL3ClockFreq+0x290>)
 8006328:	6c1b      	ldr	r3, [r3, #64]	; 0x40
 800632a:	f3c3 0308 	ubfx	r3, r3, #0, #9
 800632e:	ee07 3a90 	vmov	s15, r3
 8006332:	eef8 6a67 	vcvt.f32.u32	s13, s15
 8006336:	ed97 6a03 	vldr	s12, [r7, #12]
 800633a:	eddf 5a78 	vldr	s11, [pc, #480]	; 800651c <HAL_RCCEx_GetPLL3ClockFreq+0x298>
 800633e:	eec6 7a25 	vdiv.f32	s15, s12, s11
 8006342:	ee76 7aa7 	vadd.f32	s15, s13, s15
 8006346:	eef7 6a00 	vmov.f32	s13, #112	; 0x3f800000  1.0
 800634a:	ee77 7aa6 	vadd.f32	s15, s15, s13
 800634e:	ee67 7a27 	vmul.f32	s15, s14, s15
 8006352:	edc7 7a07 	vstr	s15, [r7, #28]
      }
      else
      {
        pll3vco = ((float_t)HSI_VALUE / (float_t)pll3m) * ((float_t)(uint32_t)(RCC->PLL3DIVR & RCC_PLL3DIVR_N3) + (fracn3/(float_t)0x2000) +(float_t)1 );
      }
      break;
 8006356:	e087      	b.n	8006468 <HAL_RCCEx_GetPLL3ClockFreq+0x1e4>
        pll3vco = ((float_t)HSI_VALUE / (float_t)pll3m) * ((float_t)(uint32_t)(RCC->PLL3DIVR & RCC_PLL3DIVR_N3) + (fracn3/(float_t)0x2000) +(float_t)1 );
 8006358:	697b      	ldr	r3, [r7, #20]
 800635a:	ee07 3a90 	vmov	s15, r3
 800635e:	eef8 7a67 	vcvt.f32.u32	s15, s15
 8006362:	eddf 6a6f 	vldr	s13, [pc, #444]	; 8006520 <HAL_RCCEx_GetPLL3ClockFreq+0x29c>
 8006366:	ee86 7aa7 	vdiv.f32	s14, s13, s15
 800636a:	4b6a      	ldr	r3, [pc, #424]	; (8006514 <HAL_RCCEx_GetPLL3ClockFreq+0x290>)
 800636c:	6c1b      	ldr	r3, [r3, #64]	; 0x40
 800636e:	f3c3 0308 	ubfx	r3, r3, #0, #9
 8006372:	ee07 3a90 	vmov	s15, r3
 8006376:	eef8 6a67 	vcvt.f32.u32	s13, s15
 800637a:	ed97 6a03 	vldr	s12, [r7, #12]
 800637e:	eddf 5a67 	vldr	s11, [pc, #412]	; 800651c <HAL_RCCEx_GetPLL3ClockFreq+0x298>
 8006382:	eec6 7a25 	vdiv.f32	s15, s12, s11
 8006386:	ee76 7aa7 	vadd.f32	s15, s13, s15
 800638a:	eef7 6a00 	vmov.f32	s13, #112	; 0x3f800000  1.0
 800638e:	ee77 7aa6 	vadd.f32	s15, s15, s13
 8006392:	ee67 7a27 	vmul.f32	s15, s14, s15
 8006396:	edc7 7a07 	vstr	s15, [r7, #28]
      break;
 800639a:	e065      	b.n	8006468 <HAL_RCCEx_GetPLL3ClockFreq+0x1e4>
    case RCC_PLLSOURCE_CSI:  /* CSI used as PLL clock source */
      pll3vco = ((float_t)CSI_VALUE / (float_t)pll3m) * ((float_t)(uint32_t)(RCC->PLL3DIVR & RCC_PLL3DIVR_N3) + (fracn3/(float_t)0x2000) +(float_t)1 );
 800639c:	697b      	ldr	r3, [r7, #20]
 800639e:	ee07 3a90 	vmov	s15, r3
 80063a2:	eef8 7a67 	vcvt.f32.u32	s15, s15
 80063a6:	eddf 6a5f 	vldr	s13, [pc, #380]	; 8006524 <HAL_RCCEx_GetPLL3ClockFreq+0x2a0>
 80063aa:	ee86 7aa7 	vdiv.f32	s14, s13, s15
 80063ae:	4b59      	ldr	r3, [pc, #356]	; (8006514 <HAL_RCCEx_GetPLL3ClockFreq+0x290>)
 80063b0:	6c1b      	ldr	r3, [r3, #64]	; 0x40
 80063b2:	f3c3 0308 	ubfx	r3, r3, #0, #9
 80063b6:	ee07 3a90 	vmov	s15, r3
 80063ba:	eef8 6a67 	vcvt.f32.u32	s13, s15
 80063be:	ed97 6a03 	vldr	s12, [r7, #12]
 80063c2:	eddf 5a56 	vldr	s11, [pc, #344]	; 800651c <HAL_RCCEx_GetPLL3ClockFreq+0x298>
 80063c6:	eec6 7a25 	vdiv.f32	s15, s12, s11
 80063ca:	ee76 7aa7 	vadd.f32	s15, s13, s15
 80063ce:	eef7 6a00 	vmov.f32	s13, #112	; 0x3f800000  1.0
 80063d2:	ee77 7aa6 	vadd.f32	s15, s15, s13
 80063d6:	ee67 7a27 	vmul.f32	s15, s14, s15
 80063da:	edc7 7a07 	vstr	s15, [r7, #28]
      break;
 80063de:	e043      	b.n	8006468 <HAL_RCCEx_GetPLL3ClockFreq+0x1e4>

    case RCC_PLLSOURCE_HSE:  /* HSE used as PLL clock source */
      pll3vco = ((float_t)HSE_VALUE / (float_t)pll3m) * ((float_t)(uint32_t)(RCC->PLL3DIVR & RCC_PLL3DIVR_N3) + (fracn3/(float_t)0x2000) +(float_t)1 );
 80063e0:	697b      	ldr	r3, [r7, #20]
 80063e2:	ee07 3a90 	vmov	s15, r3
 80063e6:	eef8 7a67 	vcvt.f32.u32	s15, s15
 80063ea:	eddf 6a4f 	vldr	s13, [pc, #316]	; 8006528 <HAL_RCCEx_GetPLL3ClockFreq+0x2a4>
 80063ee:	ee86 7aa7 	vdiv.f32	s14, s13, s15
 80063f2:	4b48      	ldr	r3, [pc, #288]	; (8006514 <HAL_RCCEx_GetPLL3ClockFreq+0x290>)
 80063f4:	6c1b      	ldr	r3, [r3, #64]	; 0x40
 80063f6:	f3c3 0308 	ubfx	r3, r3, #0, #9
 80063fa:	ee07 3a90 	vmov	s15, r3
 80063fe:	eef8 6a67 	vcvt.f32.u32	s13, s15
 8006402:	ed97 6a03 	vldr	s12, [r7, #12]
 8006406:	eddf 5a45 	vldr	s11, [pc, #276]	; 800651c <HAL_RCCEx_GetPLL3ClockFreq+0x298>
 800640a:	eec6 7a25 	vdiv.f32	s15, s12, s11
 800640e:	ee76 7aa7 	vadd.f32	s15, s13, s15
 8006412:	eef7 6a00 	vmov.f32	s13, #112	; 0x3f800000  1.0
 8006416:	ee77 7aa6 	vadd.f32	s15, s15, s13
 800641a:	ee67 7a27 	vmul.f32	s15, s14, s15
 800641e:	edc7 7a07 	vstr	s15, [r7, #28]
      break;
 8006422:	e021      	b.n	8006468 <HAL_RCCEx_GetPLL3ClockFreq+0x1e4>

    default:
      pll3vco = ((float_t)CSI_VALUE / (float_t)pll3m) * ((float_t)(uint32_t)(RCC->PLL3DIVR & RCC_PLL3DIVR_N3) + (fracn3/(float_t)0x2000) +(float_t)1 );
 8006424:	697b      	ldr	r3, [r7, #20]
 8006426:	ee07 3a90 	vmov	s15, r3
 800642a:	eef8 7a67 	vcvt.f32.u32	s15, s15
 800642e:	eddf 6a3d 	vldr	s13, [pc, #244]	; 8006524 <HAL_RCCEx_GetPLL3ClockFreq+0x2a0>
 8006432:	ee86 7aa7 	vdiv.f32	s14, s13, s15
 8006436:	4b37      	ldr	r3, [pc, #220]	; (8006514 <HAL_RCCEx_GetPLL3ClockFreq+0x290>)
 8006438:	6c1b      	ldr	r3, [r3, #64]	; 0x40
 800643a:	f3c3 0308 	ubfx	r3, r3, #0, #9
 800643e:	ee07 3a90 	vmov	s15, r3
 8006442:	eef8 6a67 	vcvt.f32.u32	s13, s15
 8006446:	ed97 6a03 	vldr	s12, [r7, #12]
 800644a:	eddf 5a34 	vldr	s11, [pc, #208]	; 800651c <HAL_RCCEx_GetPLL3ClockFreq+0x298>
 800644e:	eec6 7a25 	vdiv.f32	s15, s12, s11
 8006452:	ee76 7aa7 	vadd.f32	s15, s13, s15
 8006456:	eef7 6a00 	vmov.f32	s13, #112	; 0x3f800000  1.0
 800645a:	ee77 7aa6 	vadd.f32	s15, s15, s13
 800645e:	ee67 7a27 	vmul.f32	s15, s14, s15
 8006462:	edc7 7a07 	vstr	s15, [r7, #28]
      break;
 8006466:	bf00      	nop
    }
    PLL3_Clocks->PLL3_P_Frequency = (uint32_t)(float_t)(pll3vco/((float_t)(uint32_t)((RCC->PLL3DIVR & RCC_PLL3DIVR_P3) >>9)  + (float_t)1 )) ;
 8006468:	4b2a      	ldr	r3, [pc, #168]	; (8006514 <HAL_RCCEx_GetPLL3ClockFreq+0x290>)
 800646a:	6c1b      	ldr	r3, [r3, #64]	; 0x40
 800646c:	0a5b      	lsrs	r3, r3, #9
 800646e:	f003 037f 	and.w	r3, r3, #127	; 0x7f
 8006472:	ee07 3a90 	vmov	s15, r3
 8006476:	eef8 7a67 	vcvt.f32.u32	s15, s15
 800647a:	eeb7 7a00 	vmov.f32	s14, #112	; 0x3f800000  1.0
 800647e:	ee37 7a87 	vadd.f32	s14, s15, s14
 8006482:	edd7 6a07 	vldr	s13, [r7, #28]
 8006486:	eec6 7a87 	vdiv.f32	s15, s13, s14
 800648a:	eefc 7ae7 	vcvt.u32.f32	s15, s15
 800648e:	ee17 2a90 	vmov	r2, s15
 8006492:	687b      	ldr	r3, [r7, #4]
 8006494:	601a      	str	r2, [r3, #0]
    PLL3_Clocks->PLL3_Q_Frequency = (uint32_t)(float_t)(pll3vco/((float_t)(uint32_t)((RCC->PLL3DIVR & RCC_PLL3DIVR_Q3) >>16) + (float_t)1 )) ;
 8006496:	4b1f      	ldr	r3, [pc, #124]	; (8006514 <HAL_RCCEx_GetPLL3ClockFreq+0x290>)
 8006498:	6c1b      	ldr	r3, [r3, #64]	; 0x40
 800649a:	0c1b      	lsrs	r3, r3, #16
 800649c:	f003 037f 	and.w	r3, r3, #127	; 0x7f
 80064a0:	ee07 3a90 	vmov	s15, r3
 80064a4:	eef8 7a67 	vcvt.f32.u32	s15, s15
 80064a8:	eeb7 7a00 	vmov.f32	s14, #112	; 0x3f800000  1.0
 80064ac:	ee37 7a87 	vadd.f32	s14, s15, s14
 80064b0:	edd7 6a07 	vldr	s13, [r7, #28]
 80064b4:	eec6 7a87 	vdiv.f32	s15, s13, s14
 80064b8:	eefc 7ae7 	vcvt.u32.f32	s15, s15
 80064bc:	ee17 2a90 	vmov	r2, s15
 80064c0:	687b      	ldr	r3, [r7, #4]
 80064c2:	605a      	str	r2, [r3, #4]
    PLL3_Clocks->PLL3_R_Frequency = (uint32_t)(float_t)(pll3vco/((float_t)(uint32_t)((RCC->PLL3DIVR & RCC_PLL3DIVR_R3) >>24) + (float_t)1 )) ;
 80064c4:	4b13      	ldr	r3, [pc, #76]	; (8006514 <HAL_RCCEx_GetPLL3ClockFreq+0x290>)
 80064c6:	6c1b      	ldr	r3, [r3, #64]	; 0x40
 80064c8:	0e1b      	lsrs	r3, r3, #24
 80064ca:	f003 037f 	and.w	r3, r3, #127	; 0x7f
 80064ce:	ee07 3a90 	vmov	s15, r3
 80064d2:	eef8 7a67 	vcvt.f32.u32	s15, s15
 80064d6:	eeb7 7a00 	vmov.f32	s14, #112	; 0x3f800000  1.0
 80064da:	ee37 7a87 	vadd.f32	s14, s15, s14
 80064de:	edd7 6a07 	vldr	s13, [r7, #28]
 80064e2:	eec6 7a87 	vdiv.f32	s15, s13, s14
 80064e6:	eefc 7ae7 	vcvt.u32.f32	s15, s15
 80064ea:	ee17 2a90 	vmov	r2, s15
 80064ee:	687b      	ldr	r3, [r7, #4]
 80064f0:	609a      	str	r2, [r3, #8]
    PLL3_Clocks->PLL3_P_Frequency = 0U;
    PLL3_Clocks->PLL3_Q_Frequency = 0U;
    PLL3_Clocks->PLL3_R_Frequency = 0U;
  }

}
 80064f2:	e008      	b.n	8006506 <HAL_RCCEx_GetPLL3ClockFreq+0x282>
    PLL3_Clocks->PLL3_P_Frequency = 0U;
 80064f4:	687b      	ldr	r3, [r7, #4]
 80064f6:	2200      	movs	r2, #0
 80064f8:	601a      	str	r2, [r3, #0]
    PLL3_Clocks->PLL3_Q_Frequency = 0U;
 80064fa:	687b      	ldr	r3, [r7, #4]
 80064fc:	2200      	movs	r2, #0
 80064fe:	605a      	str	r2, [r3, #4]
    PLL3_Clocks->PLL3_R_Frequency = 0U;
 8006500:	687b      	ldr	r3, [r7, #4]
 8006502:	2200      	movs	r2, #0
 8006504:	609a      	str	r2, [r3, #8]
}
 8006506:	bf00      	nop
 8006508:	3724      	adds	r7, #36	; 0x24
 800650a:	46bd      	mov	sp, r7
 800650c:	f85d 7b04 	ldr.w	r7, [sp], #4
 8006510:	4770      	bx	lr
 8006512:	bf00      	nop
 8006514:	58024400 	.word	0x58024400
 8006518:	03d09000 	.word	0x03d09000
 800651c:	46000000 	.word	0x46000000
 8006520:	4c742400 	.word	0x4c742400
 8006524:	4a742400 	.word	0x4a742400
 8006528:	4af42400 	.word	0x4af42400

0800652c <RCCEx_PLL2_Config>:
  * @note   PLL2 is temporary disabled to apply new parameters
  *
  * @retval HAL status
  */
static HAL_StatusTypeDef RCCEx_PLL2_Config(RCC_PLL2InitTypeDef *pll2, uint32_t Divider)
{
 800652c:	b580      	push	{r7, lr}
 800652e:	b084      	sub	sp, #16
 8006530:	af00      	add	r7, sp, #0
 8006532:	6078      	str	r0, [r7, #4]
 8006534:	6039      	str	r1, [r7, #0]

  uint32_t tickstart;
  HAL_StatusTypeDef status = HAL_OK;
 8006536:	2300      	movs	r3, #0
 8006538:	73fb      	strb	r3, [r7, #15]
  assert_param(IS_RCC_PLL2RGE_VALUE(pll2->PLL2RGE));
  assert_param(IS_RCC_PLL2VCO_VALUE(pll2->PLL2VCOSEL));
  assert_param(IS_RCC_PLLFRACN_VALUE(pll2->PLL2FRACN));

  /* Check that PLL2 OSC clock source is already set */
  if(__HAL_RCC_GET_PLL_OSCSOURCE() == RCC_PLLSOURCE_NONE)
 800653a:	4b53      	ldr	r3, [pc, #332]	; (8006688 <RCCEx_PLL2_Config+0x15c>)
 800653c:	6a9b      	ldr	r3, [r3, #40]	; 0x28
 800653e:	f003 0303 	and.w	r3, r3, #3
 8006542:	2b03      	cmp	r3, #3
 8006544:	d101      	bne.n	800654a <RCCEx_PLL2_Config+0x1e>
  {
    return HAL_ERROR;
 8006546:	2301      	movs	r3, #1
 8006548:	e099      	b.n	800667e <RCCEx_PLL2_Config+0x152>


  else
  {
    /* Disable  PLL2. */
    __HAL_RCC_PLL2_DISABLE();
 800654a:	4b4f      	ldr	r3, [pc, #316]	; (8006688 <RCCEx_PLL2_Config+0x15c>)
 800654c:	681b      	ldr	r3, [r3, #0]
 800654e:	4a4e      	ldr	r2, [pc, #312]	; (8006688 <RCCEx_PLL2_Config+0x15c>)
 8006550:	f023 6380 	bic.w	r3, r3, #67108864	; 0x4000000
 8006554:	6013      	str	r3, [r2, #0]

    /* Get Start Tick*/
    tickstart = HAL_GetTick();
 8006556:	f7fd faf7 	bl	8003b48 <HAL_GetTick>
 800655a:	60b8      	str	r0, [r7, #8]

    /* Wait till PLL is disabled */
    while(__HAL_RCC_GET_FLAG(RCC_FLAG_PLL2RDY) != 0U)
 800655c:	e008      	b.n	8006570 <RCCEx_PLL2_Config+0x44>
    {
      if( (HAL_GetTick() - tickstart ) > PLL2_TIMEOUT_VALUE)
 800655e:	f7fd faf3 	bl	8003b48 <HAL_GetTick>
 8006562:	4602      	mov	r2, r0
 8006564:	68bb      	ldr	r3, [r7, #8]
 8006566:	1ad3      	subs	r3, r2, r3
 8006568:	2b02      	cmp	r3, #2
 800656a:	d901      	bls.n	8006570 <RCCEx_PLL2_Config+0x44>
      {
        return HAL_TIMEOUT;
 800656c:	2303      	movs	r3, #3
 800656e:	e086      	b.n	800667e <RCCEx_PLL2_Config+0x152>
    while(__HAL_RCC_GET_FLAG(RCC_FLAG_PLL2RDY) != 0U)
 8006570:	4b45      	ldr	r3, [pc, #276]	; (8006688 <RCCEx_PLL2_Config+0x15c>)
 8006572:	681b      	ldr	r3, [r3, #0]
 8006574:	f003 6300 	and.w	r3, r3, #134217728	; 0x8000000
 8006578:	2b00      	cmp	r3, #0
 800657a:	d1f0      	bne.n	800655e <RCCEx_PLL2_Config+0x32>
      }
    }

    /* Configure PLL2 multiplication and division factors. */
    __HAL_RCC_PLL2_CONFIG(pll2->PLL2M,
 800657c:	4b42      	ldr	r3, [pc, #264]	; (8006688 <RCCEx_PLL2_Config+0x15c>)
 800657e:	6a9b      	ldr	r3, [r3, #40]	; 0x28
 8006580:	f423 327c 	bic.w	r2, r3, #258048	; 0x3f000
 8006584:	687b      	ldr	r3, [r7, #4]
 8006586:	681b      	ldr	r3, [r3, #0]
 8006588:	031b      	lsls	r3, r3, #12
 800658a:	493f      	ldr	r1, [pc, #252]	; (8006688 <RCCEx_PLL2_Config+0x15c>)
 800658c:	4313      	orrs	r3, r2
 800658e:	628b      	str	r3, [r1, #40]	; 0x28
 8006590:	687b      	ldr	r3, [r7, #4]
 8006592:	685b      	ldr	r3, [r3, #4]
 8006594:	3b01      	subs	r3, #1
 8006596:	f3c3 0208 	ubfx	r2, r3, #0, #9
 800659a:	687b      	ldr	r3, [r7, #4]
 800659c:	689b      	ldr	r3, [r3, #8]
 800659e:	3b01      	subs	r3, #1
 80065a0:	025b      	lsls	r3, r3, #9
 80065a2:	b29b      	uxth	r3, r3
 80065a4:	431a      	orrs	r2, r3
 80065a6:	687b      	ldr	r3, [r7, #4]
 80065a8:	68db      	ldr	r3, [r3, #12]
 80065aa:	3b01      	subs	r3, #1
 80065ac:	041b      	lsls	r3, r3, #16
 80065ae:	f403 03fe 	and.w	r3, r3, #8323072	; 0x7f0000
 80065b2:	431a      	orrs	r2, r3
 80065b4:	687b      	ldr	r3, [r7, #4]
 80065b6:	691b      	ldr	r3, [r3, #16]
 80065b8:	3b01      	subs	r3, #1
 80065ba:	061b      	lsls	r3, r3, #24
 80065bc:	f003 43fe 	and.w	r3, r3, #2130706432	; 0x7f000000
 80065c0:	4931      	ldr	r1, [pc, #196]	; (8006688 <RCCEx_PLL2_Config+0x15c>)
 80065c2:	4313      	orrs	r3, r2
 80065c4:	638b      	str	r3, [r1, #56]	; 0x38
                          pll2->PLL2P,
                          pll2->PLL2Q,
                          pll2->PLL2R);

    /* Select PLL2 input reference frequency range: VCI */
    __HAL_RCC_PLL2_VCIRANGE(pll2->PLL2RGE) ;
 80065c6:	4b30      	ldr	r3, [pc, #192]	; (8006688 <RCCEx_PLL2_Config+0x15c>)
 80065c8:	6adb      	ldr	r3, [r3, #44]	; 0x2c
 80065ca:	f023 02c0 	bic.w	r2, r3, #192	; 0xc0
 80065ce:	687b      	ldr	r3, [r7, #4]
 80065d0:	695b      	ldr	r3, [r3, #20]
 80065d2:	492d      	ldr	r1, [pc, #180]	; (8006688 <RCCEx_PLL2_Config+0x15c>)
 80065d4:	4313      	orrs	r3, r2
 80065d6:	62cb      	str	r3, [r1, #44]	; 0x2c

    /* Select PLL2 output frequency range : VCO */
    __HAL_RCC_PLL2_VCORANGE(pll2->PLL2VCOSEL) ;
 80065d8:	4b2b      	ldr	r3, [pc, #172]	; (8006688 <RCCEx_PLL2_Config+0x15c>)
 80065da:	6adb      	ldr	r3, [r3, #44]	; 0x2c
 80065dc:	f023 0220 	bic.w	r2, r3, #32
 80065e0:	687b      	ldr	r3, [r7, #4]
 80065e2:	699b      	ldr	r3, [r3, #24]
 80065e4:	4928      	ldr	r1, [pc, #160]	; (8006688 <RCCEx_PLL2_Config+0x15c>)
 80065e6:	4313      	orrs	r3, r2
 80065e8:	62cb      	str	r3, [r1, #44]	; 0x2c

    /* Disable PLL2FRACN . */
    __HAL_RCC_PLL2FRACN_DISABLE();
 80065ea:	4b27      	ldr	r3, [pc, #156]	; (8006688 <RCCEx_PLL2_Config+0x15c>)
 80065ec:	6adb      	ldr	r3, [r3, #44]	; 0x2c
 80065ee:	4a26      	ldr	r2, [pc, #152]	; (8006688 <RCCEx_PLL2_Config+0x15c>)
 80065f0:	f023 0310 	bic.w	r3, r3, #16
 80065f4:	62d3      	str	r3, [r2, #44]	; 0x2c

    /* Configures PLL2 clock Fractional Part Of The Multiplication Factor */
    __HAL_RCC_PLL2FRACN_CONFIG(pll2->PLL2FRACN);
 80065f6:	4b24      	ldr	r3, [pc, #144]	; (8006688 <RCCEx_PLL2_Config+0x15c>)
 80065f8:	6bda      	ldr	r2, [r3, #60]	; 0x3c
 80065fa:	4b24      	ldr	r3, [pc, #144]	; (800668c <RCCEx_PLL2_Config+0x160>)
 80065fc:	4013      	ands	r3, r2
 80065fe:	687a      	ldr	r2, [r7, #4]
 8006600:	69d2      	ldr	r2, [r2, #28]
 8006602:	00d2      	lsls	r2, r2, #3
 8006604:	4920      	ldr	r1, [pc, #128]	; (8006688 <RCCEx_PLL2_Config+0x15c>)
 8006606:	4313      	orrs	r3, r2
 8006608:	63cb      	str	r3, [r1, #60]	; 0x3c

    /* Enable PLL2FRACN . */
    __HAL_RCC_PLL2FRACN_ENABLE();
 800660a:	4b1f      	ldr	r3, [pc, #124]	; (8006688 <RCCEx_PLL2_Config+0x15c>)
 800660c:	6adb      	ldr	r3, [r3, #44]	; 0x2c
 800660e:	4a1e      	ldr	r2, [pc, #120]	; (8006688 <RCCEx_PLL2_Config+0x15c>)
 8006610:	f043 0310 	orr.w	r3, r3, #16
 8006614:	62d3      	str	r3, [r2, #44]	; 0x2c

    /* Enable the PLL2 clock output */
    if(Divider == DIVIDER_P_UPDATE)
 8006616:	683b      	ldr	r3, [r7, #0]
 8006618:	2b00      	cmp	r3, #0
 800661a:	d106      	bne.n	800662a <RCCEx_PLL2_Config+0xfe>
    {
      __HAL_RCC_PLL2CLKOUT_ENABLE(RCC_PLL2_DIVP);
 800661c:	4b1a      	ldr	r3, [pc, #104]	; (8006688 <RCCEx_PLL2_Config+0x15c>)
 800661e:	6adb      	ldr	r3, [r3, #44]	; 0x2c
 8006620:	4a19      	ldr	r2, [pc, #100]	; (8006688 <RCCEx_PLL2_Config+0x15c>)
 8006622:	f443 2300 	orr.w	r3, r3, #524288	; 0x80000
 8006626:	62d3      	str	r3, [r2, #44]	; 0x2c
 8006628:	e00f      	b.n	800664a <RCCEx_PLL2_Config+0x11e>
    }
    else if(Divider == DIVIDER_Q_UPDATE)
 800662a:	683b      	ldr	r3, [r7, #0]
 800662c:	2b01      	cmp	r3, #1
 800662e:	d106      	bne.n	800663e <RCCEx_PLL2_Config+0x112>
    {
      __HAL_RCC_PLL2CLKOUT_ENABLE(RCC_PLL2_DIVQ);
 8006630:	4b15      	ldr	r3, [pc, #84]	; (8006688 <RCCEx_PLL2_Config+0x15c>)
 8006632:	6adb      	ldr	r3, [r3, #44]	; 0x2c
 8006634:	4a14      	ldr	r2, [pc, #80]	; (8006688 <RCCEx_PLL2_Config+0x15c>)
 8006636:	f443 1380 	orr.w	r3, r3, #1048576	; 0x100000
 800663a:	62d3      	str	r3, [r2, #44]	; 0x2c
 800663c:	e005      	b.n	800664a <RCCEx_PLL2_Config+0x11e>
    }
    else
    {
      __HAL_RCC_PLL2CLKOUT_ENABLE(RCC_PLL2_DIVR);
 800663e:	4b12      	ldr	r3, [pc, #72]	; (8006688 <RCCEx_PLL2_Config+0x15c>)
 8006640:	6adb      	ldr	r3, [r3, #44]	; 0x2c
 8006642:	4a11      	ldr	r2, [pc, #68]	; (8006688 <RCCEx_PLL2_Config+0x15c>)
 8006644:	f443 1300 	orr.w	r3, r3, #2097152	; 0x200000
 8006648:	62d3      	str	r3, [r2, #44]	; 0x2c
    }

    /* Enable  PLL2. */
    __HAL_RCC_PLL2_ENABLE();
 800664a:	4b0f      	ldr	r3, [pc, #60]	; (8006688 <RCCEx_PLL2_Config+0x15c>)
 800664c:	681b      	ldr	r3, [r3, #0]
 800664e:	4a0e      	ldr	r2, [pc, #56]	; (8006688 <RCCEx_PLL2_Config+0x15c>)
 8006650:	f043 6380 	orr.w	r3, r3, #67108864	; 0x4000000
 8006654:	6013      	str	r3, [r2, #0]

    /* Get Start Tick*/
    tickstart = HAL_GetTick();
 8006656:	f7fd fa77 	bl	8003b48 <HAL_GetTick>
 800665a:	60b8      	str	r0, [r7, #8]

    /* Wait till PLL2 is ready */
    while(__HAL_RCC_GET_FLAG(RCC_FLAG_PLL2RDY) == 0U)
 800665c:	e008      	b.n	8006670 <RCCEx_PLL2_Config+0x144>
    {
      if( (HAL_GetTick() - tickstart ) > PLL2_TIMEOUT_VALUE)
 800665e:	f7fd fa73 	bl	8003b48 <HAL_GetTick>
 8006662:	4602      	mov	r2, r0
 8006664:	68bb      	ldr	r3, [r7, #8]
 8006666:	1ad3      	subs	r3, r2, r3
 8006668:	2b02      	cmp	r3, #2
 800666a:	d901      	bls.n	8006670 <RCCEx_PLL2_Config+0x144>
      {
        return HAL_TIMEOUT;
 800666c:	2303      	movs	r3, #3
 800666e:	e006      	b.n	800667e <RCCEx_PLL2_Config+0x152>
    while(__HAL_RCC_GET_FLAG(RCC_FLAG_PLL2RDY) == 0U)
 8006670:	4b05      	ldr	r3, [pc, #20]	; (8006688 <RCCEx_PLL2_Config+0x15c>)
 8006672:	681b      	ldr	r3, [r3, #0]
 8006674:	f003 6300 	and.w	r3, r3, #134217728	; 0x8000000
 8006678:	2b00      	cmp	r3, #0
 800667a:	d0f0      	beq.n	800665e <RCCEx_PLL2_Config+0x132>
    }

  }


  return status;
 800667c:	7bfb      	ldrb	r3, [r7, #15]
}
 800667e:	4618      	mov	r0, r3
 8006680:	3710      	adds	r7, #16
 8006682:	46bd      	mov	sp, r7
 8006684:	bd80      	pop	{r7, pc}
 8006686:	bf00      	nop
 8006688:	58024400 	.word	0x58024400
 800668c:	ffff0007 	.word	0xffff0007

08006690 <RCCEx_PLL3_Config>:
  * @note   PLL3 is temporary disabled to apply new parameters
  *
  * @retval HAL status
  */
static HAL_StatusTypeDef RCCEx_PLL3_Config(RCC_PLL3InitTypeDef *pll3, uint32_t Divider)
{
 8006690:	b580      	push	{r7, lr}
 8006692:	b084      	sub	sp, #16
 8006694:	af00      	add	r7, sp, #0
 8006696:	6078      	str	r0, [r7, #4]
 8006698:	6039      	str	r1, [r7, #0]
  uint32_t tickstart;
  HAL_StatusTypeDef status = HAL_OK;
 800669a:	2300      	movs	r3, #0
 800669c:	73fb      	strb	r3, [r7, #15]
  assert_param(IS_RCC_PLL3RGE_VALUE(pll3->PLL3RGE));
  assert_param(IS_RCC_PLL3VCO_VALUE(pll3->PLL3VCOSEL));
  assert_param(IS_RCC_PLLFRACN_VALUE(pll3->PLL3FRACN));

  /* Check that PLL3 OSC clock source is already set */
  if(__HAL_RCC_GET_PLL_OSCSOURCE() == RCC_PLLSOURCE_NONE)
 800669e:	4b53      	ldr	r3, [pc, #332]	; (80067ec <RCCEx_PLL3_Config+0x15c>)
 80066a0:	6a9b      	ldr	r3, [r3, #40]	; 0x28
 80066a2:	f003 0303 	and.w	r3, r3, #3
 80066a6:	2b03      	cmp	r3, #3
 80066a8:	d101      	bne.n	80066ae <RCCEx_PLL3_Config+0x1e>
  {
    return HAL_ERROR;
 80066aa:	2301      	movs	r3, #1
 80066ac:	e099      	b.n	80067e2 <RCCEx_PLL3_Config+0x152>


  else
  {
    /* Disable  PLL3. */
    __HAL_RCC_PLL3_DISABLE();
 80066ae:	4b4f      	ldr	r3, [pc, #316]	; (80067ec <RCCEx_PLL3_Config+0x15c>)
 80066b0:	681b      	ldr	r3, [r3, #0]
 80066b2:	4a4e      	ldr	r2, [pc, #312]	; (80067ec <RCCEx_PLL3_Config+0x15c>)
 80066b4:	f023 5380 	bic.w	r3, r3, #268435456	; 0x10000000
 80066b8:	6013      	str	r3, [r2, #0]

    /* Get Start Tick*/
    tickstart = HAL_GetTick();
 80066ba:	f7fd fa45 	bl	8003b48 <HAL_GetTick>
 80066be:	60b8      	str	r0, [r7, #8]
    /* Wait till PLL3 is ready */
    while(__HAL_RCC_GET_FLAG(RCC_FLAG_PLL3RDY) != 0U)
 80066c0:	e008      	b.n	80066d4 <RCCEx_PLL3_Config+0x44>
    {
      if( (HAL_GetTick() - tickstart ) > PLL3_TIMEOUT_VALUE)
 80066c2:	f7fd fa41 	bl	8003b48 <HAL_GetTick>
 80066c6:	4602      	mov	r2, r0
 80066c8:	68bb      	ldr	r3, [r7, #8]
 80066ca:	1ad3      	subs	r3, r2, r3
 80066cc:	2b02      	cmp	r3, #2
 80066ce:	d901      	bls.n	80066d4 <RCCEx_PLL3_Config+0x44>
      {
        return HAL_TIMEOUT;
 80066d0:	2303      	movs	r3, #3
 80066d2:	e086      	b.n	80067e2 <RCCEx_PLL3_Config+0x152>
    while(__HAL_RCC_GET_FLAG(RCC_FLAG_PLL3RDY) != 0U)
 80066d4:	4b45      	ldr	r3, [pc, #276]	; (80067ec <RCCEx_PLL3_Config+0x15c>)
 80066d6:	681b      	ldr	r3, [r3, #0]
 80066d8:	f003 5300 	and.w	r3, r3, #536870912	; 0x20000000
 80066dc:	2b00      	cmp	r3, #0
 80066de:	d1f0      	bne.n	80066c2 <RCCEx_PLL3_Config+0x32>
      }
    }

    /* Configure the PLL3  multiplication and division factors. */
    __HAL_RCC_PLL3_CONFIG(pll3->PLL3M,
 80066e0:	4b42      	ldr	r3, [pc, #264]	; (80067ec <RCCEx_PLL3_Config+0x15c>)
 80066e2:	6a9b      	ldr	r3, [r3, #40]	; 0x28
 80066e4:	f023 727c 	bic.w	r2, r3, #66060288	; 0x3f00000
 80066e8:	687b      	ldr	r3, [r7, #4]
 80066ea:	681b      	ldr	r3, [r3, #0]
 80066ec:	051b      	lsls	r3, r3, #20
 80066ee:	493f      	ldr	r1, [pc, #252]	; (80067ec <RCCEx_PLL3_Config+0x15c>)
 80066f0:	4313      	orrs	r3, r2
 80066f2:	628b      	str	r3, [r1, #40]	; 0x28
 80066f4:	687b      	ldr	r3, [r7, #4]
 80066f6:	685b      	ldr	r3, [r3, #4]
 80066f8:	3b01      	subs	r3, #1
 80066fa:	f3c3 0208 	ubfx	r2, r3, #0, #9
 80066fe:	687b      	ldr	r3, [r7, #4]
 8006700:	689b      	ldr	r3, [r3, #8]
 8006702:	3b01      	subs	r3, #1
 8006704:	025b      	lsls	r3, r3, #9
 8006706:	b29b      	uxth	r3, r3
 8006708:	431a      	orrs	r2, r3
 800670a:	687b      	ldr	r3, [r7, #4]
 800670c:	68db      	ldr	r3, [r3, #12]
 800670e:	3b01      	subs	r3, #1
 8006710:	041b      	lsls	r3, r3, #16
 8006712:	f403 03fe 	and.w	r3, r3, #8323072	; 0x7f0000
 8006716:	431a      	orrs	r2, r3
 8006718:	687b      	ldr	r3, [r7, #4]
 800671a:	691b      	ldr	r3, [r3, #16]
 800671c:	3b01      	subs	r3, #1
 800671e:	061b      	lsls	r3, r3, #24
 8006720:	f003 43fe 	and.w	r3, r3, #2130706432	; 0x7f000000
 8006724:	4931      	ldr	r1, [pc, #196]	; (80067ec <RCCEx_PLL3_Config+0x15c>)
 8006726:	4313      	orrs	r3, r2
 8006728:	640b      	str	r3, [r1, #64]	; 0x40
                          pll3->PLL3P,
                          pll3->PLL3Q,
                          pll3->PLL3R);

    /* Select PLL3 input reference frequency range: VCI */
    __HAL_RCC_PLL3_VCIRANGE(pll3->PLL3RGE) ;
 800672a:	4b30      	ldr	r3, [pc, #192]	; (80067ec <RCCEx_PLL3_Config+0x15c>)
 800672c:	6adb      	ldr	r3, [r3, #44]	; 0x2c
 800672e:	f423 6240 	bic.w	r2, r3, #3072	; 0xc00
 8006732:	687b      	ldr	r3, [r7, #4]
 8006734:	695b      	ldr	r3, [r3, #20]
 8006736:	492d      	ldr	r1, [pc, #180]	; (80067ec <RCCEx_PLL3_Config+0x15c>)
 8006738:	4313      	orrs	r3, r2
 800673a:	62cb      	str	r3, [r1, #44]	; 0x2c

    /* Select PLL3 output frequency range : VCO */
    __HAL_RCC_PLL3_VCORANGE(pll3->PLL3VCOSEL) ;
 800673c:	4b2b      	ldr	r3, [pc, #172]	; (80067ec <RCCEx_PLL3_Config+0x15c>)
 800673e:	6adb      	ldr	r3, [r3, #44]	; 0x2c
 8006740:	f423 7200 	bic.w	r2, r3, #512	; 0x200
 8006744:	687b      	ldr	r3, [r7, #4]
 8006746:	699b      	ldr	r3, [r3, #24]
 8006748:	4928      	ldr	r1, [pc, #160]	; (80067ec <RCCEx_PLL3_Config+0x15c>)
 800674a:	4313      	orrs	r3, r2
 800674c:	62cb      	str	r3, [r1, #44]	; 0x2c

    /* Disable PLL3FRACN . */
    __HAL_RCC_PLL3FRACN_DISABLE();
 800674e:	4b27      	ldr	r3, [pc, #156]	; (80067ec <RCCEx_PLL3_Config+0x15c>)
 8006750:	6adb      	ldr	r3, [r3, #44]	; 0x2c
 8006752:	4a26      	ldr	r2, [pc, #152]	; (80067ec <RCCEx_PLL3_Config+0x15c>)
 8006754:	f423 7380 	bic.w	r3, r3, #256	; 0x100
 8006758:	62d3      	str	r3, [r2, #44]	; 0x2c

    /* Configures PLL3 clock Fractional Part Of The Multiplication Factor */
    __HAL_RCC_PLL3FRACN_CONFIG(pll3->PLL3FRACN);
 800675a:	4b24      	ldr	r3, [pc, #144]	; (80067ec <RCCEx_PLL3_Config+0x15c>)
 800675c:	6c5a      	ldr	r2, [r3, #68]	; 0x44
 800675e:	4b24      	ldr	r3, [pc, #144]	; (80067f0 <RCCEx_PLL3_Config+0x160>)
 8006760:	4013      	ands	r3, r2
 8006762:	687a      	ldr	r2, [r7, #4]
 8006764:	69d2      	ldr	r2, [r2, #28]
 8006766:	00d2      	lsls	r2, r2, #3
 8006768:	4920      	ldr	r1, [pc, #128]	; (80067ec <RCCEx_PLL3_Config+0x15c>)
 800676a:	4313      	orrs	r3, r2
 800676c:	644b      	str	r3, [r1, #68]	; 0x44

    /* Enable PLL3FRACN . */
    __HAL_RCC_PLL3FRACN_ENABLE();
 800676e:	4b1f      	ldr	r3, [pc, #124]	; (80067ec <RCCEx_PLL3_Config+0x15c>)
 8006770:	6adb      	ldr	r3, [r3, #44]	; 0x2c
 8006772:	4a1e      	ldr	r2, [pc, #120]	; (80067ec <RCCEx_PLL3_Config+0x15c>)
 8006774:	f443 7380 	orr.w	r3, r3, #256	; 0x100
 8006778:	62d3      	str	r3, [r2, #44]	; 0x2c

    /* Enable the PLL3 clock output */
    if(Divider == DIVIDER_P_UPDATE)
 800677a:	683b      	ldr	r3, [r7, #0]
 800677c:	2b00      	cmp	r3, #0
 800677e:	d106      	bne.n	800678e <RCCEx_PLL3_Config+0xfe>
    {
      __HAL_RCC_PLL3CLKOUT_ENABLE(RCC_PLL3_DIVP);
 8006780:	4b1a      	ldr	r3, [pc, #104]	; (80067ec <RCCEx_PLL3_Config+0x15c>)
 8006782:	6adb      	ldr	r3, [r3, #44]	; 0x2c
 8006784:	4a19      	ldr	r2, [pc, #100]	; (80067ec <RCCEx_PLL3_Config+0x15c>)
 8006786:	f443 0380 	orr.w	r3, r3, #4194304	; 0x400000
 800678a:	62d3      	str	r3, [r2, #44]	; 0x2c
 800678c:	e00f      	b.n	80067ae <RCCEx_PLL3_Config+0x11e>
    }
    else if(Divider == DIVIDER_Q_UPDATE)
 800678e:	683b      	ldr	r3, [r7, #0]
 8006790:	2b01      	cmp	r3, #1
 8006792:	d106      	bne.n	80067a2 <RCCEx_PLL3_Config+0x112>
    {
      __HAL_RCC_PLL3CLKOUT_ENABLE(RCC_PLL3_DIVQ);
 8006794:	4b15      	ldr	r3, [pc, #84]	; (80067ec <RCCEx_PLL3_Config+0x15c>)
 8006796:	6adb      	ldr	r3, [r3, #44]	; 0x2c
 8006798:	4a14      	ldr	r2, [pc, #80]	; (80067ec <RCCEx_PLL3_Config+0x15c>)
 800679a:	f443 0300 	orr.w	r3, r3, #8388608	; 0x800000
 800679e:	62d3      	str	r3, [r2, #44]	; 0x2c
 80067a0:	e005      	b.n	80067ae <RCCEx_PLL3_Config+0x11e>
    }
    else
    {
      __HAL_RCC_PLL3CLKOUT_ENABLE(RCC_PLL3_DIVR);
 80067a2:	4b12      	ldr	r3, [pc, #72]	; (80067ec <RCCEx_PLL3_Config+0x15c>)
 80067a4:	6adb      	ldr	r3, [r3, #44]	; 0x2c
 80067a6:	4a11      	ldr	r2, [pc, #68]	; (80067ec <RCCEx_PLL3_Config+0x15c>)
 80067a8:	f043 7380 	orr.w	r3, r3, #16777216	; 0x1000000
 80067ac:	62d3      	str	r3, [r2, #44]	; 0x2c
    }

    /* Enable  PLL3. */
    __HAL_RCC_PLL3_ENABLE();
 80067ae:	4b0f      	ldr	r3, [pc, #60]	; (80067ec <RCCEx_PLL3_Config+0x15c>)
 80067b0:	681b      	ldr	r3, [r3, #0]
 80067b2:	4a0e      	ldr	r2, [pc, #56]	; (80067ec <RCCEx_PLL3_Config+0x15c>)
 80067b4:	f043 5380 	orr.w	r3, r3, #268435456	; 0x10000000
 80067b8:	6013      	str	r3, [r2, #0]

    /* Get Start Tick*/
    tickstart = HAL_GetTick();
 80067ba:	f7fd f9c5 	bl	8003b48 <HAL_GetTick>
 80067be:	60b8      	str	r0, [r7, #8]

    /* Wait till PLL3 is ready */
    while(__HAL_RCC_GET_FLAG(RCC_FLAG_PLL3RDY) == 0U)
 80067c0:	e008      	b.n	80067d4 <RCCEx_PLL3_Config+0x144>
    {
      if( (HAL_GetTick() - tickstart ) > PLL3_TIMEOUT_VALUE)
 80067c2:	f7fd f9c1 	bl	8003b48 <HAL_GetTick>
 80067c6:	4602      	mov	r2, r0
 80067c8:	68bb      	ldr	r3, [r7, #8]
 80067ca:	1ad3      	subs	r3, r2, r3
 80067cc:	2b02      	cmp	r3, #2
 80067ce:	d901      	bls.n	80067d4 <RCCEx_PLL3_Config+0x144>
      {
        return HAL_TIMEOUT;
 80067d0:	2303      	movs	r3, #3
 80067d2:	e006      	b.n	80067e2 <RCCEx_PLL3_Config+0x152>
    while(__HAL_RCC_GET_FLAG(RCC_FLAG_PLL3RDY) == 0U)
 80067d4:	4b05      	ldr	r3, [pc, #20]	; (80067ec <RCCEx_PLL3_Config+0x15c>)
 80067d6:	681b      	ldr	r3, [r3, #0]
 80067d8:	f003 5300 	and.w	r3, r3, #536870912	; 0x20000000
 80067dc:	2b00      	cmp	r3, #0
 80067de:	d0f0      	beq.n	80067c2 <RCCEx_PLL3_Config+0x132>
    }

  }


  return status;
 80067e0:	7bfb      	ldrb	r3, [r7, #15]
}
 80067e2:	4618      	mov	r0, r3
 80067e4:	3710      	adds	r7, #16
 80067e6:	46bd      	mov	sp, r7
 80067e8:	bd80      	pop	{r7, pc}
 80067ea:	bf00      	nop
 80067ec:	58024400 	.word	0x58024400
 80067f0:	ffff0007 	.word	0xffff0007

080067f4 <HAL_TIM_Base_Init>:
  *         Ex: call @ref HAL_TIM_Base_DeInit() before HAL_TIM_Base_Init()
  * @param  htim TIM Base handle
  * @retval HAL status
  */
HAL_StatusTypeDef HAL_TIM_Base_Init(TIM_HandleTypeDef *htim)
{
 80067f4:	b580      	push	{r7, lr}
 80067f6:	b082      	sub	sp, #8
 80067f8:	af00      	add	r7, sp, #0
 80067fa:	6078      	str	r0, [r7, #4]
  /* Check the TIM handle allocation */
  if (htim == NULL)
 80067fc:	687b      	ldr	r3, [r7, #4]
 80067fe:	2b00      	cmp	r3, #0
 8006800:	d101      	bne.n	8006806 <HAL_TIM_Base_Init+0x12>
  {
    return HAL_ERROR;
 8006802:	2301      	movs	r3, #1
 8006804:	e049      	b.n	800689a <HAL_TIM_Base_Init+0xa6>
  assert_param(IS_TIM_INSTANCE(htim->Instance));
  assert_param(IS_TIM_COUNTER_MODE(htim->Init.CounterMode));
  assert_param(IS_TIM_CLOCKDIVISION_DIV(htim->Init.ClockDivision));
  assert_param(IS_TIM_AUTORELOAD_PRELOAD(htim->Init.AutoReloadPreload));

  if (htim->State == HAL_TIM_STATE_RESET)
 8006806:	687b      	ldr	r3, [r7, #4]
 8006808:	f893 303d 	ldrb.w	r3, [r3, #61]	; 0x3d
 800680c:	b2db      	uxtb	r3, r3
 800680e:	2b00      	cmp	r3, #0
 8006810:	d106      	bne.n	8006820 <HAL_TIM_Base_Init+0x2c>
  {
    /* Allocate lock resource and initialize it */
    htim->Lock = HAL_UNLOCKED;
 8006812:	687b      	ldr	r3, [r7, #4]
 8006814:	2200      	movs	r2, #0
 8006816:	f883 203c 	strb.w	r2, [r3, #60]	; 0x3c
    }
    /* Init the low level hardware : GPIO, CLOCK, NVIC */
    htim->Base_MspInitCallback(htim);
#else
    /* Init the low level hardware : GPIO, CLOCK, NVIC */
    HAL_TIM_Base_MspInit(htim);
 800681a:	6878      	ldr	r0, [r7, #4]
 800681c:	f7fc ffa2 	bl	8003764 <HAL_TIM_Base_MspInit>
#endif /* USE_HAL_TIM_REGISTER_CALLBACKS */
  }

  /* Set the TIM state */
  htim->State = HAL_TIM_STATE_BUSY;
 8006820:	687b      	ldr	r3, [r7, #4]
 8006822:	2202      	movs	r2, #2
 8006824:	f883 203d 	strb.w	r2, [r3, #61]	; 0x3d

  /* Set the Time Base configuration */
  TIM_Base_SetConfig(htim->Instance, &htim->Init);
 8006828:	687b      	ldr	r3, [r7, #4]
 800682a:	681a      	ldr	r2, [r3, #0]
 800682c:	687b      	ldr	r3, [r7, #4]
 800682e:	3304      	adds	r3, #4
 8006830:	4619      	mov	r1, r3
 8006832:	4610      	mov	r0, r2
 8006834:	f000 f97c 	bl	8006b30 <TIM_Base_SetConfig>

  /* Initialize the DMA burst operation state */
  htim->DMABurstState = HAL_DMA_BURST_STATE_READY;
 8006838:	687b      	ldr	r3, [r7, #4]
 800683a:	2201      	movs	r2, #1
 800683c:	f883 2048 	strb.w	r2, [r3, #72]	; 0x48

  /* Initialize the TIM channels state */
  TIM_CHANNEL_STATE_SET_ALL(htim, HAL_TIM_CHANNEL_STATE_READY);
 8006840:	687b      	ldr	r3, [r7, #4]
 8006842:	2201      	movs	r2, #1
 8006844:	f883 203e 	strb.w	r2, [r3, #62]	; 0x3e
 8006848:	687b      	ldr	r3, [r7, #4]
 800684a:	2201      	movs	r2, #1
 800684c:	f883 203f 	strb.w	r2, [r3, #63]	; 0x3f
 8006850:	687b      	ldr	r3, [r7, #4]
 8006852:	2201      	movs	r2, #1
 8006854:	f883 2040 	strb.w	r2, [r3, #64]	; 0x40
 8006858:	687b      	ldr	r3, [r7, #4]
 800685a:	2201      	movs	r2, #1
 800685c:	f883 2041 	strb.w	r2, [r3, #65]	; 0x41
 8006860:	687b      	ldr	r3, [r7, #4]
 8006862:	2201      	movs	r2, #1
 8006864:	f883 2042 	strb.w	r2, [r3, #66]	; 0x42
 8006868:	687b      	ldr	r3, [r7, #4]
 800686a:	2201      	movs	r2, #1
 800686c:	f883 2043 	strb.w	r2, [r3, #67]	; 0x43
  TIM_CHANNEL_N_STATE_SET_ALL(htim, HAL_TIM_CHANNEL_STATE_READY);
 8006870:	687b      	ldr	r3, [r7, #4]
 8006872:	2201      	movs	r2, #1
 8006874:	f883 2044 	strb.w	r2, [r3, #68]	; 0x44
 8006878:	687b      	ldr	r3, [r7, #4]
 800687a:	2201      	movs	r2, #1
 800687c:	f883 2045 	strb.w	r2, [r3, #69]	; 0x45
 8006880:	687b      	ldr	r3, [r7, #4]
 8006882:	2201      	movs	r2, #1
 8006884:	f883 2046 	strb.w	r2, [r3, #70]	; 0x46
 8006888:	687b      	ldr	r3, [r7, #4]
 800688a:	2201      	movs	r2, #1
 800688c:	f883 2047 	strb.w	r2, [r3, #71]	; 0x47

  /* Initialize the TIM state*/
  htim->State = HAL_TIM_STATE_READY;
 8006890:	687b      	ldr	r3, [r7, #4]
 8006892:	2201      	movs	r2, #1
 8006894:	f883 203d 	strb.w	r2, [r3, #61]	; 0x3d

  return HAL_OK;
 8006898:	2300      	movs	r3, #0
}
 800689a:	4618      	mov	r0, r3
 800689c:	3708      	adds	r7, #8
 800689e:	46bd      	mov	sp, r7
 80068a0:	bd80      	pop	{r7, pc}

080068a2 <HAL_TIM_IRQHandler>:
  * @brief  This function handles TIM interrupts requests.
  * @param  htim TIM  handle
  * @retval None
  */
void HAL_TIM_IRQHandler(TIM_HandleTypeDef *htim)
{
 80068a2:	b580      	push	{r7, lr}
 80068a4:	b082      	sub	sp, #8
 80068a6:	af00      	add	r7, sp, #0
 80068a8:	6078      	str	r0, [r7, #4]
  /* Capture compare 1 event */
  if (__HAL_TIM_GET_FLAG(htim, TIM_FLAG_CC1) != RESET)
 80068aa:	687b      	ldr	r3, [r7, #4]
 80068ac:	681b      	ldr	r3, [r3, #0]
 80068ae:	691b      	ldr	r3, [r3, #16]
 80068b0:	f003 0302 	and.w	r3, r3, #2
 80068b4:	2b02      	cmp	r3, #2
 80068b6:	d122      	bne.n	80068fe <HAL_TIM_IRQHandler+0x5c>
  {
    if (__HAL_TIM_GET_IT_SOURCE(htim, TIM_IT_CC1) != RESET)
 80068b8:	687b      	ldr	r3, [r7, #4]
 80068ba:	681b      	ldr	r3, [r3, #0]
 80068bc:	68db      	ldr	r3, [r3, #12]
 80068be:	f003 0302 	and.w	r3, r3, #2
 80068c2:	2b02      	cmp	r3, #2
 80068c4:	d11b      	bne.n	80068fe <HAL_TIM_IRQHandler+0x5c>
    {
      {
        __HAL_TIM_CLEAR_IT(htim, TIM_IT_CC1);
 80068c6:	687b      	ldr	r3, [r7, #4]
 80068c8:	681b      	ldr	r3, [r3, #0]
 80068ca:	f06f 0202 	mvn.w	r2, #2
 80068ce:	611a      	str	r2, [r3, #16]
        htim->Channel = HAL_TIM_ACTIVE_CHANNEL_1;
 80068d0:	687b      	ldr	r3, [r7, #4]
 80068d2:	2201      	movs	r2, #1
 80068d4:	771a      	strb	r2, [r3, #28]

        /* Input capture event */
        if ((htim->Instance->CCMR1 & TIM_CCMR1_CC1S) != 0x00U)
 80068d6:	687b      	ldr	r3, [r7, #4]
 80068d8:	681b      	ldr	r3, [r3, #0]
 80068da:	699b      	ldr	r3, [r3, #24]
 80068dc:	f003 0303 	and.w	r3, r3, #3
 80068e0:	2b00      	cmp	r3, #0
 80068e2:	d003      	beq.n	80068ec <HAL_TIM_IRQHandler+0x4a>
        {
#if (USE_HAL_TIM_REGISTER_CALLBACKS == 1)
          htim->IC_CaptureCallback(htim);
#else
          HAL_TIM_IC_CaptureCallback(htim);
 80068e4:	6878      	ldr	r0, [r7, #4]
 80068e6:	f000 f905 	bl	8006af4 <HAL_TIM_IC_CaptureCallback>
 80068ea:	e005      	b.n	80068f8 <HAL_TIM_IRQHandler+0x56>
        {
#if (USE_HAL_TIM_REGISTER_CALLBACKS == 1)
          htim->OC_DelayElapsedCallback(htim);
          htim->PWM_PulseFinishedCallback(htim);
#else
          HAL_TIM_OC_DelayElapsedCallback(htim);
 80068ec:	6878      	ldr	r0, [r7, #4]
 80068ee:	f000 f8f7 	bl	8006ae0 <HAL_TIM_OC_DelayElapsedCallback>
          HAL_TIM_PWM_PulseFinishedCallback(htim);
 80068f2:	6878      	ldr	r0, [r7, #4]
 80068f4:	f000 f908 	bl	8006b08 <HAL_TIM_PWM_PulseFinishedCallback>
#endif /* USE_HAL_TIM_REGISTER_CALLBACKS */
        }
        htim->Channel = HAL_TIM_ACTIVE_CHANNEL_CLEARED;
 80068f8:	687b      	ldr	r3, [r7, #4]
 80068fa:	2200      	movs	r2, #0
 80068fc:	771a      	strb	r2, [r3, #28]
      }
    }
  }
  /* Capture compare 2 event */
  if (__HAL_TIM_GET_FLAG(htim, TIM_FLAG_CC2) != RESET)
 80068fe:	687b      	ldr	r3, [r7, #4]
 8006900:	681b      	ldr	r3, [r3, #0]
 8006902:	691b      	ldr	r3, [r3, #16]
 8006904:	f003 0304 	and.w	r3, r3, #4
 8006908:	2b04      	cmp	r3, #4
 800690a:	d122      	bne.n	8006952 <HAL_TIM_IRQHandler+0xb0>
  {
    if (__HAL_TIM_GET_IT_SOURCE(htim, TIM_IT_CC2) != RESET)
 800690c:	687b      	ldr	r3, [r7, #4]
 800690e:	681b      	ldr	r3, [r3, #0]
 8006910:	68db      	ldr	r3, [r3, #12]
 8006912:	f003 0304 	and.w	r3, r3, #4
 8006916:	2b04      	cmp	r3, #4
 8006918:	d11b      	bne.n	8006952 <HAL_TIM_IRQHandler+0xb0>
    {
      __HAL_TIM_CLEAR_IT(htim, TIM_IT_CC2);
 800691a:	687b      	ldr	r3, [r7, #4]
 800691c:	681b      	ldr	r3, [r3, #0]
 800691e:	f06f 0204 	mvn.w	r2, #4
 8006922:	611a      	str	r2, [r3, #16]
      htim->Channel = HAL_TIM_ACTIVE_CHANNEL_2;
 8006924:	687b      	ldr	r3, [r7, #4]
 8006926:	2202      	movs	r2, #2
 8006928:	771a      	strb	r2, [r3, #28]
      /* Input capture event */
      if ((htim->Instance->CCMR1 & TIM_CCMR1_CC2S) != 0x00U)
 800692a:	687b      	ldr	r3, [r7, #4]
 800692c:	681b      	ldr	r3, [r3, #0]
 800692e:	699b      	ldr	r3, [r3, #24]
 8006930:	f403 7340 	and.w	r3, r3, #768	; 0x300
 8006934:	2b00      	cmp	r3, #0
 8006936:	d003      	beq.n	8006940 <HAL_TIM_IRQHandler+0x9e>
      {
#if (USE_HAL_TIM_REGISTER_CALLBACKS == 1)
        htim->IC_CaptureCallback(htim);
#else
        HAL_TIM_IC_CaptureCallback(htim);
 8006938:	6878      	ldr	r0, [r7, #4]
 800693a:	f000 f8db 	bl	8006af4 <HAL_TIM_IC_CaptureCallback>
 800693e:	e005      	b.n	800694c <HAL_TIM_IRQHandler+0xaa>
      {
#if (USE_HAL_TIM_REGISTER_CALLBACKS == 1)
        htim->OC_DelayElapsedCallback(htim);
        htim->PWM_PulseFinishedCallback(htim);
#else
        HAL_TIM_OC_DelayElapsedCallback(htim);
 8006940:	6878      	ldr	r0, [r7, #4]
 8006942:	f000 f8cd 	bl	8006ae0 <HAL_TIM_OC_DelayElapsedCallback>
        HAL_TIM_PWM_PulseFinishedCallback(htim);
 8006946:	6878      	ldr	r0, [r7, #4]
 8006948:	f000 f8de 	bl	8006b08 <HAL_TIM_PWM_PulseFinishedCallback>
#endif /* USE_HAL_TIM_REGISTER_CALLBACKS */
      }
      htim->Channel = HAL_TIM_ACTIVE_CHANNEL_CLEARED;
 800694c:	687b      	ldr	r3, [r7, #4]
 800694e:	2200      	movs	r2, #0
 8006950:	771a      	strb	r2, [r3, #28]
    }
  }
  /* Capture compare 3 event */
  if (__HAL_TIM_GET_FLAG(htim, TIM_FLAG_CC3) != RESET)
 8006952:	687b      	ldr	r3, [r7, #4]
 8006954:	681b      	ldr	r3, [r3, #0]
 8006956:	691b      	ldr	r3, [r3, #16]
 8006958:	f003 0308 	and.w	r3, r3, #8
 800695c:	2b08      	cmp	r3, #8
 800695e:	d122      	bne.n	80069a6 <HAL_TIM_IRQHandler+0x104>
  {
    if (__HAL_TIM_GET_IT_SOURCE(htim, TIM_IT_CC3) != RESET)
 8006960:	687b      	ldr	r3, [r7, #4]
 8006962:	681b      	ldr	r3, [r3, #0]
 8006964:	68db      	ldr	r3, [r3, #12]
 8006966:	f003 0308 	and.w	r3, r3, #8
 800696a:	2b08      	cmp	r3, #8
 800696c:	d11b      	bne.n	80069a6 <HAL_TIM_IRQHandler+0x104>
    {
      __HAL_TIM_CLEAR_IT(htim, TIM_IT_CC3);
 800696e:	687b      	ldr	r3, [r7, #4]
 8006970:	681b      	ldr	r3, [r3, #0]
 8006972:	f06f 0208 	mvn.w	r2, #8
 8006976:	611a      	str	r2, [r3, #16]
      htim->Channel = HAL_TIM_ACTIVE_CHANNEL_3;
 8006978:	687b      	ldr	r3, [r7, #4]
 800697a:	2204      	movs	r2, #4
 800697c:	771a      	strb	r2, [r3, #28]
      /* Input capture event */
      if ((htim->Instance->CCMR2 & TIM_CCMR2_CC3S) != 0x00U)
 800697e:	687b      	ldr	r3, [r7, #4]
 8006980:	681b      	ldr	r3, [r3, #0]
 8006982:	69db      	ldr	r3, [r3, #28]
 8006984:	f003 0303 	and.w	r3, r3, #3
 8006988:	2b00      	cmp	r3, #0
 800698a:	d003      	beq.n	8006994 <HAL_TIM_IRQHandler+0xf2>
      {
#if (USE_HAL_TIM_REGISTER_CALLBACKS == 1)
        htim->IC_CaptureCallback(htim);
#else
        HAL_TIM_IC_CaptureCallback(htim);
 800698c:	6878      	ldr	r0, [r7, #4]
 800698e:	f000 f8b1 	bl	8006af4 <HAL_TIM_IC_CaptureCallback>
 8006992:	e005      	b.n	80069a0 <HAL_TIM_IRQHandler+0xfe>
      {
#if (USE_HAL_TIM_REGISTER_CALLBACKS == 1)
        htim->OC_DelayElapsedCallback(htim);
        htim->PWM_PulseFinishedCallback(htim);
#else
        HAL_TIM_OC_DelayElapsedCallback(htim);
 8006994:	6878      	ldr	r0, [r7, #4]
 8006996:	f000 f8a3 	bl	8006ae0 <HAL_TIM_OC_DelayElapsedCallback>
        HAL_TIM_PWM_PulseFinishedCallback(htim);
 800699a:	6878      	ldr	r0, [r7, #4]
 800699c:	f000 f8b4 	bl	8006b08 <HAL_TIM_PWM_PulseFinishedCallback>
#endif /* USE_HAL_TIM_REGISTER_CALLBACKS */
      }
      htim->Channel = HAL_TIM_ACTIVE_CHANNEL_CLEARED;
 80069a0:	687b      	ldr	r3, [r7, #4]
 80069a2:	2200      	movs	r2, #0
 80069a4:	771a      	strb	r2, [r3, #28]
    }
  }
  /* Capture compare 4 event */
  if (__HAL_TIM_GET_FLAG(htim, TIM_FLAG_CC4) != RESET)
 80069a6:	687b      	ldr	r3, [r7, #4]
 80069a8:	681b      	ldr	r3, [r3, #0]
 80069aa:	691b      	ldr	r3, [r3, #16]
 80069ac:	f003 0310 	and.w	r3, r3, #16
 80069b0:	2b10      	cmp	r3, #16
 80069b2:	d122      	bne.n	80069fa <HAL_TIM_IRQHandler+0x158>
  {
    if (__HAL_TIM_GET_IT_SOURCE(htim, TIM_IT_CC4) != RESET)
 80069b4:	687b      	ldr	r3, [r7, #4]
 80069b6:	681b      	ldr	r3, [r3, #0]
 80069b8:	68db      	ldr	r3, [r3, #12]
 80069ba:	f003 0310 	and.w	r3, r3, #16
 80069be:	2b10      	cmp	r3, #16
 80069c0:	d11b      	bne.n	80069fa <HAL_TIM_IRQHandler+0x158>
    {
      __HAL_TIM_CLEAR_IT(htim, TIM_IT_CC4);
 80069c2:	687b      	ldr	r3, [r7, #4]
 80069c4:	681b      	ldr	r3, [r3, #0]
 80069c6:	f06f 0210 	mvn.w	r2, #16
 80069ca:	611a      	str	r2, [r3, #16]
      htim->Channel = HAL_TIM_ACTIVE_CHANNEL_4;
 80069cc:	687b      	ldr	r3, [r7, #4]
 80069ce:	2208      	movs	r2, #8
 80069d0:	771a      	strb	r2, [r3, #28]
      /* Input capture event */
      if ((htim->Instance->CCMR2 & TIM_CCMR2_CC4S) != 0x00U)
 80069d2:	687b      	ldr	r3, [r7, #4]
 80069d4:	681b      	ldr	r3, [r3, #0]
 80069d6:	69db      	ldr	r3, [r3, #28]
 80069d8:	f403 7340 	and.w	r3, r3, #768	; 0x300
 80069dc:	2b00      	cmp	r3, #0
 80069de:	d003      	beq.n	80069e8 <HAL_TIM_IRQHandler+0x146>
      {
#if (USE_HAL_TIM_REGISTER_CALLBACKS == 1)
        htim->IC_CaptureCallback(htim);
#else
        HAL_TIM_IC_CaptureCallback(htim);
 80069e0:	6878      	ldr	r0, [r7, #4]
 80069e2:	f000 f887 	bl	8006af4 <HAL_TIM_IC_CaptureCallback>
 80069e6:	e005      	b.n	80069f4 <HAL_TIM_IRQHandler+0x152>
      {
#if (USE_HAL_TIM_REGISTER_CALLBACKS == 1)
        htim->OC_DelayElapsedCallback(htim);
        htim->PWM_PulseFinishedCallback(htim);
#else
        HAL_TIM_OC_DelayElapsedCallback(htim);
 80069e8:	6878      	ldr	r0, [r7, #4]
 80069ea:	f000 f879 	bl	8006ae0 <HAL_TIM_OC_DelayElapsedCallback>
        HAL_TIM_PWM_PulseFinishedCallback(htim);
 80069ee:	6878      	ldr	r0, [r7, #4]
 80069f0:	f000 f88a 	bl	8006b08 <HAL_TIM_PWM_PulseFinishedCallback>
#endif /* USE_HAL_TIM_REGISTER_CALLBACKS */
      }
      htim->Channel = HAL_TIM_ACTIVE_CHANNEL_CLEARED;
 80069f4:	687b      	ldr	r3, [r7, #4]
 80069f6:	2200      	movs	r2, #0
 80069f8:	771a      	strb	r2, [r3, #28]
    }
  }
  /* TIM Update event */
  if (__HAL_TIM_GET_FLAG(htim, TIM_FLAG_UPDATE) != RESET)
 80069fa:	687b      	ldr	r3, [r7, #4]
 80069fc:	681b      	ldr	r3, [r3, #0]
 80069fe:	691b      	ldr	r3, [r3, #16]
 8006a00:	f003 0301 	and.w	r3, r3, #1
 8006a04:	2b01      	cmp	r3, #1
 8006a06:	d10e      	bne.n	8006a26 <HAL_TIM_IRQHandler+0x184>
  {
    if (__HAL_TIM_GET_IT_SOURCE(htim, TIM_IT_UPDATE) != RESET)
 8006a08:	687b      	ldr	r3, [r7, #4]
 8006a0a:	681b      	ldr	r3, [r3, #0]
 8006a0c:	68db      	ldr	r3, [r3, #12]
 8006a0e:	f003 0301 	and.w	r3, r3, #1
 8006a12:	2b01      	cmp	r3, #1
 8006a14:	d107      	bne.n	8006a26 <HAL_TIM_IRQHandler+0x184>
    {
      __HAL_TIM_CLEAR_IT(htim, TIM_IT_UPDATE);
 8006a16:	687b      	ldr	r3, [r7, #4]
 8006a18:	681b      	ldr	r3, [r3, #0]
 8006a1a:	f06f 0201 	mvn.w	r2, #1
 8006a1e:	611a      	str	r2, [r3, #16]
#if (USE_HAL_TIM_REGISTER_CALLBACKS == 1)
      htim->PeriodElapsedCallback(htim);
#else
      HAL_TIM_PeriodElapsedCallback(htim);
 8006a20:	6878      	ldr	r0, [r7, #4]
 8006a22:	f7fc fe63 	bl	80036ec <HAL_TIM_PeriodElapsedCallback>
#endif /* USE_HAL_TIM_REGISTER_CALLBACKS */
    }
  }
  /* TIM Break input event */
  if (__HAL_TIM_GET_FLAG(htim, TIM_FLAG_BREAK) != RESET)
 8006a26:	687b      	ldr	r3, [r7, #4]
 8006a28:	681b      	ldr	r3, [r3, #0]
 8006a2a:	691b      	ldr	r3, [r3, #16]
 8006a2c:	f003 0380 	and.w	r3, r3, #128	; 0x80
 8006a30:	2b80      	cmp	r3, #128	; 0x80
 8006a32:	d10e      	bne.n	8006a52 <HAL_TIM_IRQHandler+0x1b0>
  {
    if (__HAL_TIM_GET_IT_SOURCE(htim, TIM_IT_BREAK) != RESET)
 8006a34:	687b      	ldr	r3, [r7, #4]
 8006a36:	681b      	ldr	r3, [r3, #0]
 8006a38:	68db      	ldr	r3, [r3, #12]
 8006a3a:	f003 0380 	and.w	r3, r3, #128	; 0x80
 8006a3e:	2b80      	cmp	r3, #128	; 0x80
 8006a40:	d107      	bne.n	8006a52 <HAL_TIM_IRQHandler+0x1b0>
    {
      __HAL_TIM_CLEAR_IT(htim, TIM_IT_BREAK);
 8006a42:	687b      	ldr	r3, [r7, #4]
 8006a44:	681b      	ldr	r3, [r3, #0]
 8006a46:	f06f 0280 	mvn.w	r2, #128	; 0x80
 8006a4a:	611a      	str	r2, [r3, #16]
#if (USE_HAL_TIM_REGISTER_CALLBACKS == 1)
      htim->BreakCallback(htim);
#else
      HAL_TIMEx_BreakCallback(htim);
 8006a4c:	6878      	ldr	r0, [r7, #4]
 8006a4e:	f000 f913 	bl	8006c78 <HAL_TIMEx_BreakCallback>
#endif /* USE_HAL_TIM_REGISTER_CALLBACKS */
    }
  }
  /* TIM Break2 input event */
  if (__HAL_TIM_GET_FLAG(htim, TIM_FLAG_BREAK2) != RESET)
 8006a52:	687b      	ldr	r3, [r7, #4]
 8006a54:	681b      	ldr	r3, [r3, #0]
 8006a56:	691b      	ldr	r3, [r3, #16]
 8006a58:	f403 7380 	and.w	r3, r3, #256	; 0x100
 8006a5c:	f5b3 7f80 	cmp.w	r3, #256	; 0x100
 8006a60:	d10e      	bne.n	8006a80 <HAL_TIM_IRQHandler+0x1de>
  {
    if (__HAL_TIM_GET_IT_SOURCE(htim, TIM_IT_BREAK) != RESET)
 8006a62:	687b      	ldr	r3, [r7, #4]
 8006a64:	681b      	ldr	r3, [r3, #0]
 8006a66:	68db      	ldr	r3, [r3, #12]
 8006a68:	f003 0380 	and.w	r3, r3, #128	; 0x80
 8006a6c:	2b80      	cmp	r3, #128	; 0x80
 8006a6e:	d107      	bne.n	8006a80 <HAL_TIM_IRQHandler+0x1de>
    {
      __HAL_TIM_CLEAR_FLAG(htim, TIM_FLAG_BREAK2);
 8006a70:	687b      	ldr	r3, [r7, #4]
 8006a72:	681b      	ldr	r3, [r3, #0]
 8006a74:	f46f 7280 	mvn.w	r2, #256	; 0x100
 8006a78:	611a      	str	r2, [r3, #16]
#if (USE_HAL_TIM_REGISTER_CALLBACKS == 1)
      htim->Break2Callback(htim);
#else
      HAL_TIMEx_Break2Callback(htim);
 8006a7a:	6878      	ldr	r0, [r7, #4]
 8006a7c:	f000 f906 	bl	8006c8c <HAL_TIMEx_Break2Callback>
#endif /* USE_HAL_TIM_REGISTER_CALLBACKS */
    }
  }
  /* TIM Trigger detection event */
  if (__HAL_TIM_GET_FLAG(htim, TIM_FLAG_TRIGGER) != RESET)
 8006a80:	687b      	ldr	r3, [r7, #4]
 8006a82:	681b      	ldr	r3, [r3, #0]
 8006a84:	691b      	ldr	r3, [r3, #16]
 8006a86:	f003 0340 	and.w	r3, r3, #64	; 0x40
 8006a8a:	2b40      	cmp	r3, #64	; 0x40
 8006a8c:	d10e      	bne.n	8006aac <HAL_TIM_IRQHandler+0x20a>
  {
    if (__HAL_TIM_GET_IT_SOURCE(htim, TIM_IT_TRIGGER) != RESET)
 8006a8e:	687b      	ldr	r3, [r7, #4]
 8006a90:	681b      	ldr	r3, [r3, #0]
 8006a92:	68db      	ldr	r3, [r3, #12]
 8006a94:	f003 0340 	and.w	r3, r3, #64	; 0x40
 8006a98:	2b40      	cmp	r3, #64	; 0x40
 8006a9a:	d107      	bne.n	8006aac <HAL_TIM_IRQHandler+0x20a>
    {
      __HAL_TIM_CLEAR_IT(htim, TIM_IT_TRIGGER);
 8006a9c:	687b      	ldr	r3, [r7, #4]
 8006a9e:	681b      	ldr	r3, [r3, #0]
 8006aa0:	f06f 0240 	mvn.w	r2, #64	; 0x40
 8006aa4:	611a      	str	r2, [r3, #16]
#if (USE_HAL_TIM_REGISTER_CALLBACKS == 1)
      htim->TriggerCallback(htim);
#else
      HAL_TIM_TriggerCallback(htim);
 8006aa6:	6878      	ldr	r0, [r7, #4]
 8006aa8:	f000 f838 	bl	8006b1c <HAL_TIM_TriggerCallback>
#endif /* USE_HAL_TIM_REGISTER_CALLBACKS */
    }
  }
  /* TIM commutation event */
  if (__HAL_TIM_GET_FLAG(htim, TIM_FLAG_COM) != RESET)
 8006aac:	687b      	ldr	r3, [r7, #4]
 8006aae:	681b      	ldr	r3, [r3, #0]
 8006ab0:	691b      	ldr	r3, [r3, #16]
 8006ab2:	f003 0320 	and.w	r3, r3, #32
 8006ab6:	2b20      	cmp	r3, #32
 8006ab8:	d10e      	bne.n	8006ad8 <HAL_TIM_IRQHandler+0x236>
  {
    if (__HAL_TIM_GET_IT_SOURCE(htim, TIM_IT_COM) != RESET)
 8006aba:	687b      	ldr	r3, [r7, #4]
 8006abc:	681b      	ldr	r3, [r3, #0]
 8006abe:	68db      	ldr	r3, [r3, #12]
 8006ac0:	f003 0320 	and.w	r3, r3, #32
 8006ac4:	2b20      	cmp	r3, #32
 8006ac6:	d107      	bne.n	8006ad8 <HAL_TIM_IRQHandler+0x236>
    {
      __HAL_TIM_CLEAR_IT(htim, TIM_FLAG_COM);
 8006ac8:	687b      	ldr	r3, [r7, #4]
 8006aca:	681b      	ldr	r3, [r3, #0]
 8006acc:	f06f 0220 	mvn.w	r2, #32
 8006ad0:	611a      	str	r2, [r3, #16]
#if (USE_HAL_TIM_REGISTER_CALLBACKS == 1)
      htim->CommutationCallback(htim);
#else
      HAL_TIMEx_CommutCallback(htim);
 8006ad2:	6878      	ldr	r0, [r7, #4]
 8006ad4:	f000 f8c6 	bl	8006c64 <HAL_TIMEx_CommutCallback>
#endif /* USE_HAL_TIM_REGISTER_CALLBACKS */
    }
  }
}
 8006ad8:	bf00      	nop
 8006ada:	3708      	adds	r7, #8
 8006adc:	46bd      	mov	sp, r7
 8006ade:	bd80      	pop	{r7, pc}

08006ae0 <HAL_TIM_OC_DelayElapsedCallback>:
  * @brief  Output Compare callback in non-blocking mode
  * @param  htim TIM OC handle
  * @retval None
  */
__weak void HAL_TIM_OC_DelayElapsedCallback(TIM_HandleTypeDef *htim)
{
 8006ae0:	b480      	push	{r7}
 8006ae2:	b083      	sub	sp, #12
 8006ae4:	af00      	add	r7, sp, #0
 8006ae6:	6078      	str	r0, [r7, #4]
  UNUSED(htim);

  /* NOTE : This function should not be modified, when the callback is needed,
            the HAL_TIM_OC_DelayElapsedCallback could be implemented in the user file
   */
}
 8006ae8:	bf00      	nop
 8006aea:	370c      	adds	r7, #12
 8006aec:	46bd      	mov	sp, r7
 8006aee:	f85d 7b04 	ldr.w	r7, [sp], #4
 8006af2:	4770      	bx	lr

08006af4 <HAL_TIM_IC_CaptureCallback>:
  * @brief  Input Capture callback in non-blocking mode
  * @param  htim TIM IC handle
  * @retval None
  */
__weak void HAL_TIM_IC_CaptureCallback(TIM_HandleTypeDef *htim)
{
 8006af4:	b480      	push	{r7}
 8006af6:	b083      	sub	sp, #12
 8006af8:	af00      	add	r7, sp, #0
 8006afa:	6078      	str	r0, [r7, #4]
  UNUSED(htim);

  /* NOTE : This function should not be modified, when the callback is needed,
            the HAL_TIM_IC_CaptureCallback could be implemented in the user file
   */
}
 8006afc:	bf00      	nop
 8006afe:	370c      	adds	r7, #12
 8006b00:	46bd      	mov	sp, r7
 8006b02:	f85d 7b04 	ldr.w	r7, [sp], #4
 8006b06:	4770      	bx	lr

08006b08 <HAL_TIM_PWM_PulseFinishedCallback>:
  * @brief  PWM Pulse finished callback in non-blocking mode
  * @param  htim TIM handle
  * @retval None
  */
__weak void HAL_TIM_PWM_PulseFinishedCallback(TIM_HandleTypeDef *htim)
{
 8006b08:	b480      	push	{r7}
 8006b0a:	b083      	sub	sp, #12
 8006b0c:	af00      	add	r7, sp, #0
 8006b0e:	6078      	str	r0, [r7, #4]
  UNUSED(htim);

  /* NOTE : This function should not be modified, when the callback is needed,
            the HAL_TIM_PWM_PulseFinishedCallback could be implemented in the user file
   */
}
 8006b10:	bf00      	nop
 8006b12:	370c      	adds	r7, #12
 8006b14:	46bd      	mov	sp, r7
 8006b16:	f85d 7b04 	ldr.w	r7, [sp], #4
 8006b1a:	4770      	bx	lr

08006b1c <HAL_TIM_TriggerCallback>:
  * @brief  Hall Trigger detection callback in non-blocking mode
  * @param  htim TIM handle
  * @retval None
  */
__weak void HAL_TIM_TriggerCallback(TIM_HandleTypeDef *htim)
{
 8006b1c:	b480      	push	{r7}
 8006b1e:	b083      	sub	sp, #12
 8006b20:	af00      	add	r7, sp, #0
 8006b22:	6078      	str	r0, [r7, #4]
  UNUSED(htim);

  /* NOTE : This function should not be modified, when the callback is needed,
            the HAL_TIM_TriggerCallback could be implemented in the user file
   */
}
 8006b24:	bf00      	nop
 8006b26:	370c      	adds	r7, #12
 8006b28:	46bd      	mov	sp, r7
 8006b2a:	f85d 7b04 	ldr.w	r7, [sp], #4
 8006b2e:	4770      	bx	lr

08006b30 <TIM_Base_SetConfig>:
  * @param  TIMx TIM peripheral
  * @param  Structure TIM Base configuration structure
  * @retval None
  */
void TIM_Base_SetConfig(TIM_TypeDef *TIMx, TIM_Base_InitTypeDef *Structure)
{
 8006b30:	b480      	push	{r7}
 8006b32:	b085      	sub	sp, #20
 8006b34:	af00      	add	r7, sp, #0
 8006b36:	6078      	str	r0, [r7, #4]
 8006b38:	6039      	str	r1, [r7, #0]
  uint32_t tmpcr1;
  tmpcr1 = TIMx->CR1;
 8006b3a:	687b      	ldr	r3, [r7, #4]
 8006b3c:	681b      	ldr	r3, [r3, #0]
 8006b3e:	60fb      	str	r3, [r7, #12]

  /* Set TIM Time Base Unit parameters ---------------------------------------*/
  if (IS_TIM_COUNTER_MODE_SELECT_INSTANCE(TIMx))
 8006b40:	687b      	ldr	r3, [r7, #4]
 8006b42:	4a40      	ldr	r2, [pc, #256]	; (8006c44 <TIM_Base_SetConfig+0x114>)
 8006b44:	4293      	cmp	r3, r2
 8006b46:	d013      	beq.n	8006b70 <TIM_Base_SetConfig+0x40>
 8006b48:	687b      	ldr	r3, [r7, #4]
 8006b4a:	f1b3 4f80 	cmp.w	r3, #1073741824	; 0x40000000
 8006b4e:	d00f      	beq.n	8006b70 <TIM_Base_SetConfig+0x40>
 8006b50:	687b      	ldr	r3, [r7, #4]
 8006b52:	4a3d      	ldr	r2, [pc, #244]	; (8006c48 <TIM_Base_SetConfig+0x118>)
 8006b54:	4293      	cmp	r3, r2
 8006b56:	d00b      	beq.n	8006b70 <TIM_Base_SetConfig+0x40>
 8006b58:	687b      	ldr	r3, [r7, #4]
 8006b5a:	4a3c      	ldr	r2, [pc, #240]	; (8006c4c <TIM_Base_SetConfig+0x11c>)
 8006b5c:	4293      	cmp	r3, r2
 8006b5e:	d007      	beq.n	8006b70 <TIM_Base_SetConfig+0x40>
 8006b60:	687b      	ldr	r3, [r7, #4]
 8006b62:	4a3b      	ldr	r2, [pc, #236]	; (8006c50 <TIM_Base_SetConfig+0x120>)
 8006b64:	4293      	cmp	r3, r2
 8006b66:	d003      	beq.n	8006b70 <TIM_Base_SetConfig+0x40>
 8006b68:	687b      	ldr	r3, [r7, #4]
 8006b6a:	4a3a      	ldr	r2, [pc, #232]	; (8006c54 <TIM_Base_SetConfig+0x124>)
 8006b6c:	4293      	cmp	r3, r2
 8006b6e:	d108      	bne.n	8006b82 <TIM_Base_SetConfig+0x52>
  {
    /* Select the Counter Mode */
    tmpcr1 &= ~(TIM_CR1_DIR | TIM_CR1_CMS);
 8006b70:	68fb      	ldr	r3, [r7, #12]
 8006b72:	f023 0370 	bic.w	r3, r3, #112	; 0x70
 8006b76:	60fb      	str	r3, [r7, #12]
    tmpcr1 |= Structure->CounterMode;
 8006b78:	683b      	ldr	r3, [r7, #0]
 8006b7a:	685b      	ldr	r3, [r3, #4]
 8006b7c:	68fa      	ldr	r2, [r7, #12]
 8006b7e:	4313      	orrs	r3, r2
 8006b80:	60fb      	str	r3, [r7, #12]
  }

  if (IS_TIM_CLOCK_DIVISION_INSTANCE(TIMx))
 8006b82:	687b      	ldr	r3, [r7, #4]
 8006b84:	4a2f      	ldr	r2, [pc, #188]	; (8006c44 <TIM_Base_SetConfig+0x114>)
 8006b86:	4293      	cmp	r3, r2
 8006b88:	d01f      	beq.n	8006bca <TIM_Base_SetConfig+0x9a>
 8006b8a:	687b      	ldr	r3, [r7, #4]
 8006b8c:	f1b3 4f80 	cmp.w	r3, #1073741824	; 0x40000000
 8006b90:	d01b      	beq.n	8006bca <TIM_Base_SetConfig+0x9a>
 8006b92:	687b      	ldr	r3, [r7, #4]
 8006b94:	4a2c      	ldr	r2, [pc, #176]	; (8006c48 <TIM_Base_SetConfig+0x118>)
 8006b96:	4293      	cmp	r3, r2
 8006b98:	d017      	beq.n	8006bca <TIM_Base_SetConfig+0x9a>
 8006b9a:	687b      	ldr	r3, [r7, #4]
 8006b9c:	4a2b      	ldr	r2, [pc, #172]	; (8006c4c <TIM_Base_SetConfig+0x11c>)
 8006b9e:	4293      	cmp	r3, r2
 8006ba0:	d013      	beq.n	8006bca <TIM_Base_SetConfig+0x9a>
 8006ba2:	687b      	ldr	r3, [r7, #4]
 8006ba4:	4a2a      	ldr	r2, [pc, #168]	; (8006c50 <TIM_Base_SetConfig+0x120>)
 8006ba6:	4293      	cmp	r3, r2
 8006ba8:	d00f      	beq.n	8006bca <TIM_Base_SetConfig+0x9a>
 8006baa:	687b      	ldr	r3, [r7, #4]
 8006bac:	4a29      	ldr	r2, [pc, #164]	; (8006c54 <TIM_Base_SetConfig+0x124>)
 8006bae:	4293      	cmp	r3, r2
 8006bb0:	d00b      	beq.n	8006bca <TIM_Base_SetConfig+0x9a>
 8006bb2:	687b      	ldr	r3, [r7, #4]
 8006bb4:	4a28      	ldr	r2, [pc, #160]	; (8006c58 <TIM_Base_SetConfig+0x128>)
 8006bb6:	4293      	cmp	r3, r2
 8006bb8:	d007      	beq.n	8006bca <TIM_Base_SetConfig+0x9a>
 8006bba:	687b      	ldr	r3, [r7, #4]
 8006bbc:	4a27      	ldr	r2, [pc, #156]	; (8006c5c <TIM_Base_SetConfig+0x12c>)
 8006bbe:	4293      	cmp	r3, r2
 8006bc0:	d003      	beq.n	8006bca <TIM_Base_SetConfig+0x9a>
 8006bc2:	687b      	ldr	r3, [r7, #4]
 8006bc4:	4a26      	ldr	r2, [pc, #152]	; (8006c60 <TIM_Base_SetConfig+0x130>)
 8006bc6:	4293      	cmp	r3, r2
 8006bc8:	d108      	bne.n	8006bdc <TIM_Base_SetConfig+0xac>
  {
    /* Set the clock division */
    tmpcr1 &= ~TIM_CR1_CKD;
 8006bca:	68fb      	ldr	r3, [r7, #12]
 8006bcc:	f423 7340 	bic.w	r3, r3, #768	; 0x300
 8006bd0:	60fb      	str	r3, [r7, #12]
    tmpcr1 |= (uint32_t)Structure->ClockDivision;
 8006bd2:	683b      	ldr	r3, [r7, #0]
 8006bd4:	68db      	ldr	r3, [r3, #12]
 8006bd6:	68fa      	ldr	r2, [r7, #12]
 8006bd8:	4313      	orrs	r3, r2
 8006bda:	60fb      	str	r3, [r7, #12]
  }

  /* Set the auto-reload preload */
  MODIFY_REG(tmpcr1, TIM_CR1_ARPE, Structure->AutoReloadPreload);
 8006bdc:	68fb      	ldr	r3, [r7, #12]
 8006bde:	f023 0280 	bic.w	r2, r3, #128	; 0x80
 8006be2:	683b      	ldr	r3, [r7, #0]
 8006be4:	695b      	ldr	r3, [r3, #20]
 8006be6:	4313      	orrs	r3, r2
 8006be8:	60fb      	str	r3, [r7, #12]

  TIMx->CR1 = tmpcr1;
 8006bea:	687b      	ldr	r3, [r7, #4]
 8006bec:	68fa      	ldr	r2, [r7, #12]
 8006bee:	601a      	str	r2, [r3, #0]

  /* Set the Autoreload value */
  TIMx->ARR = (uint32_t)Structure->Period ;
 8006bf0:	683b      	ldr	r3, [r7, #0]
 8006bf2:	689a      	ldr	r2, [r3, #8]
 8006bf4:	687b      	ldr	r3, [r7, #4]
 8006bf6:	62da      	str	r2, [r3, #44]	; 0x2c

  /* Set the Prescaler value */
  TIMx->PSC = Structure->Prescaler;
 8006bf8:	683b      	ldr	r3, [r7, #0]
 8006bfa:	681a      	ldr	r2, [r3, #0]
 8006bfc:	687b      	ldr	r3, [r7, #4]
 8006bfe:	629a      	str	r2, [r3, #40]	; 0x28

  if (IS_TIM_REPETITION_COUNTER_INSTANCE(TIMx))
 8006c00:	687b      	ldr	r3, [r7, #4]
 8006c02:	4a10      	ldr	r2, [pc, #64]	; (8006c44 <TIM_Base_SetConfig+0x114>)
 8006c04:	4293      	cmp	r3, r2
 8006c06:	d00f      	beq.n	8006c28 <TIM_Base_SetConfig+0xf8>
 8006c08:	687b      	ldr	r3, [r7, #4]
 8006c0a:	4a12      	ldr	r2, [pc, #72]	; (8006c54 <TIM_Base_SetConfig+0x124>)
 8006c0c:	4293      	cmp	r3, r2
 8006c0e:	d00b      	beq.n	8006c28 <TIM_Base_SetConfig+0xf8>
 8006c10:	687b      	ldr	r3, [r7, #4]
 8006c12:	4a11      	ldr	r2, [pc, #68]	; (8006c58 <TIM_Base_SetConfig+0x128>)
 8006c14:	4293      	cmp	r3, r2
 8006c16:	d007      	beq.n	8006c28 <TIM_Base_SetConfig+0xf8>
 8006c18:	687b      	ldr	r3, [r7, #4]
 8006c1a:	4a10      	ldr	r2, [pc, #64]	; (8006c5c <TIM_Base_SetConfig+0x12c>)
 8006c1c:	4293      	cmp	r3, r2
 8006c1e:	d003      	beq.n	8006c28 <TIM_Base_SetConfig+0xf8>
 8006c20:	687b      	ldr	r3, [r7, #4]
 8006c22:	4a0f      	ldr	r2, [pc, #60]	; (8006c60 <TIM_Base_SetConfig+0x130>)
 8006c24:	4293      	cmp	r3, r2
 8006c26:	d103      	bne.n	8006c30 <TIM_Base_SetConfig+0x100>
  {
    /* Set the Repetition Counter value */
    TIMx->RCR = Structure->RepetitionCounter;
 8006c28:	683b      	ldr	r3, [r7, #0]
 8006c2a:	691a      	ldr	r2, [r3, #16]
 8006c2c:	687b      	ldr	r3, [r7, #4]
 8006c2e:	631a      	str	r2, [r3, #48]	; 0x30
  }

  /* Generate an update event to reload the Prescaler
     and the repetition counter (only for advanced timer) value immediately */
  TIMx->EGR = TIM_EGR_UG;
 8006c30:	687b      	ldr	r3, [r7, #4]
 8006c32:	2201      	movs	r2, #1
 8006c34:	615a      	str	r2, [r3, #20]
}
 8006c36:	bf00      	nop
 8006c38:	3714      	adds	r7, #20
 8006c3a:	46bd      	mov	sp, r7
 8006c3c:	f85d 7b04 	ldr.w	r7, [sp], #4
 8006c40:	4770      	bx	lr
 8006c42:	bf00      	nop
 8006c44:	40010000 	.word	0x40010000
 8006c48:	40000400 	.word	0x40000400
 8006c4c:	40000800 	.word	0x40000800
 8006c50:	40000c00 	.word	0x40000c00
 8006c54:	40010400 	.word	0x40010400
 8006c58:	40014000 	.word	0x40014000
 8006c5c:	40014400 	.word	0x40014400
 8006c60:	40014800 	.word	0x40014800

08006c64 <HAL_TIMEx_CommutCallback>:
  * @brief  Hall commutation changed callback in non-blocking mode
  * @param  htim TIM handle
  * @retval None
  */
__weak void HAL_TIMEx_CommutCallback(TIM_HandleTypeDef *htim)
{
 8006c64:	b480      	push	{r7}
 8006c66:	b083      	sub	sp, #12
 8006c68:	af00      	add	r7, sp, #0
 8006c6a:	6078      	str	r0, [r7, #4]
  UNUSED(htim);

  /* NOTE : This function should not be modified, when the callback is needed,
            the HAL_TIMEx_CommutCallback could be implemented in the user file
   */
}
 8006c6c:	bf00      	nop
 8006c6e:	370c      	adds	r7, #12
 8006c70:	46bd      	mov	sp, r7
 8006c72:	f85d 7b04 	ldr.w	r7, [sp], #4
 8006c76:	4770      	bx	lr

08006c78 <HAL_TIMEx_BreakCallback>:
  * @brief  Hall Break detection callback in non-blocking mode
  * @param  htim TIM handle
  * @retval None
  */
__weak void HAL_TIMEx_BreakCallback(TIM_HandleTypeDef *htim)
{
 8006c78:	b480      	push	{r7}
 8006c7a:	b083      	sub	sp, #12
 8006c7c:	af00      	add	r7, sp, #0
 8006c7e:	6078      	str	r0, [r7, #4]
  UNUSED(htim);

  /* NOTE : This function should not be modified, when the callback is needed,
            the HAL_TIMEx_BreakCallback could be implemented in the user file
   */
}
 8006c80:	bf00      	nop
 8006c82:	370c      	adds	r7, #12
 8006c84:	46bd      	mov	sp, r7
 8006c86:	f85d 7b04 	ldr.w	r7, [sp], #4
 8006c8a:	4770      	bx	lr

08006c8c <HAL_TIMEx_Break2Callback>:
  * @brief  Hall Break2 detection callback in non blocking mode
  * @param  htim: TIM handle
  * @retval None
  */
__weak void HAL_TIMEx_Break2Callback(TIM_HandleTypeDef *htim)
{
 8006c8c:	b480      	push	{r7}
 8006c8e:	b083      	sub	sp, #12
 8006c90:	af00      	add	r7, sp, #0
 8006c92:	6078      	str	r0, [r7, #4]
  UNUSED(htim);

  /* NOTE : This function Should not be modified, when the callback is needed,
            the HAL_TIMEx_Break2Callback could be implemented in the user file
   */
}
 8006c94:	bf00      	nop
 8006c96:	370c      	adds	r7, #12
 8006c98:	46bd      	mov	sp, r7
 8006c9a:	f85d 7b04 	ldr.w	r7, [sp], #4
 8006c9e:	4770      	bx	lr

08006ca0 <HAL_UART_Init>:
  *        parameters in the UART_InitTypeDef and initialize the associated handle.
  * @param huart UART handle.
  * @retval HAL status
  */
HAL_StatusTypeDef HAL_UART_Init(UART_HandleTypeDef *huart)
{
 8006ca0:	b580      	push	{r7, lr}
 8006ca2:	b082      	sub	sp, #8
 8006ca4:	af00      	add	r7, sp, #0
 8006ca6:	6078      	str	r0, [r7, #4]
  /* Check the UART handle allocation */
  if (huart == NULL)
 8006ca8:	687b      	ldr	r3, [r7, #4]
 8006caa:	2b00      	cmp	r3, #0
 8006cac:	d101      	bne.n	8006cb2 <HAL_UART_Init+0x12>
  {
    return HAL_ERROR;
 8006cae:	2301      	movs	r3, #1
 8006cb0:	e042      	b.n	8006d38 <HAL_UART_Init+0x98>
  {
    /* Check the parameters */
    assert_param((IS_UART_INSTANCE(huart->Instance)) || (IS_LPUART_INSTANCE(huart->Instance)));
  }

  if (huart->gState == HAL_UART_STATE_RESET)
 8006cb2:	687b      	ldr	r3, [r7, #4]
 8006cb4:	f8d3 3084 	ldr.w	r3, [r3, #132]	; 0x84
 8006cb8:	2b00      	cmp	r3, #0
 8006cba:	d106      	bne.n	8006cca <HAL_UART_Init+0x2a>
  {
    /* Allocate lock resource and initialize it */
    huart->Lock = HAL_UNLOCKED;
 8006cbc:	687b      	ldr	r3, [r7, #4]
 8006cbe:	2200      	movs	r2, #0
 8006cc0:	f883 2080 	strb.w	r2, [r3, #128]	; 0x80

    /* Init the low level hardware */
    huart->MspInitCallback(huart);
#else
    /* Init the low level hardware : GPIO, CLOCK */
    HAL_UART_MspInit(huart);
 8006cc4:	6878      	ldr	r0, [r7, #4]
 8006cc6:	f7fc fd75 	bl	80037b4 <HAL_UART_MspInit>
#endif /* (USE_HAL_UART_REGISTER_CALLBACKS) */
  }

  huart->gState = HAL_UART_STATE_BUSY;
 8006cca:	687b      	ldr	r3, [r7, #4]
 8006ccc:	2224      	movs	r2, #36	; 0x24
 8006cce:	f8c3 2084 	str.w	r2, [r3, #132]	; 0x84

  __HAL_UART_DISABLE(huart);
 8006cd2:	687b      	ldr	r3, [r7, #4]
 8006cd4:	681b      	ldr	r3, [r3, #0]
 8006cd6:	681a      	ldr	r2, [r3, #0]
 8006cd8:	687b      	ldr	r3, [r7, #4]
 8006cda:	681b      	ldr	r3, [r3, #0]
 8006cdc:	f022 0201 	bic.w	r2, r2, #1
 8006ce0:	601a      	str	r2, [r3, #0]

  /* Set the UART Communication parameters */
  if (UART_SetConfig(huart) == HAL_ERROR)
 8006ce2:	6878      	ldr	r0, [r7, #4]
 8006ce4:	f000 f82c 	bl	8006d40 <UART_SetConfig>
 8006ce8:	4603      	mov	r3, r0
 8006cea:	2b01      	cmp	r3, #1
 8006cec:	d101      	bne.n	8006cf2 <HAL_UART_Init+0x52>
  {
    return HAL_ERROR;
 8006cee:	2301      	movs	r3, #1
 8006cf0:	e022      	b.n	8006d38 <HAL_UART_Init+0x98>
  }

  if (huart->AdvancedInit.AdvFeatureInit != UART_ADVFEATURE_NO_INIT)
 8006cf2:	687b      	ldr	r3, [r7, #4]
 8006cf4:	6a9b      	ldr	r3, [r3, #40]	; 0x28
 8006cf6:	2b00      	cmp	r3, #0
 8006cf8:	d002      	beq.n	8006d00 <HAL_UART_Init+0x60>
  {
    UART_AdvFeatureConfig(huart);
 8006cfa:	6878      	ldr	r0, [r7, #4]
 8006cfc:	f000 fe8c 	bl	8007a18 <UART_AdvFeatureConfig>
  }

  /* In asynchronous mode, the following bits must be kept cleared:
  - LINEN and CLKEN bits in the USART_CR2 register,
  - SCEN, HDSEL and IREN  bits in the USART_CR3 register.*/
  CLEAR_BIT(huart->Instance->CR2, (USART_CR2_LINEN | USART_CR2_CLKEN));
 8006d00:	687b      	ldr	r3, [r7, #4]
 8006d02:	681b      	ldr	r3, [r3, #0]
 8006d04:	685a      	ldr	r2, [r3, #4]
 8006d06:	687b      	ldr	r3, [r7, #4]
 8006d08:	681b      	ldr	r3, [r3, #0]
 8006d0a:	f422 4290 	bic.w	r2, r2, #18432	; 0x4800
 8006d0e:	605a      	str	r2, [r3, #4]
  CLEAR_BIT(huart->Instance->CR3, (USART_CR3_SCEN | USART_CR3_HDSEL | USART_CR3_IREN));
 8006d10:	687b      	ldr	r3, [r7, #4]
 8006d12:	681b      	ldr	r3, [r3, #0]
 8006d14:	689a      	ldr	r2, [r3, #8]
 8006d16:	687b      	ldr	r3, [r7, #4]
 8006d18:	681b      	ldr	r3, [r3, #0]
 8006d1a:	f022 022a 	bic.w	r2, r2, #42	; 0x2a
 8006d1e:	609a      	str	r2, [r3, #8]

  __HAL_UART_ENABLE(huart);
 8006d20:	687b      	ldr	r3, [r7, #4]
 8006d22:	681b      	ldr	r3, [r3, #0]
 8006d24:	681a      	ldr	r2, [r3, #0]
 8006d26:	687b      	ldr	r3, [r7, #4]
 8006d28:	681b      	ldr	r3, [r3, #0]
 8006d2a:	f042 0201 	orr.w	r2, r2, #1
 8006d2e:	601a      	str	r2, [r3, #0]

  /* TEACK and/or REACK to check before moving huart->gState and huart->RxState to Ready */
  return (UART_CheckIdleState(huart));
 8006d30:	6878      	ldr	r0, [r7, #4]
 8006d32:	f000 ff13 	bl	8007b5c <UART_CheckIdleState>
 8006d36:	4603      	mov	r3, r0
}
 8006d38:	4618      	mov	r0, r3
 8006d3a:	3708      	adds	r7, #8
 8006d3c:	46bd      	mov	sp, r7
 8006d3e:	bd80      	pop	{r7, pc}

08006d40 <UART_SetConfig>:
  * @brief Configure the UART peripheral.
  * @param huart UART handle.
  * @retval HAL status
  */
HAL_StatusTypeDef UART_SetConfig(UART_HandleTypeDef *huart)
{
 8006d40:	e92d 4fb0 	stmdb	sp!, {r4, r5, r7, r8, r9, sl, fp, lr}
 8006d44:	b092      	sub	sp, #72	; 0x48
 8006d46:	af00      	add	r7, sp, #0
 8006d48:	6178      	str	r0, [r7, #20]
  uint32_t tmpreg;
  uint16_t brrtemp;
  UART_ClockSourceTypeDef clocksource;
  uint32_t usartdiv;
  HAL_StatusTypeDef ret               = HAL_OK;
 8006d4a:	2300      	movs	r3, #0
 8006d4c:	f887 3042 	strb.w	r3, [r7, #66]	; 0x42
  *  the UART Word Length, Parity, Mode and oversampling:
  *  set the M bits according to huart->Init.WordLength value
  *  set PCE and PS bits according to huart->Init.Parity value
  *  set TE and RE bits according to huart->Init.Mode value
  *  set OVER8 bit according to huart->Init.OverSampling value */
  tmpreg = (uint32_t)huart->Init.WordLength | huart->Init.Parity | huart->Init.Mode | huart->Init.OverSampling ;
 8006d50:	697b      	ldr	r3, [r7, #20]
 8006d52:	689a      	ldr	r2, [r3, #8]
 8006d54:	697b      	ldr	r3, [r7, #20]
 8006d56:	691b      	ldr	r3, [r3, #16]
 8006d58:	431a      	orrs	r2, r3
 8006d5a:	697b      	ldr	r3, [r7, #20]
 8006d5c:	695b      	ldr	r3, [r3, #20]
 8006d5e:	431a      	orrs	r2, r3
 8006d60:	697b      	ldr	r3, [r7, #20]
 8006d62:	69db      	ldr	r3, [r3, #28]
 8006d64:	4313      	orrs	r3, r2
 8006d66:	647b      	str	r3, [r7, #68]	; 0x44
  MODIFY_REG(huart->Instance->CR1, USART_CR1_FIELDS, tmpreg);
 8006d68:	697b      	ldr	r3, [r7, #20]
 8006d6a:	681b      	ldr	r3, [r3, #0]
 8006d6c:	681a      	ldr	r2, [r3, #0]
 8006d6e:	4bbe      	ldr	r3, [pc, #760]	; (8007068 <UART_SetConfig+0x328>)
 8006d70:	4013      	ands	r3, r2
 8006d72:	697a      	ldr	r2, [r7, #20]
 8006d74:	6812      	ldr	r2, [r2, #0]
 8006d76:	6c79      	ldr	r1, [r7, #68]	; 0x44
 8006d78:	430b      	orrs	r3, r1
 8006d7a:	6013      	str	r3, [r2, #0]

  /*-------------------------- USART CR2 Configuration -----------------------*/
  /* Configure the UART Stop Bits: Set STOP[13:12] bits according
  * to huart->Init.StopBits value */
  MODIFY_REG(huart->Instance->CR2, USART_CR2_STOP, huart->Init.StopBits);
 8006d7c:	697b      	ldr	r3, [r7, #20]
 8006d7e:	681b      	ldr	r3, [r3, #0]
 8006d80:	685b      	ldr	r3, [r3, #4]
 8006d82:	f423 5140 	bic.w	r1, r3, #12288	; 0x3000
 8006d86:	697b      	ldr	r3, [r7, #20]
 8006d88:	68da      	ldr	r2, [r3, #12]
 8006d8a:	697b      	ldr	r3, [r7, #20]
 8006d8c:	681b      	ldr	r3, [r3, #0]
 8006d8e:	430a      	orrs	r2, r1
 8006d90:	605a      	str	r2, [r3, #4]
  /* Configure
  * - UART HardWare Flow Control: set CTSE and RTSE bits according
  *   to huart->Init.HwFlowCtl value
  * - one-bit sampling method versus three samples' majority rule according
  *   to huart->Init.OneBitSampling (not applicable to LPUART) */
  tmpreg = (uint32_t)huart->Init.HwFlowCtl;
 8006d92:	697b      	ldr	r3, [r7, #20]
 8006d94:	699b      	ldr	r3, [r3, #24]
 8006d96:	647b      	str	r3, [r7, #68]	; 0x44

  if (!(UART_INSTANCE_LOWPOWER(huart)))
 8006d98:	697b      	ldr	r3, [r7, #20]
 8006d9a:	681b      	ldr	r3, [r3, #0]
 8006d9c:	4ab3      	ldr	r2, [pc, #716]	; (800706c <UART_SetConfig+0x32c>)
 8006d9e:	4293      	cmp	r3, r2
 8006da0:	d004      	beq.n	8006dac <UART_SetConfig+0x6c>
  {
    tmpreg |= huart->Init.OneBitSampling;
 8006da2:	697b      	ldr	r3, [r7, #20]
 8006da4:	6a1b      	ldr	r3, [r3, #32]
 8006da6:	6c7a      	ldr	r2, [r7, #68]	; 0x44
 8006da8:	4313      	orrs	r3, r2
 8006daa:	647b      	str	r3, [r7, #68]	; 0x44
  }
  MODIFY_REG(huart->Instance->CR3, USART_CR3_FIELDS, tmpreg);
 8006dac:	697b      	ldr	r3, [r7, #20]
 8006dae:	681b      	ldr	r3, [r3, #0]
 8006db0:	689a      	ldr	r2, [r3, #8]
 8006db2:	4baf      	ldr	r3, [pc, #700]	; (8007070 <UART_SetConfig+0x330>)
 8006db4:	4013      	ands	r3, r2
 8006db6:	697a      	ldr	r2, [r7, #20]
 8006db8:	6812      	ldr	r2, [r2, #0]
 8006dba:	6c79      	ldr	r1, [r7, #68]	; 0x44
 8006dbc:	430b      	orrs	r3, r1
 8006dbe:	6093      	str	r3, [r2, #8]

  /*-------------------------- USART PRESC Configuration -----------------------*/
  /* Configure
  * - UART Clock Prescaler : set PRESCALER according to huart->Init.ClockPrescaler value */
  MODIFY_REG(huart->Instance->PRESC, USART_PRESC_PRESCALER, huart->Init.ClockPrescaler);
 8006dc0:	697b      	ldr	r3, [r7, #20]
 8006dc2:	681b      	ldr	r3, [r3, #0]
 8006dc4:	6adb      	ldr	r3, [r3, #44]	; 0x2c
 8006dc6:	f023 010f 	bic.w	r1, r3, #15
 8006dca:	697b      	ldr	r3, [r7, #20]
 8006dcc:	6a5a      	ldr	r2, [r3, #36]	; 0x24
 8006dce:	697b      	ldr	r3, [r7, #20]
 8006dd0:	681b      	ldr	r3, [r3, #0]
 8006dd2:	430a      	orrs	r2, r1
 8006dd4:	62da      	str	r2, [r3, #44]	; 0x2c

  /*-------------------------- USART BRR Configuration -----------------------*/
  UART_GETCLOCKSOURCE(huart, clocksource);
 8006dd6:	697b      	ldr	r3, [r7, #20]
 8006dd8:	681b      	ldr	r3, [r3, #0]
 8006dda:	4aa6      	ldr	r2, [pc, #664]	; (8007074 <UART_SetConfig+0x334>)
 8006ddc:	4293      	cmp	r3, r2
 8006dde:	d177      	bne.n	8006ed0 <UART_SetConfig+0x190>
 8006de0:	4ba5      	ldr	r3, [pc, #660]	; (8007078 <UART_SetConfig+0x338>)
 8006de2:	6d5b      	ldr	r3, [r3, #84]	; 0x54
 8006de4:	f003 0338 	and.w	r3, r3, #56	; 0x38
 8006de8:	2b28      	cmp	r3, #40	; 0x28
 8006dea:	d86d      	bhi.n	8006ec8 <UART_SetConfig+0x188>
 8006dec:	a201      	add	r2, pc, #4	; (adr r2, 8006df4 <UART_SetConfig+0xb4>)
 8006dee:	f852 f023 	ldr.w	pc, [r2, r3, lsl #2]
 8006df2:	bf00      	nop
 8006df4:	08006e99 	.word	0x08006e99
 8006df8:	08006ec9 	.word	0x08006ec9
 8006dfc:	08006ec9 	.word	0x08006ec9
 8006e00:	08006ec9 	.word	0x08006ec9
 8006e04:	08006ec9 	.word	0x08006ec9
 8006e08:	08006ec9 	.word	0x08006ec9
 8006e0c:	08006ec9 	.word	0x08006ec9
 8006e10:	08006ec9 	.word	0x08006ec9
 8006e14:	08006ea1 	.word	0x08006ea1
 8006e18:	08006ec9 	.word	0x08006ec9
 8006e1c:	08006ec9 	.word	0x08006ec9
 8006e20:	08006ec9 	.word	0x08006ec9
 8006e24:	08006ec9 	.word	0x08006ec9
 8006e28:	08006ec9 	.word	0x08006ec9
 8006e2c:	08006ec9 	.word	0x08006ec9
 8006e30:	08006ec9 	.word	0x08006ec9
 8006e34:	08006ea9 	.word	0x08006ea9
 8006e38:	08006ec9 	.word	0x08006ec9
 8006e3c:	08006ec9 	.word	0x08006ec9
 8006e40:	08006ec9 	.word	0x08006ec9
 8006e44:	08006ec9 	.word	0x08006ec9
 8006e48:	08006ec9 	.word	0x08006ec9
 8006e4c:	08006ec9 	.word	0x08006ec9
 8006e50:	08006ec9 	.word	0x08006ec9
 8006e54:	08006eb1 	.word	0x08006eb1
 8006e58:	08006ec9 	.word	0x08006ec9
 8006e5c:	08006ec9 	.word	0x08006ec9
 8006e60:	08006ec9 	.word	0x08006ec9
 8006e64:	08006ec9 	.word	0x08006ec9
 8006e68:	08006ec9 	.word	0x08006ec9
 8006e6c:	08006ec9 	.word	0x08006ec9
 8006e70:	08006ec9 	.word	0x08006ec9
 8006e74:	08006eb9 	.word	0x08006eb9
 8006e78:	08006ec9 	.word	0x08006ec9
 8006e7c:	08006ec9 	.word	0x08006ec9
 8006e80:	08006ec9 	.word	0x08006ec9
 8006e84:	08006ec9 	.word	0x08006ec9
 8006e88:	08006ec9 	.word	0x08006ec9
 8006e8c:	08006ec9 	.word	0x08006ec9
 8006e90:	08006ec9 	.word	0x08006ec9
 8006e94:	08006ec1 	.word	0x08006ec1
 8006e98:	2301      	movs	r3, #1
 8006e9a:	f887 3043 	strb.w	r3, [r7, #67]	; 0x43
 8006e9e:	e326      	b.n	80074ee <UART_SetConfig+0x7ae>
 8006ea0:	2304      	movs	r3, #4
 8006ea2:	f887 3043 	strb.w	r3, [r7, #67]	; 0x43
 8006ea6:	e322      	b.n	80074ee <UART_SetConfig+0x7ae>
 8006ea8:	2308      	movs	r3, #8
 8006eaa:	f887 3043 	strb.w	r3, [r7, #67]	; 0x43
 8006eae:	e31e      	b.n	80074ee <UART_SetConfig+0x7ae>
 8006eb0:	2310      	movs	r3, #16
 8006eb2:	f887 3043 	strb.w	r3, [r7, #67]	; 0x43
 8006eb6:	e31a      	b.n	80074ee <UART_SetConfig+0x7ae>
 8006eb8:	2320      	movs	r3, #32
 8006eba:	f887 3043 	strb.w	r3, [r7, #67]	; 0x43
 8006ebe:	e316      	b.n	80074ee <UART_SetConfig+0x7ae>
 8006ec0:	2340      	movs	r3, #64	; 0x40
 8006ec2:	f887 3043 	strb.w	r3, [r7, #67]	; 0x43
 8006ec6:	e312      	b.n	80074ee <UART_SetConfig+0x7ae>
 8006ec8:	2380      	movs	r3, #128	; 0x80
 8006eca:	f887 3043 	strb.w	r3, [r7, #67]	; 0x43
 8006ece:	e30e      	b.n	80074ee <UART_SetConfig+0x7ae>
 8006ed0:	697b      	ldr	r3, [r7, #20]
 8006ed2:	681b      	ldr	r3, [r3, #0]
 8006ed4:	4a69      	ldr	r2, [pc, #420]	; (800707c <UART_SetConfig+0x33c>)
 8006ed6:	4293      	cmp	r3, r2
 8006ed8:	d130      	bne.n	8006f3c <UART_SetConfig+0x1fc>
 8006eda:	4b67      	ldr	r3, [pc, #412]	; (8007078 <UART_SetConfig+0x338>)
 8006edc:	6d5b      	ldr	r3, [r3, #84]	; 0x54
 8006ede:	f003 0307 	and.w	r3, r3, #7
 8006ee2:	2b05      	cmp	r3, #5
 8006ee4:	d826      	bhi.n	8006f34 <UART_SetConfig+0x1f4>
 8006ee6:	a201      	add	r2, pc, #4	; (adr r2, 8006eec <UART_SetConfig+0x1ac>)
 8006ee8:	f852 f023 	ldr.w	pc, [r2, r3, lsl #2]
 8006eec:	08006f05 	.word	0x08006f05
 8006ef0:	08006f0d 	.word	0x08006f0d
 8006ef4:	08006f15 	.word	0x08006f15
 8006ef8:	08006f1d 	.word	0x08006f1d
 8006efc:	08006f25 	.word	0x08006f25
 8006f00:	08006f2d 	.word	0x08006f2d
 8006f04:	2300      	movs	r3, #0
 8006f06:	f887 3043 	strb.w	r3, [r7, #67]	; 0x43
 8006f0a:	e2f0      	b.n	80074ee <UART_SetConfig+0x7ae>
 8006f0c:	2304      	movs	r3, #4
 8006f0e:	f887 3043 	strb.w	r3, [r7, #67]	; 0x43
 8006f12:	e2ec      	b.n	80074ee <UART_SetConfig+0x7ae>
 8006f14:	2308      	movs	r3, #8
 8006f16:	f887 3043 	strb.w	r3, [r7, #67]	; 0x43
 8006f1a:	e2e8      	b.n	80074ee <UART_SetConfig+0x7ae>
 8006f1c:	2310      	movs	r3, #16
 8006f1e:	f887 3043 	strb.w	r3, [r7, #67]	; 0x43
 8006f22:	e2e4      	b.n	80074ee <UART_SetConfig+0x7ae>
 8006f24:	2320      	movs	r3, #32
 8006f26:	f887 3043 	strb.w	r3, [r7, #67]	; 0x43
 8006f2a:	e2e0      	b.n	80074ee <UART_SetConfig+0x7ae>
 8006f2c:	2340      	movs	r3, #64	; 0x40
 8006f2e:	f887 3043 	strb.w	r3, [r7, #67]	; 0x43
 8006f32:	e2dc      	b.n	80074ee <UART_SetConfig+0x7ae>
 8006f34:	2380      	movs	r3, #128	; 0x80
 8006f36:	f887 3043 	strb.w	r3, [r7, #67]	; 0x43
 8006f3a:	e2d8      	b.n	80074ee <UART_SetConfig+0x7ae>
 8006f3c:	697b      	ldr	r3, [r7, #20]
 8006f3e:	681b      	ldr	r3, [r3, #0]
 8006f40:	4a4f      	ldr	r2, [pc, #316]	; (8007080 <UART_SetConfig+0x340>)
 8006f42:	4293      	cmp	r3, r2
 8006f44:	d130      	bne.n	8006fa8 <UART_SetConfig+0x268>
 8006f46:	4b4c      	ldr	r3, [pc, #304]	; (8007078 <UART_SetConfig+0x338>)
 8006f48:	6d5b      	ldr	r3, [r3, #84]	; 0x54
 8006f4a:	f003 0307 	and.w	r3, r3, #7
 8006f4e:	2b05      	cmp	r3, #5
 8006f50:	d826      	bhi.n	8006fa0 <UART_SetConfig+0x260>
 8006f52:	a201      	add	r2, pc, #4	; (adr r2, 8006f58 <UART_SetConfig+0x218>)
 8006f54:	f852 f023 	ldr.w	pc, [r2, r3, lsl #2]
 8006f58:	08006f71 	.word	0x08006f71
 8006f5c:	08006f79 	.word	0x08006f79
 8006f60:	08006f81 	.word	0x08006f81
 8006f64:	08006f89 	.word	0x08006f89
 8006f68:	08006f91 	.word	0x08006f91
 8006f6c:	08006f99 	.word	0x08006f99
 8006f70:	2300      	movs	r3, #0
 8006f72:	f887 3043 	strb.w	r3, [r7, #67]	; 0x43
 8006f76:	e2ba      	b.n	80074ee <UART_SetConfig+0x7ae>
 8006f78:	2304      	movs	r3, #4
 8006f7a:	f887 3043 	strb.w	r3, [r7, #67]	; 0x43
 8006f7e:	e2b6      	b.n	80074ee <UART_SetConfig+0x7ae>
 8006f80:	2308      	movs	r3, #8
 8006f82:	f887 3043 	strb.w	r3, [r7, #67]	; 0x43
 8006f86:	e2b2      	b.n	80074ee <UART_SetConfig+0x7ae>
 8006f88:	2310      	movs	r3, #16
 8006f8a:	f887 3043 	strb.w	r3, [r7, #67]	; 0x43
 8006f8e:	e2ae      	b.n	80074ee <UART_SetConfig+0x7ae>
 8006f90:	2320      	movs	r3, #32
 8006f92:	f887 3043 	strb.w	r3, [r7, #67]	; 0x43
 8006f96:	e2aa      	b.n	80074ee <UART_SetConfig+0x7ae>
 8006f98:	2340      	movs	r3, #64	; 0x40
 8006f9a:	f887 3043 	strb.w	r3, [r7, #67]	; 0x43
 8006f9e:	e2a6      	b.n	80074ee <UART_SetConfig+0x7ae>
 8006fa0:	2380      	movs	r3, #128	; 0x80
 8006fa2:	f887 3043 	strb.w	r3, [r7, #67]	; 0x43
 8006fa6:	e2a2      	b.n	80074ee <UART_SetConfig+0x7ae>
 8006fa8:	697b      	ldr	r3, [r7, #20]
 8006faa:	681b      	ldr	r3, [r3, #0]
 8006fac:	4a35      	ldr	r2, [pc, #212]	; (8007084 <UART_SetConfig+0x344>)
 8006fae:	4293      	cmp	r3, r2
 8006fb0:	d130      	bne.n	8007014 <UART_SetConfig+0x2d4>
 8006fb2:	4b31      	ldr	r3, [pc, #196]	; (8007078 <UART_SetConfig+0x338>)
 8006fb4:	6d5b      	ldr	r3, [r3, #84]	; 0x54
 8006fb6:	f003 0307 	and.w	r3, r3, #7
 8006fba:	2b05      	cmp	r3, #5
 8006fbc:	d826      	bhi.n	800700c <UART_SetConfig+0x2cc>
 8006fbe:	a201      	add	r2, pc, #4	; (adr r2, 8006fc4 <UART_SetConfig+0x284>)
 8006fc0:	f852 f023 	ldr.w	pc, [r2, r3, lsl #2]
 8006fc4:	08006fdd 	.word	0x08006fdd
 8006fc8:	08006fe5 	.word	0x08006fe5
 8006fcc:	08006fed 	.word	0x08006fed
 8006fd0:	08006ff5 	.word	0x08006ff5
 8006fd4:	08006ffd 	.word	0x08006ffd
 8006fd8:	08007005 	.word	0x08007005
 8006fdc:	2300      	movs	r3, #0
 8006fde:	f887 3043 	strb.w	r3, [r7, #67]	; 0x43
 8006fe2:	e284      	b.n	80074ee <UART_SetConfig+0x7ae>
 8006fe4:	2304      	movs	r3, #4
 8006fe6:	f887 3043 	strb.w	r3, [r7, #67]	; 0x43
 8006fea:	e280      	b.n	80074ee <UART_SetConfig+0x7ae>
 8006fec:	2308      	movs	r3, #8
 8006fee:	f887 3043 	strb.w	r3, [r7, #67]	; 0x43
 8006ff2:	e27c      	b.n	80074ee <UART_SetConfig+0x7ae>
 8006ff4:	2310      	movs	r3, #16
 8006ff6:	f887 3043 	strb.w	r3, [r7, #67]	; 0x43
 8006ffa:	e278      	b.n	80074ee <UART_SetConfig+0x7ae>
 8006ffc:	2320      	movs	r3, #32
 8006ffe:	f887 3043 	strb.w	r3, [r7, #67]	; 0x43
 8007002:	e274      	b.n	80074ee <UART_SetConfig+0x7ae>
 8007004:	2340      	movs	r3, #64	; 0x40
 8007006:	f887 3043 	strb.w	r3, [r7, #67]	; 0x43
 800700a:	e270      	b.n	80074ee <UART_SetConfig+0x7ae>
 800700c:	2380      	movs	r3, #128	; 0x80
 800700e:	f887 3043 	strb.w	r3, [r7, #67]	; 0x43
 8007012:	e26c      	b.n	80074ee <UART_SetConfig+0x7ae>
 8007014:	697b      	ldr	r3, [r7, #20]
 8007016:	681b      	ldr	r3, [r3, #0]
 8007018:	4a1b      	ldr	r2, [pc, #108]	; (8007088 <UART_SetConfig+0x348>)
 800701a:	4293      	cmp	r3, r2
 800701c:	d142      	bne.n	80070a4 <UART_SetConfig+0x364>
 800701e:	4b16      	ldr	r3, [pc, #88]	; (8007078 <UART_SetConfig+0x338>)
 8007020:	6d5b      	ldr	r3, [r3, #84]	; 0x54
 8007022:	f003 0307 	and.w	r3, r3, #7
 8007026:	2b05      	cmp	r3, #5
 8007028:	d838      	bhi.n	800709c <UART_SetConfig+0x35c>
 800702a:	a201      	add	r2, pc, #4	; (adr r2, 8007030 <UART_SetConfig+0x2f0>)
 800702c:	f852 f023 	ldr.w	pc, [r2, r3, lsl #2]
 8007030:	08007049 	.word	0x08007049
 8007034:	08007051 	.word	0x08007051
 8007038:	08007059 	.word	0x08007059
 800703c:	08007061 	.word	0x08007061
 8007040:	0800708d 	.word	0x0800708d
 8007044:	08007095 	.word	0x08007095
 8007048:	2300      	movs	r3, #0
 800704a:	f887 3043 	strb.w	r3, [r7, #67]	; 0x43
 800704e:	e24e      	b.n	80074ee <UART_SetConfig+0x7ae>
 8007050:	2304      	movs	r3, #4
 8007052:	f887 3043 	strb.w	r3, [r7, #67]	; 0x43
 8007056:	e24a      	b.n	80074ee <UART_SetConfig+0x7ae>
 8007058:	2308      	movs	r3, #8
 800705a:	f887 3043 	strb.w	r3, [r7, #67]	; 0x43
 800705e:	e246      	b.n	80074ee <UART_SetConfig+0x7ae>
 8007060:	2310      	movs	r3, #16
 8007062:	f887 3043 	strb.w	r3, [r7, #67]	; 0x43
 8007066:	e242      	b.n	80074ee <UART_SetConfig+0x7ae>
 8007068:	cfff69f3 	.word	0xcfff69f3
 800706c:	58000c00 	.word	0x58000c00
 8007070:	11fff4ff 	.word	0x11fff4ff
 8007074:	40011000 	.word	0x40011000
 8007078:	58024400 	.word	0x58024400
 800707c:	40004400 	.word	0x40004400
 8007080:	40004800 	.word	0x40004800
 8007084:	40004c00 	.word	0x40004c00
 8007088:	40005000 	.word	0x40005000
 800708c:	2320      	movs	r3, #32
 800708e:	f887 3043 	strb.w	r3, [r7, #67]	; 0x43
 8007092:	e22c      	b.n	80074ee <UART_SetConfig+0x7ae>
 8007094:	2340      	movs	r3, #64	; 0x40
 8007096:	f887 3043 	strb.w	r3, [r7, #67]	; 0x43
 800709a:	e228      	b.n	80074ee <UART_SetConfig+0x7ae>
 800709c:	2380      	movs	r3, #128	; 0x80
 800709e:	f887 3043 	strb.w	r3, [r7, #67]	; 0x43
 80070a2:	e224      	b.n	80074ee <UART_SetConfig+0x7ae>
 80070a4:	697b      	ldr	r3, [r7, #20]
 80070a6:	681b      	ldr	r3, [r3, #0]
 80070a8:	4ab1      	ldr	r2, [pc, #708]	; (8007370 <UART_SetConfig+0x630>)
 80070aa:	4293      	cmp	r3, r2
 80070ac:	d176      	bne.n	800719c <UART_SetConfig+0x45c>
 80070ae:	4bb1      	ldr	r3, [pc, #708]	; (8007374 <UART_SetConfig+0x634>)
 80070b0:	6d5b      	ldr	r3, [r3, #84]	; 0x54
 80070b2:	f003 0338 	and.w	r3, r3, #56	; 0x38
 80070b6:	2b28      	cmp	r3, #40	; 0x28
 80070b8:	d86c      	bhi.n	8007194 <UART_SetConfig+0x454>
 80070ba:	a201      	add	r2, pc, #4	; (adr r2, 80070c0 <UART_SetConfig+0x380>)
 80070bc:	f852 f023 	ldr.w	pc, [r2, r3, lsl #2]
 80070c0:	08007165 	.word	0x08007165
 80070c4:	08007195 	.word	0x08007195
 80070c8:	08007195 	.word	0x08007195
 80070cc:	08007195 	.word	0x08007195
 80070d0:	08007195 	.word	0x08007195
 80070d4:	08007195 	.word	0x08007195
 80070d8:	08007195 	.word	0x08007195
 80070dc:	08007195 	.word	0x08007195
 80070e0:	0800716d 	.word	0x0800716d
 80070e4:	08007195 	.word	0x08007195
 80070e8:	08007195 	.word	0x08007195
 80070ec:	08007195 	.word	0x08007195
 80070f0:	08007195 	.word	0x08007195
 80070f4:	08007195 	.word	0x08007195
 80070f8:	08007195 	.word	0x08007195
 80070fc:	08007195 	.word	0x08007195
 8007100:	08007175 	.word	0x08007175
 8007104:	08007195 	.word	0x08007195
 8007108:	08007195 	.word	0x08007195
 800710c:	08007195 	.word	0x08007195
 8007110:	08007195 	.word	0x08007195
 8007114:	08007195 	.word	0x08007195
 8007118:	08007195 	.word	0x08007195
 800711c:	08007195 	.word	0x08007195
 8007120:	0800717d 	.word	0x0800717d
 8007124:	08007195 	.word	0x08007195
 8007128:	08007195 	.word	0x08007195
 800712c:	08007195 	.word	0x08007195
 8007130:	08007195 	.word	0x08007195
 8007134:	08007195 	.word	0x08007195
 8007138:	08007195 	.word	0x08007195
 800713c:	08007195 	.word	0x08007195
 8007140:	08007185 	.word	0x08007185
 8007144:	08007195 	.word	0x08007195
 8007148:	08007195 	.word	0x08007195
 800714c:	08007195 	.word	0x08007195
 8007150:	08007195 	.word	0x08007195
 8007154:	08007195 	.word	0x08007195
 8007158:	08007195 	.word	0x08007195
 800715c:	08007195 	.word	0x08007195
 8007160:	0800718d 	.word	0x0800718d
 8007164:	2301      	movs	r3, #1
 8007166:	f887 3043 	strb.w	r3, [r7, #67]	; 0x43
 800716a:	e1c0      	b.n	80074ee <UART_SetConfig+0x7ae>
 800716c:	2304      	movs	r3, #4
 800716e:	f887 3043 	strb.w	r3, [r7, #67]	; 0x43
 8007172:	e1bc      	b.n	80074ee <UART_SetConfig+0x7ae>
 8007174:	2308      	movs	r3, #8
 8007176:	f887 3043 	strb.w	r3, [r7, #67]	; 0x43
 800717a:	e1b8      	b.n	80074ee <UART_SetConfig+0x7ae>
 800717c:	2310      	movs	r3, #16
 800717e:	f887 3043 	strb.w	r3, [r7, #67]	; 0x43
 8007182:	e1b4      	b.n	80074ee <UART_SetConfig+0x7ae>
 8007184:	2320      	movs	r3, #32
 8007186:	f887 3043 	strb.w	r3, [r7, #67]	; 0x43
 800718a:	e1b0      	b.n	80074ee <UART_SetConfig+0x7ae>
 800718c:	2340      	movs	r3, #64	; 0x40
 800718e:	f887 3043 	strb.w	r3, [r7, #67]	; 0x43
 8007192:	e1ac      	b.n	80074ee <UART_SetConfig+0x7ae>
 8007194:	2380      	movs	r3, #128	; 0x80
 8007196:	f887 3043 	strb.w	r3, [r7, #67]	; 0x43
 800719a:	e1a8      	b.n	80074ee <UART_SetConfig+0x7ae>
 800719c:	697b      	ldr	r3, [r7, #20]
 800719e:	681b      	ldr	r3, [r3, #0]
 80071a0:	4a75      	ldr	r2, [pc, #468]	; (8007378 <UART_SetConfig+0x638>)
 80071a2:	4293      	cmp	r3, r2
 80071a4:	d130      	bne.n	8007208 <UART_SetConfig+0x4c8>
 80071a6:	4b73      	ldr	r3, [pc, #460]	; (8007374 <UART_SetConfig+0x634>)
 80071a8:	6d5b      	ldr	r3, [r3, #84]	; 0x54
 80071aa:	f003 0307 	and.w	r3, r3, #7
 80071ae:	2b05      	cmp	r3, #5
 80071b0:	d826      	bhi.n	8007200 <UART_SetConfig+0x4c0>
 80071b2:	a201      	add	r2, pc, #4	; (adr r2, 80071b8 <UART_SetConfig+0x478>)
 80071b4:	f852 f023 	ldr.w	pc, [r2, r3, lsl #2]
 80071b8:	080071d1 	.word	0x080071d1
 80071bc:	080071d9 	.word	0x080071d9
 80071c0:	080071e1 	.word	0x080071e1
 80071c4:	080071e9 	.word	0x080071e9
 80071c8:	080071f1 	.word	0x080071f1
 80071cc:	080071f9 	.word	0x080071f9
 80071d0:	2300      	movs	r3, #0
 80071d2:	f887 3043 	strb.w	r3, [r7, #67]	; 0x43
 80071d6:	e18a      	b.n	80074ee <UART_SetConfig+0x7ae>
 80071d8:	2304      	movs	r3, #4
 80071da:	f887 3043 	strb.w	r3, [r7, #67]	; 0x43
 80071de:	e186      	b.n	80074ee <UART_SetConfig+0x7ae>
 80071e0:	2308      	movs	r3, #8
 80071e2:	f887 3043 	strb.w	r3, [r7, #67]	; 0x43
 80071e6:	e182      	b.n	80074ee <UART_SetConfig+0x7ae>
 80071e8:	2310      	movs	r3, #16
 80071ea:	f887 3043 	strb.w	r3, [r7, #67]	; 0x43
 80071ee:	e17e      	b.n	80074ee <UART_SetConfig+0x7ae>
 80071f0:	2320      	movs	r3, #32
 80071f2:	f887 3043 	strb.w	r3, [r7, #67]	; 0x43
 80071f6:	e17a      	b.n	80074ee <UART_SetConfig+0x7ae>
 80071f8:	2340      	movs	r3, #64	; 0x40
 80071fa:	f887 3043 	strb.w	r3, [r7, #67]	; 0x43
 80071fe:	e176      	b.n	80074ee <UART_SetConfig+0x7ae>
 8007200:	2380      	movs	r3, #128	; 0x80
 8007202:	f887 3043 	strb.w	r3, [r7, #67]	; 0x43
 8007206:	e172      	b.n	80074ee <UART_SetConfig+0x7ae>
 8007208:	697b      	ldr	r3, [r7, #20]
 800720a:	681b      	ldr	r3, [r3, #0]
 800720c:	4a5b      	ldr	r2, [pc, #364]	; (800737c <UART_SetConfig+0x63c>)
 800720e:	4293      	cmp	r3, r2
 8007210:	d130      	bne.n	8007274 <UART_SetConfig+0x534>
 8007212:	4b58      	ldr	r3, [pc, #352]	; (8007374 <UART_SetConfig+0x634>)
 8007214:	6d5b      	ldr	r3, [r3, #84]	; 0x54
 8007216:	f003 0307 	and.w	r3, r3, #7
 800721a:	2b05      	cmp	r3, #5
 800721c:	d826      	bhi.n	800726c <UART_SetConfig+0x52c>
 800721e:	a201      	add	r2, pc, #4	; (adr r2, 8007224 <UART_SetConfig+0x4e4>)
 8007220:	f852 f023 	ldr.w	pc, [r2, r3, lsl #2]
 8007224:	0800723d 	.word	0x0800723d
 8007228:	08007245 	.word	0x08007245
 800722c:	0800724d 	.word	0x0800724d
 8007230:	08007255 	.word	0x08007255
 8007234:	0800725d 	.word	0x0800725d
 8007238:	08007265 	.word	0x08007265
 800723c:	2300      	movs	r3, #0
 800723e:	f887 3043 	strb.w	r3, [r7, #67]	; 0x43
 8007242:	e154      	b.n	80074ee <UART_SetConfig+0x7ae>
 8007244:	2304      	movs	r3, #4
 8007246:	f887 3043 	strb.w	r3, [r7, #67]	; 0x43
 800724a:	e150      	b.n	80074ee <UART_SetConfig+0x7ae>
 800724c:	2308      	movs	r3, #8
 800724e:	f887 3043 	strb.w	r3, [r7, #67]	; 0x43
 8007252:	e14c      	b.n	80074ee <UART_SetConfig+0x7ae>
 8007254:	2310      	movs	r3, #16
 8007256:	f887 3043 	strb.w	r3, [r7, #67]	; 0x43
 800725a:	e148      	b.n	80074ee <UART_SetConfig+0x7ae>
 800725c:	2320      	movs	r3, #32
 800725e:	f887 3043 	strb.w	r3, [r7, #67]	; 0x43
 8007262:	e144      	b.n	80074ee <UART_SetConfig+0x7ae>
 8007264:	2340      	movs	r3, #64	; 0x40
 8007266:	f887 3043 	strb.w	r3, [r7, #67]	; 0x43
 800726a:	e140      	b.n	80074ee <UART_SetConfig+0x7ae>
 800726c:	2380      	movs	r3, #128	; 0x80
 800726e:	f887 3043 	strb.w	r3, [r7, #67]	; 0x43
 8007272:	e13c      	b.n	80074ee <UART_SetConfig+0x7ae>
 8007274:	697b      	ldr	r3, [r7, #20]
 8007276:	681b      	ldr	r3, [r3, #0]
 8007278:	4a41      	ldr	r2, [pc, #260]	; (8007380 <UART_SetConfig+0x640>)
 800727a:	4293      	cmp	r3, r2
 800727c:	f040 8082 	bne.w	8007384 <UART_SetConfig+0x644>
 8007280:	4b3c      	ldr	r3, [pc, #240]	; (8007374 <UART_SetConfig+0x634>)
 8007282:	6d5b      	ldr	r3, [r3, #84]	; 0x54
 8007284:	f003 0338 	and.w	r3, r3, #56	; 0x38
 8007288:	2b28      	cmp	r3, #40	; 0x28
 800728a:	d86d      	bhi.n	8007368 <UART_SetConfig+0x628>
 800728c:	a201      	add	r2, pc, #4	; (adr r2, 8007294 <UART_SetConfig+0x554>)
 800728e:	f852 f023 	ldr.w	pc, [r2, r3, lsl #2]
 8007292:	bf00      	nop
 8007294:	08007339 	.word	0x08007339
 8007298:	08007369 	.word	0x08007369
 800729c:	08007369 	.word	0x08007369
 80072a0:	08007369 	.word	0x08007369
 80072a4:	08007369 	.word	0x08007369
 80072a8:	08007369 	.word	0x08007369
 80072ac:	08007369 	.word	0x08007369
 80072b0:	08007369 	.word	0x08007369
 80072b4:	08007341 	.word	0x08007341
 80072b8:	08007369 	.word	0x08007369
 80072bc:	08007369 	.word	0x08007369
 80072c0:	08007369 	.word	0x08007369
 80072c4:	08007369 	.word	0x08007369
 80072c8:	08007369 	.word	0x08007369
 80072cc:	08007369 	.word	0x08007369
 80072d0:	08007369 	.word	0x08007369
 80072d4:	08007349 	.word	0x08007349
 80072d8:	08007369 	.word	0x08007369
 80072dc:	08007369 	.word	0x08007369
 80072e0:	08007369 	.word	0x08007369
 80072e4:	08007369 	.word	0x08007369
 80072e8:	08007369 	.word	0x08007369
 80072ec:	08007369 	.word	0x08007369
 80072f0:	08007369 	.word	0x08007369
 80072f4:	08007351 	.word	0x08007351
 80072f8:	08007369 	.word	0x08007369
 80072fc:	08007369 	.word	0x08007369
 8007300:	08007369 	.word	0x08007369
 8007304:	08007369 	.word	0x08007369
 8007308:	08007369 	.word	0x08007369
 800730c:	08007369 	.word	0x08007369
 8007310:	08007369 	.word	0x08007369
 8007314:	08007359 	.word	0x08007359
 8007318:	08007369 	.word	0x08007369
 800731c:	08007369 	.word	0x08007369
 8007320:	08007369 	.word	0x08007369
 8007324:	08007369 	.word	0x08007369
 8007328:	08007369 	.word	0x08007369
 800732c:	08007369 	.word	0x08007369
 8007330:	08007369 	.word	0x08007369
 8007334:	08007361 	.word	0x08007361
 8007338:	2301      	movs	r3, #1
 800733a:	f887 3043 	strb.w	r3, [r7, #67]	; 0x43
 800733e:	e0d6      	b.n	80074ee <UART_SetConfig+0x7ae>
 8007340:	2304      	movs	r3, #4
 8007342:	f887 3043 	strb.w	r3, [r7, #67]	; 0x43
 8007346:	e0d2      	b.n	80074ee <UART_SetConfig+0x7ae>
 8007348:	2308      	movs	r3, #8
 800734a:	f887 3043 	strb.w	r3, [r7, #67]	; 0x43
 800734e:	e0ce      	b.n	80074ee <UART_SetConfig+0x7ae>
 8007350:	2310      	movs	r3, #16
 8007352:	f887 3043 	strb.w	r3, [r7, #67]	; 0x43
 8007356:	e0ca      	b.n	80074ee <UART_SetConfig+0x7ae>
 8007358:	2320      	movs	r3, #32
 800735a:	f887 3043 	strb.w	r3, [r7, #67]	; 0x43
 800735e:	e0c6      	b.n	80074ee <UART_SetConfig+0x7ae>
 8007360:	2340      	movs	r3, #64	; 0x40
 8007362:	f887 3043 	strb.w	r3, [r7, #67]	; 0x43
 8007366:	e0c2      	b.n	80074ee <UART_SetConfig+0x7ae>
 8007368:	2380      	movs	r3, #128	; 0x80
 800736a:	f887 3043 	strb.w	r3, [r7, #67]	; 0x43
 800736e:	e0be      	b.n	80074ee <UART_SetConfig+0x7ae>
 8007370:	40011400 	.word	0x40011400
 8007374:	58024400 	.word	0x58024400
 8007378:	40007800 	.word	0x40007800
 800737c:	40007c00 	.word	0x40007c00
 8007380:	40011800 	.word	0x40011800
 8007384:	697b      	ldr	r3, [r7, #20]
 8007386:	681b      	ldr	r3, [r3, #0]
 8007388:	4aad      	ldr	r2, [pc, #692]	; (8007640 <UART_SetConfig+0x900>)
 800738a:	4293      	cmp	r3, r2
 800738c:	d176      	bne.n	800747c <UART_SetConfig+0x73c>
 800738e:	4bad      	ldr	r3, [pc, #692]	; (8007644 <UART_SetConfig+0x904>)
 8007390:	6d5b      	ldr	r3, [r3, #84]	; 0x54
 8007392:	f003 0338 	and.w	r3, r3, #56	; 0x38
 8007396:	2b28      	cmp	r3, #40	; 0x28
 8007398:	d86c      	bhi.n	8007474 <UART_SetConfig+0x734>
 800739a:	a201      	add	r2, pc, #4	; (adr r2, 80073a0 <UART_SetConfig+0x660>)
 800739c:	f852 f023 	ldr.w	pc, [r2, r3, lsl #2]
 80073a0:	08007445 	.word	0x08007445
 80073a4:	08007475 	.word	0x08007475
 80073a8:	08007475 	.word	0x08007475
 80073ac:	08007475 	.word	0x08007475
 80073b0:	08007475 	.word	0x08007475
 80073b4:	08007475 	.word	0x08007475
 80073b8:	08007475 	.word	0x08007475
 80073bc:	08007475 	.word	0x08007475
 80073c0:	0800744d 	.word	0x0800744d
 80073c4:	08007475 	.word	0x08007475
 80073c8:	08007475 	.word	0x08007475
 80073cc:	08007475 	.word	0x08007475
 80073d0:	08007475 	.word	0x08007475
 80073d4:	08007475 	.word	0x08007475
 80073d8:	08007475 	.word	0x08007475
 80073dc:	08007475 	.word	0x08007475
 80073e0:	08007455 	.word	0x08007455
 80073e4:	08007475 	.word	0x08007475
 80073e8:	08007475 	.word	0x08007475
 80073ec:	08007475 	.word	0x08007475
 80073f0:	08007475 	.word	0x08007475
 80073f4:	08007475 	.word	0x08007475
 80073f8:	08007475 	.word	0x08007475
 80073fc:	08007475 	.word	0x08007475
 8007400:	0800745d 	.word	0x0800745d
 8007404:	08007475 	.word	0x08007475
 8007408:	08007475 	.word	0x08007475
 800740c:	08007475 	.word	0x08007475
 8007410:	08007475 	.word	0x08007475
 8007414:	08007475 	.word	0x08007475
 8007418:	08007475 	.word	0x08007475
 800741c:	08007475 	.word	0x08007475
 8007420:	08007465 	.word	0x08007465
 8007424:	08007475 	.word	0x08007475
 8007428:	08007475 	.word	0x08007475
 800742c:	08007475 	.word	0x08007475
 8007430:	08007475 	.word	0x08007475
 8007434:	08007475 	.word	0x08007475
 8007438:	08007475 	.word	0x08007475
 800743c:	08007475 	.word	0x08007475
 8007440:	0800746d 	.word	0x0800746d
 8007444:	2301      	movs	r3, #1
 8007446:	f887 3043 	strb.w	r3, [r7, #67]	; 0x43
 800744a:	e050      	b.n	80074ee <UART_SetConfig+0x7ae>
 800744c:	2304      	movs	r3, #4
 800744e:	f887 3043 	strb.w	r3, [r7, #67]	; 0x43
 8007452:	e04c      	b.n	80074ee <UART_SetConfig+0x7ae>
 8007454:	2308      	movs	r3, #8
 8007456:	f887 3043 	strb.w	r3, [r7, #67]	; 0x43
 800745a:	e048      	b.n	80074ee <UART_SetConfig+0x7ae>
 800745c:	2310      	movs	r3, #16
 800745e:	f887 3043 	strb.w	r3, [r7, #67]	; 0x43
 8007462:	e044      	b.n	80074ee <UART_SetConfig+0x7ae>
 8007464:	2320      	movs	r3, #32
 8007466:	f887 3043 	strb.w	r3, [r7, #67]	; 0x43
 800746a:	e040      	b.n	80074ee <UART_SetConfig+0x7ae>
 800746c:	2340      	movs	r3, #64	; 0x40
 800746e:	f887 3043 	strb.w	r3, [r7, #67]	; 0x43
 8007472:	e03c      	b.n	80074ee <UART_SetConfig+0x7ae>
 8007474:	2380      	movs	r3, #128	; 0x80
 8007476:	f887 3043 	strb.w	r3, [r7, #67]	; 0x43
 800747a:	e038      	b.n	80074ee <UART_SetConfig+0x7ae>
 800747c:	697b      	ldr	r3, [r7, #20]
 800747e:	681b      	ldr	r3, [r3, #0]
 8007480:	4a71      	ldr	r2, [pc, #452]	; (8007648 <UART_SetConfig+0x908>)
 8007482:	4293      	cmp	r3, r2
 8007484:	d130      	bne.n	80074e8 <UART_SetConfig+0x7a8>
 8007486:	4b6f      	ldr	r3, [pc, #444]	; (8007644 <UART_SetConfig+0x904>)
 8007488:	6d9b      	ldr	r3, [r3, #88]	; 0x58
 800748a:	f003 0307 	and.w	r3, r3, #7
 800748e:	2b05      	cmp	r3, #5
 8007490:	d826      	bhi.n	80074e0 <UART_SetConfig+0x7a0>
 8007492:	a201      	add	r2, pc, #4	; (adr r2, 8007498 <UART_SetConfig+0x758>)
 8007494:	f852 f023 	ldr.w	pc, [r2, r3, lsl #2]
 8007498:	080074b1 	.word	0x080074b1
 800749c:	080074b9 	.word	0x080074b9
 80074a0:	080074c1 	.word	0x080074c1
 80074a4:	080074c9 	.word	0x080074c9
 80074a8:	080074d1 	.word	0x080074d1
 80074ac:	080074d9 	.word	0x080074d9
 80074b0:	2302      	movs	r3, #2
 80074b2:	f887 3043 	strb.w	r3, [r7, #67]	; 0x43
 80074b6:	e01a      	b.n	80074ee <UART_SetConfig+0x7ae>
 80074b8:	2304      	movs	r3, #4
 80074ba:	f887 3043 	strb.w	r3, [r7, #67]	; 0x43
 80074be:	e016      	b.n	80074ee <UART_SetConfig+0x7ae>
 80074c0:	2308      	movs	r3, #8
 80074c2:	f887 3043 	strb.w	r3, [r7, #67]	; 0x43
 80074c6:	e012      	b.n	80074ee <UART_SetConfig+0x7ae>
 80074c8:	2310      	movs	r3, #16
 80074ca:	f887 3043 	strb.w	r3, [r7, #67]	; 0x43
 80074ce:	e00e      	b.n	80074ee <UART_SetConfig+0x7ae>
 80074d0:	2320      	movs	r3, #32
 80074d2:	f887 3043 	strb.w	r3, [r7, #67]	; 0x43
 80074d6:	e00a      	b.n	80074ee <UART_SetConfig+0x7ae>
 80074d8:	2340      	movs	r3, #64	; 0x40
 80074da:	f887 3043 	strb.w	r3, [r7, #67]	; 0x43
 80074de:	e006      	b.n	80074ee <UART_SetConfig+0x7ae>
 80074e0:	2380      	movs	r3, #128	; 0x80
 80074e2:	f887 3043 	strb.w	r3, [r7, #67]	; 0x43
 80074e6:	e002      	b.n	80074ee <UART_SetConfig+0x7ae>
 80074e8:	2380      	movs	r3, #128	; 0x80
 80074ea:	f887 3043 	strb.w	r3, [r7, #67]	; 0x43

  /* Check LPUART instance */
  if (UART_INSTANCE_LOWPOWER(huart))
 80074ee:	697b      	ldr	r3, [r7, #20]
 80074f0:	681b      	ldr	r3, [r3, #0]
 80074f2:	4a55      	ldr	r2, [pc, #340]	; (8007648 <UART_SetConfig+0x908>)
 80074f4:	4293      	cmp	r3, r2
 80074f6:	f040 80f8 	bne.w	80076ea <UART_SetConfig+0x9aa>
  {
    /* Retrieve frequency clock */
    switch (clocksource)
 80074fa:	f897 3043 	ldrb.w	r3, [r7, #67]	; 0x43
 80074fe:	2b20      	cmp	r3, #32
 8007500:	dc46      	bgt.n	8007590 <UART_SetConfig+0x850>
 8007502:	2b02      	cmp	r3, #2
 8007504:	db75      	blt.n	80075f2 <UART_SetConfig+0x8b2>
 8007506:	3b02      	subs	r3, #2
 8007508:	2b1e      	cmp	r3, #30
 800750a:	d872      	bhi.n	80075f2 <UART_SetConfig+0x8b2>
 800750c:	a201      	add	r2, pc, #4	; (adr r2, 8007514 <UART_SetConfig+0x7d4>)
 800750e:	f852 f023 	ldr.w	pc, [r2, r3, lsl #2]
 8007512:	bf00      	nop
 8007514:	08007597 	.word	0x08007597
 8007518:	080075f3 	.word	0x080075f3
 800751c:	0800759f 	.word	0x0800759f
 8007520:	080075f3 	.word	0x080075f3
 8007524:	080075f3 	.word	0x080075f3
 8007528:	080075f3 	.word	0x080075f3
 800752c:	080075af 	.word	0x080075af
 8007530:	080075f3 	.word	0x080075f3
 8007534:	080075f3 	.word	0x080075f3
 8007538:	080075f3 	.word	0x080075f3
 800753c:	080075f3 	.word	0x080075f3
 8007540:	080075f3 	.word	0x080075f3
 8007544:	080075f3 	.word	0x080075f3
 8007548:	080075f3 	.word	0x080075f3
 800754c:	080075bf 	.word	0x080075bf
 8007550:	080075f3 	.word	0x080075f3
 8007554:	080075f3 	.word	0x080075f3
 8007558:	080075f3 	.word	0x080075f3
 800755c:	080075f3 	.word	0x080075f3
 8007560:	080075f3 	.word	0x080075f3
 8007564:	080075f3 	.word	0x080075f3
 8007568:	080075f3 	.word	0x080075f3
 800756c:	080075f3 	.word	0x080075f3
 8007570:	080075f3 	.word	0x080075f3
 8007574:	080075f3 	.word	0x080075f3
 8007578:	080075f3 	.word	0x080075f3
 800757c:	080075f3 	.word	0x080075f3
 8007580:	080075f3 	.word	0x080075f3
 8007584:	080075f3 	.word	0x080075f3
 8007588:	080075f3 	.word	0x080075f3
 800758c:	080075e5 	.word	0x080075e5
 8007590:	2b40      	cmp	r3, #64	; 0x40
 8007592:	d02a      	beq.n	80075ea <UART_SetConfig+0x8aa>
 8007594:	e02d      	b.n	80075f2 <UART_SetConfig+0x8b2>
    {
      case UART_CLOCKSOURCE_D3PCLK1:
        pclk = HAL_RCCEx_GetD3PCLK1Freq();
 8007596:	f7fe fd0b 	bl	8005fb0 <HAL_RCCEx_GetD3PCLK1Freq>
 800759a:	63f8      	str	r0, [r7, #60]	; 0x3c
        break;
 800759c:	e02f      	b.n	80075fe <UART_SetConfig+0x8be>
      case UART_CLOCKSOURCE_PLL2:
        HAL_RCCEx_GetPLL2ClockFreq(&pll2_clocks);
 800759e:	f107 0324 	add.w	r3, r7, #36	; 0x24
 80075a2:	4618      	mov	r0, r3
 80075a4:	f7fe fd1a 	bl	8005fdc <HAL_RCCEx_GetPLL2ClockFreq>
        pclk = pll2_clocks.PLL2_Q_Frequency;
 80075a8:	6abb      	ldr	r3, [r7, #40]	; 0x28
 80075aa:	63fb      	str	r3, [r7, #60]	; 0x3c
        break;
 80075ac:	e027      	b.n	80075fe <UART_SetConfig+0x8be>
      case UART_CLOCKSOURCE_PLL3:
        HAL_RCCEx_GetPLL3ClockFreq(&pll3_clocks);
 80075ae:	f107 0318 	add.w	r3, r7, #24
 80075b2:	4618      	mov	r0, r3
 80075b4:	f7fe fe66 	bl	8006284 <HAL_RCCEx_GetPLL3ClockFreq>
        pclk = pll3_clocks.PLL3_Q_Frequency;
 80075b8:	69fb      	ldr	r3, [r7, #28]
 80075ba:	63fb      	str	r3, [r7, #60]	; 0x3c
        break;
 80075bc:	e01f      	b.n	80075fe <UART_SetConfig+0x8be>
      case UART_CLOCKSOURCE_HSI:
        if (__HAL_RCC_GET_FLAG(RCC_FLAG_HSIDIV) != 0U)
 80075be:	4b21      	ldr	r3, [pc, #132]	; (8007644 <UART_SetConfig+0x904>)
 80075c0:	681b      	ldr	r3, [r3, #0]
 80075c2:	f003 0320 	and.w	r3, r3, #32
 80075c6:	2b00      	cmp	r3, #0
 80075c8:	d009      	beq.n	80075de <UART_SetConfig+0x89e>
        {
          pclk = (uint32_t)(HSI_VALUE >> (__HAL_RCC_GET_HSI_DIVIDER() >> 3U));
 80075ca:	4b1e      	ldr	r3, [pc, #120]	; (8007644 <UART_SetConfig+0x904>)
 80075cc:	681b      	ldr	r3, [r3, #0]
 80075ce:	08db      	lsrs	r3, r3, #3
 80075d0:	f003 0303 	and.w	r3, r3, #3
 80075d4:	4a1d      	ldr	r2, [pc, #116]	; (800764c <UART_SetConfig+0x90c>)
 80075d6:	fa22 f303 	lsr.w	r3, r2, r3
 80075da:	63fb      	str	r3, [r7, #60]	; 0x3c
        }
        else
        {
          pclk = (uint32_t) HSI_VALUE;
        }
        break;
 80075dc:	e00f      	b.n	80075fe <UART_SetConfig+0x8be>
          pclk = (uint32_t) HSI_VALUE;
 80075de:	4b1b      	ldr	r3, [pc, #108]	; (800764c <UART_SetConfig+0x90c>)
 80075e0:	63fb      	str	r3, [r7, #60]	; 0x3c
        break;
 80075e2:	e00c      	b.n	80075fe <UART_SetConfig+0x8be>
      case UART_CLOCKSOURCE_CSI:
        pclk = (uint32_t) CSI_VALUE;
 80075e4:	4b1a      	ldr	r3, [pc, #104]	; (8007650 <UART_SetConfig+0x910>)
 80075e6:	63fb      	str	r3, [r7, #60]	; 0x3c
        break;
 80075e8:	e009      	b.n	80075fe <UART_SetConfig+0x8be>
      case UART_CLOCKSOURCE_LSE:
        pclk = (uint32_t) LSE_VALUE;
 80075ea:	f44f 4300 	mov.w	r3, #32768	; 0x8000
 80075ee:	63fb      	str	r3, [r7, #60]	; 0x3c
        break;
 80075f0:	e005      	b.n	80075fe <UART_SetConfig+0x8be>
      default:
        pclk = 0U;
 80075f2:	2300      	movs	r3, #0
 80075f4:	63fb      	str	r3, [r7, #60]	; 0x3c
        ret = HAL_ERROR;
 80075f6:	2301      	movs	r3, #1
 80075f8:	f887 3042 	strb.w	r3, [r7, #66]	; 0x42
        break;
 80075fc:	bf00      	nop
    }

    /* If proper clock source reported */
    if (pclk != 0U)
 80075fe:	6bfb      	ldr	r3, [r7, #60]	; 0x3c
 8007600:	2b00      	cmp	r3, #0
 8007602:	f000 81ee 	beq.w	80079e2 <UART_SetConfig+0xca2>
    {
      /* Compute clock after Prescaler */
      lpuart_ker_ck_pres = (pclk / UARTPrescTable[huart->Init.ClockPrescaler]);
 8007606:	697b      	ldr	r3, [r7, #20]
 8007608:	6a5b      	ldr	r3, [r3, #36]	; 0x24
 800760a:	4a12      	ldr	r2, [pc, #72]	; (8007654 <UART_SetConfig+0x914>)
 800760c:	f832 3013 	ldrh.w	r3, [r2, r3, lsl #1]
 8007610:	461a      	mov	r2, r3
 8007612:	6bfb      	ldr	r3, [r7, #60]	; 0x3c
 8007614:	fbb3 f3f2 	udiv	r3, r3, r2
 8007618:	633b      	str	r3, [r7, #48]	; 0x30

      /* Ensure that Frequency clock is in the range [3 * baudrate, 4096 * baudrate] */
      if ((lpuart_ker_ck_pres < (3U * huart->Init.BaudRate)) ||
 800761a:	697b      	ldr	r3, [r7, #20]
 800761c:	685a      	ldr	r2, [r3, #4]
 800761e:	4613      	mov	r3, r2
 8007620:	005b      	lsls	r3, r3, #1
 8007622:	4413      	add	r3, r2
 8007624:	6b3a      	ldr	r2, [r7, #48]	; 0x30
 8007626:	429a      	cmp	r2, r3
 8007628:	d305      	bcc.n	8007636 <UART_SetConfig+0x8f6>
          (lpuart_ker_ck_pres > (4096U * huart->Init.BaudRate)))
 800762a:	697b      	ldr	r3, [r7, #20]
 800762c:	685b      	ldr	r3, [r3, #4]
 800762e:	031b      	lsls	r3, r3, #12
      if ((lpuart_ker_ck_pres < (3U * huart->Init.BaudRate)) ||
 8007630:	6b3a      	ldr	r2, [r7, #48]	; 0x30
 8007632:	429a      	cmp	r2, r3
 8007634:	d910      	bls.n	8007658 <UART_SetConfig+0x918>
      {
        ret = HAL_ERROR;
 8007636:	2301      	movs	r3, #1
 8007638:	f887 3042 	strb.w	r3, [r7, #66]	; 0x42
 800763c:	e1d1      	b.n	80079e2 <UART_SetConfig+0xca2>
 800763e:	bf00      	nop
 8007640:	40011c00 	.word	0x40011c00
 8007644:	58024400 	.word	0x58024400
 8007648:	58000c00 	.word	0x58000c00
 800764c:	03d09000 	.word	0x03d09000
 8007650:	003d0900 	.word	0x003d0900
 8007654:	0801989c 	.word	0x0801989c
      }
      else
      {
        /* Check computed UsartDiv value is in allocated range
           (it is forbidden to write values lower than 0x300 in the LPUART_BRR register) */
        usartdiv = (uint32_t)(UART_DIV_LPUART(pclk, huart->Init.BaudRate, huart->Init.ClockPrescaler));
 8007658:	6bfb      	ldr	r3, [r7, #60]	; 0x3c
 800765a:	2200      	movs	r2, #0
 800765c:	60bb      	str	r3, [r7, #8]
 800765e:	60fa      	str	r2, [r7, #12]
 8007660:	697b      	ldr	r3, [r7, #20]
 8007662:	6a5b      	ldr	r3, [r3, #36]	; 0x24
 8007664:	4ac0      	ldr	r2, [pc, #768]	; (8007968 <UART_SetConfig+0xc28>)
 8007666:	f832 3013 	ldrh.w	r3, [r2, r3, lsl #1]
 800766a:	b29b      	uxth	r3, r3
 800766c:	2200      	movs	r2, #0
 800766e:	603b      	str	r3, [r7, #0]
 8007670:	607a      	str	r2, [r7, #4]
 8007672:	e9d7 2300 	ldrd	r2, r3, [r7]
 8007676:	e9d7 0102 	ldrd	r0, r1, [r7, #8]
 800767a:	f7f8 fe37 	bl	80002ec <__aeabi_uldivmod>
 800767e:	4602      	mov	r2, r0
 8007680:	460b      	mov	r3, r1
 8007682:	4610      	mov	r0, r2
 8007684:	4619      	mov	r1, r3
 8007686:	f04f 0200 	mov.w	r2, #0
 800768a:	f04f 0300 	mov.w	r3, #0
 800768e:	020b      	lsls	r3, r1, #8
 8007690:	ea43 6310 	orr.w	r3, r3, r0, lsr #24
 8007694:	0202      	lsls	r2, r0, #8
 8007696:	6979      	ldr	r1, [r7, #20]
 8007698:	6849      	ldr	r1, [r1, #4]
 800769a:	0849      	lsrs	r1, r1, #1
 800769c:	2000      	movs	r0, #0
 800769e:	460c      	mov	r4, r1
 80076a0:	4605      	mov	r5, r0
 80076a2:	eb12 0804 	adds.w	r8, r2, r4
 80076a6:	eb43 0905 	adc.w	r9, r3, r5
 80076aa:	697b      	ldr	r3, [r7, #20]
 80076ac:	685b      	ldr	r3, [r3, #4]
 80076ae:	2200      	movs	r2, #0
 80076b0:	469a      	mov	sl, r3
 80076b2:	4693      	mov	fp, r2
 80076b4:	4652      	mov	r2, sl
 80076b6:	465b      	mov	r3, fp
 80076b8:	4640      	mov	r0, r8
 80076ba:	4649      	mov	r1, r9
 80076bc:	f7f8 fe16 	bl	80002ec <__aeabi_uldivmod>
 80076c0:	4602      	mov	r2, r0
 80076c2:	460b      	mov	r3, r1
 80076c4:	4613      	mov	r3, r2
 80076c6:	63bb      	str	r3, [r7, #56]	; 0x38
        if ((usartdiv >= LPUART_BRR_MIN) && (usartdiv <= LPUART_BRR_MAX))
 80076c8:	6bbb      	ldr	r3, [r7, #56]	; 0x38
 80076ca:	f5b3 7f40 	cmp.w	r3, #768	; 0x300
 80076ce:	d308      	bcc.n	80076e2 <UART_SetConfig+0x9a2>
 80076d0:	6bbb      	ldr	r3, [r7, #56]	; 0x38
 80076d2:	f5b3 1f80 	cmp.w	r3, #1048576	; 0x100000
 80076d6:	d204      	bcs.n	80076e2 <UART_SetConfig+0x9a2>
        {
          huart->Instance->BRR = usartdiv;
 80076d8:	697b      	ldr	r3, [r7, #20]
 80076da:	681b      	ldr	r3, [r3, #0]
 80076dc:	6bba      	ldr	r2, [r7, #56]	; 0x38
 80076de:	60da      	str	r2, [r3, #12]
 80076e0:	e17f      	b.n	80079e2 <UART_SetConfig+0xca2>
        }
        else
        {
          ret = HAL_ERROR;
 80076e2:	2301      	movs	r3, #1
 80076e4:	f887 3042 	strb.w	r3, [r7, #66]	; 0x42
 80076e8:	e17b      	b.n	80079e2 <UART_SetConfig+0xca2>
      } /* if ( (lpuart_ker_ck_pres < (3 * huart->Init.BaudRate) ) ||
                (lpuart_ker_ck_pres > (4096 * huart->Init.BaudRate) )) */
    } /* if (pclk != 0) */
  }
  /* Check UART Over Sampling to set Baud Rate Register */
  else if (huart->Init.OverSampling == UART_OVERSAMPLING_8)
 80076ea:	697b      	ldr	r3, [r7, #20]
 80076ec:	69db      	ldr	r3, [r3, #28]
 80076ee:	f5b3 4f00 	cmp.w	r3, #32768	; 0x8000
 80076f2:	f040 80bd 	bne.w	8007870 <UART_SetConfig+0xb30>
  {
    switch (clocksource)
 80076f6:	f897 3043 	ldrb.w	r3, [r7, #67]	; 0x43
 80076fa:	2b20      	cmp	r3, #32
 80076fc:	dc48      	bgt.n	8007790 <UART_SetConfig+0xa50>
 80076fe:	2b00      	cmp	r3, #0
 8007700:	db7b      	blt.n	80077fa <UART_SetConfig+0xaba>
 8007702:	2b20      	cmp	r3, #32
 8007704:	d879      	bhi.n	80077fa <UART_SetConfig+0xaba>
 8007706:	a201      	add	r2, pc, #4	; (adr r2, 800770c <UART_SetConfig+0x9cc>)
 8007708:	f852 f023 	ldr.w	pc, [r2, r3, lsl #2]
 800770c:	08007797 	.word	0x08007797
 8007710:	0800779f 	.word	0x0800779f
 8007714:	080077fb 	.word	0x080077fb
 8007718:	080077fb 	.word	0x080077fb
 800771c:	080077a7 	.word	0x080077a7
 8007720:	080077fb 	.word	0x080077fb
 8007724:	080077fb 	.word	0x080077fb
 8007728:	080077fb 	.word	0x080077fb
 800772c:	080077b7 	.word	0x080077b7
 8007730:	080077fb 	.word	0x080077fb
 8007734:	080077fb 	.word	0x080077fb
 8007738:	080077fb 	.word	0x080077fb
 800773c:	080077fb 	.word	0x080077fb
 8007740:	080077fb 	.word	0x080077fb
 8007744:	080077fb 	.word	0x080077fb
 8007748:	080077fb 	.word	0x080077fb
 800774c:	080077c7 	.word	0x080077c7
 8007750:	080077fb 	.word	0x080077fb
 8007754:	080077fb 	.word	0x080077fb
 8007758:	080077fb 	.word	0x080077fb
 800775c:	080077fb 	.word	0x080077fb
 8007760:	080077fb 	.word	0x080077fb
 8007764:	080077fb 	.word	0x080077fb
 8007768:	080077fb 	.word	0x080077fb
 800776c:	080077fb 	.word	0x080077fb
 8007770:	080077fb 	.word	0x080077fb
 8007774:	080077fb 	.word	0x080077fb
 8007778:	080077fb 	.word	0x080077fb
 800777c:	080077fb 	.word	0x080077fb
 8007780:	080077fb 	.word	0x080077fb
 8007784:	080077fb 	.word	0x080077fb
 8007788:	080077fb 	.word	0x080077fb
 800778c:	080077ed 	.word	0x080077ed
 8007790:	2b40      	cmp	r3, #64	; 0x40
 8007792:	d02e      	beq.n	80077f2 <UART_SetConfig+0xab2>
 8007794:	e031      	b.n	80077fa <UART_SetConfig+0xaba>
    {
      case UART_CLOCKSOURCE_D2PCLK1:
        pclk = HAL_RCC_GetPCLK1Freq();
 8007796:	f7fd fcd3 	bl	8005140 <HAL_RCC_GetPCLK1Freq>
 800779a:	63f8      	str	r0, [r7, #60]	; 0x3c
        break;
 800779c:	e033      	b.n	8007806 <UART_SetConfig+0xac6>
      case UART_CLOCKSOURCE_D2PCLK2:
        pclk = HAL_RCC_GetPCLK2Freq();
 800779e:	f7fd fce5 	bl	800516c <HAL_RCC_GetPCLK2Freq>
 80077a2:	63f8      	str	r0, [r7, #60]	; 0x3c
        break;
 80077a4:	e02f      	b.n	8007806 <UART_SetConfig+0xac6>
      case UART_CLOCKSOURCE_PLL2:
        HAL_RCCEx_GetPLL2ClockFreq(&pll2_clocks);
 80077a6:	f107 0324 	add.w	r3, r7, #36	; 0x24
 80077aa:	4618      	mov	r0, r3
 80077ac:	f7fe fc16 	bl	8005fdc <HAL_RCCEx_GetPLL2ClockFreq>
        pclk = pll2_clocks.PLL2_Q_Frequency;
 80077b0:	6abb      	ldr	r3, [r7, #40]	; 0x28
 80077b2:	63fb      	str	r3, [r7, #60]	; 0x3c
        break;
 80077b4:	e027      	b.n	8007806 <UART_SetConfig+0xac6>
      case UART_CLOCKSOURCE_PLL3:
        HAL_RCCEx_GetPLL3ClockFreq(&pll3_clocks);
 80077b6:	f107 0318 	add.w	r3, r7, #24
 80077ba:	4618      	mov	r0, r3
 80077bc:	f7fe fd62 	bl	8006284 <HAL_RCCEx_GetPLL3ClockFreq>
        pclk = pll3_clocks.PLL3_Q_Frequency;
 80077c0:	69fb      	ldr	r3, [r7, #28]
 80077c2:	63fb      	str	r3, [r7, #60]	; 0x3c
        break;
 80077c4:	e01f      	b.n	8007806 <UART_SetConfig+0xac6>
      case UART_CLOCKSOURCE_HSI:
        if (__HAL_RCC_GET_FLAG(RCC_FLAG_HSIDIV) != 0U)
 80077c6:	4b69      	ldr	r3, [pc, #420]	; (800796c <UART_SetConfig+0xc2c>)
 80077c8:	681b      	ldr	r3, [r3, #0]
 80077ca:	f003 0320 	and.w	r3, r3, #32
 80077ce:	2b00      	cmp	r3, #0
 80077d0:	d009      	beq.n	80077e6 <UART_SetConfig+0xaa6>
        {
          pclk = (uint32_t)(HSI_VALUE >> (__HAL_RCC_GET_HSI_DIVIDER() >> 3U));
 80077d2:	4b66      	ldr	r3, [pc, #408]	; (800796c <UART_SetConfig+0xc2c>)
 80077d4:	681b      	ldr	r3, [r3, #0]
 80077d6:	08db      	lsrs	r3, r3, #3
 80077d8:	f003 0303 	and.w	r3, r3, #3
 80077dc:	4a64      	ldr	r2, [pc, #400]	; (8007970 <UART_SetConfig+0xc30>)
 80077de:	fa22 f303 	lsr.w	r3, r2, r3
 80077e2:	63fb      	str	r3, [r7, #60]	; 0x3c
        }
        else
        {
          pclk = (uint32_t) HSI_VALUE;
        }
        break;
 80077e4:	e00f      	b.n	8007806 <UART_SetConfig+0xac6>
          pclk = (uint32_t) HSI_VALUE;
 80077e6:	4b62      	ldr	r3, [pc, #392]	; (8007970 <UART_SetConfig+0xc30>)
 80077e8:	63fb      	str	r3, [r7, #60]	; 0x3c
        break;
 80077ea:	e00c      	b.n	8007806 <UART_SetConfig+0xac6>
      case UART_CLOCKSOURCE_CSI:
        pclk = (uint32_t) CSI_VALUE;
 80077ec:	4b61      	ldr	r3, [pc, #388]	; (8007974 <UART_SetConfig+0xc34>)
 80077ee:	63fb      	str	r3, [r7, #60]	; 0x3c
        break;
 80077f0:	e009      	b.n	8007806 <UART_SetConfig+0xac6>
      case UART_CLOCKSOURCE_LSE:
        pclk = (uint32_t) LSE_VALUE;
 80077f2:	f44f 4300 	mov.w	r3, #32768	; 0x8000
 80077f6:	63fb      	str	r3, [r7, #60]	; 0x3c
        break;
 80077f8:	e005      	b.n	8007806 <UART_SetConfig+0xac6>
      default:
        pclk = 0U;
 80077fa:	2300      	movs	r3, #0
 80077fc:	63fb      	str	r3, [r7, #60]	; 0x3c
        ret = HAL_ERROR;
 80077fe:	2301      	movs	r3, #1
 8007800:	f887 3042 	strb.w	r3, [r7, #66]	; 0x42
        break;
 8007804:	bf00      	nop
    }

    /* USARTDIV must be greater than or equal to 0d16 */
    if (pclk != 0U)
 8007806:	6bfb      	ldr	r3, [r7, #60]	; 0x3c
 8007808:	2b00      	cmp	r3, #0
 800780a:	f000 80ea 	beq.w	80079e2 <UART_SetConfig+0xca2>
    {
      usartdiv = (uint32_t)(UART_DIV_SAMPLING8(pclk, huart->Init.BaudRate, huart->Init.ClockPrescaler));
 800780e:	697b      	ldr	r3, [r7, #20]
 8007810:	6a5b      	ldr	r3, [r3, #36]	; 0x24
 8007812:	4a55      	ldr	r2, [pc, #340]	; (8007968 <UART_SetConfig+0xc28>)
 8007814:	f832 3013 	ldrh.w	r3, [r2, r3, lsl #1]
 8007818:	461a      	mov	r2, r3
 800781a:	6bfb      	ldr	r3, [r7, #60]	; 0x3c
 800781c:	fbb3 f3f2 	udiv	r3, r3, r2
 8007820:	005a      	lsls	r2, r3, #1
 8007822:	697b      	ldr	r3, [r7, #20]
 8007824:	685b      	ldr	r3, [r3, #4]
 8007826:	085b      	lsrs	r3, r3, #1
 8007828:	441a      	add	r2, r3
 800782a:	697b      	ldr	r3, [r7, #20]
 800782c:	685b      	ldr	r3, [r3, #4]
 800782e:	fbb2 f3f3 	udiv	r3, r2, r3
 8007832:	63bb      	str	r3, [r7, #56]	; 0x38
      if ((usartdiv >= UART_BRR_MIN) && (usartdiv <= UART_BRR_MAX))
 8007834:	6bbb      	ldr	r3, [r7, #56]	; 0x38
 8007836:	2b0f      	cmp	r3, #15
 8007838:	d916      	bls.n	8007868 <UART_SetConfig+0xb28>
 800783a:	6bbb      	ldr	r3, [r7, #56]	; 0x38
 800783c:	f5b3 3f80 	cmp.w	r3, #65536	; 0x10000
 8007840:	d212      	bcs.n	8007868 <UART_SetConfig+0xb28>
      {
        brrtemp = (uint16_t)(usartdiv & 0xFFF0U);
 8007842:	6bbb      	ldr	r3, [r7, #56]	; 0x38
 8007844:	b29b      	uxth	r3, r3
 8007846:	f023 030f 	bic.w	r3, r3, #15
 800784a:	86fb      	strh	r3, [r7, #54]	; 0x36
        brrtemp |= (uint16_t)((usartdiv & (uint16_t)0x000FU) >> 1U);
 800784c:	6bbb      	ldr	r3, [r7, #56]	; 0x38
 800784e:	085b      	lsrs	r3, r3, #1
 8007850:	b29b      	uxth	r3, r3
 8007852:	f003 0307 	and.w	r3, r3, #7
 8007856:	b29a      	uxth	r2, r3
 8007858:	8efb      	ldrh	r3, [r7, #54]	; 0x36
 800785a:	4313      	orrs	r3, r2
 800785c:	86fb      	strh	r3, [r7, #54]	; 0x36
        huart->Instance->BRR = brrtemp;
 800785e:	697b      	ldr	r3, [r7, #20]
 8007860:	681b      	ldr	r3, [r3, #0]
 8007862:	8efa      	ldrh	r2, [r7, #54]	; 0x36
 8007864:	60da      	str	r2, [r3, #12]
 8007866:	e0bc      	b.n	80079e2 <UART_SetConfig+0xca2>
      }
      else
      {
        ret = HAL_ERROR;
 8007868:	2301      	movs	r3, #1
 800786a:	f887 3042 	strb.w	r3, [r7, #66]	; 0x42
 800786e:	e0b8      	b.n	80079e2 <UART_SetConfig+0xca2>
      }
    }
  }
  else
  {
    switch (clocksource)
 8007870:	f897 3043 	ldrb.w	r3, [r7, #67]	; 0x43
 8007874:	2b20      	cmp	r3, #32
 8007876:	dc4b      	bgt.n	8007910 <UART_SetConfig+0xbd0>
 8007878:	2b00      	cmp	r3, #0
 800787a:	f2c0 8087 	blt.w	800798c <UART_SetConfig+0xc4c>
 800787e:	2b20      	cmp	r3, #32
 8007880:	f200 8084 	bhi.w	800798c <UART_SetConfig+0xc4c>
 8007884:	a201      	add	r2, pc, #4	; (adr r2, 800788c <UART_SetConfig+0xb4c>)
 8007886:	f852 f023 	ldr.w	pc, [r2, r3, lsl #2]
 800788a:	bf00      	nop
 800788c:	08007917 	.word	0x08007917
 8007890:	0800791f 	.word	0x0800791f
 8007894:	0800798d 	.word	0x0800798d
 8007898:	0800798d 	.word	0x0800798d
 800789c:	08007927 	.word	0x08007927
 80078a0:	0800798d 	.word	0x0800798d
 80078a4:	0800798d 	.word	0x0800798d
 80078a8:	0800798d 	.word	0x0800798d
 80078ac:	08007937 	.word	0x08007937
 80078b0:	0800798d 	.word	0x0800798d
 80078b4:	0800798d 	.word	0x0800798d
 80078b8:	0800798d 	.word	0x0800798d
 80078bc:	0800798d 	.word	0x0800798d
 80078c0:	0800798d 	.word	0x0800798d
 80078c4:	0800798d 	.word	0x0800798d
 80078c8:	0800798d 	.word	0x0800798d
 80078cc:	08007947 	.word	0x08007947
 80078d0:	0800798d 	.word	0x0800798d
 80078d4:	0800798d 	.word	0x0800798d
 80078d8:	0800798d 	.word	0x0800798d
 80078dc:	0800798d 	.word	0x0800798d
 80078e0:	0800798d 	.word	0x0800798d
 80078e4:	0800798d 	.word	0x0800798d
 80078e8:	0800798d 	.word	0x0800798d
 80078ec:	0800798d 	.word	0x0800798d
 80078f0:	0800798d 	.word	0x0800798d
 80078f4:	0800798d 	.word	0x0800798d
 80078f8:	0800798d 	.word	0x0800798d
 80078fc:	0800798d 	.word	0x0800798d
 8007900:	0800798d 	.word	0x0800798d
 8007904:	0800798d 	.word	0x0800798d
 8007908:	0800798d 	.word	0x0800798d
 800790c:	0800797f 	.word	0x0800797f
 8007910:	2b40      	cmp	r3, #64	; 0x40
 8007912:	d037      	beq.n	8007984 <UART_SetConfig+0xc44>
 8007914:	e03a      	b.n	800798c <UART_SetConfig+0xc4c>
    {
      case UART_CLOCKSOURCE_D2PCLK1:
        pclk = HAL_RCC_GetPCLK1Freq();
 8007916:	f7fd fc13 	bl	8005140 <HAL_RCC_GetPCLK1Freq>
 800791a:	63f8      	str	r0, [r7, #60]	; 0x3c
        break;
 800791c:	e03c      	b.n	8007998 <UART_SetConfig+0xc58>
      case UART_CLOCKSOURCE_D2PCLK2:
        pclk = HAL_RCC_GetPCLK2Freq();
 800791e:	f7fd fc25 	bl	800516c <HAL_RCC_GetPCLK2Freq>
 8007922:	63f8      	str	r0, [r7, #60]	; 0x3c
        break;
 8007924:	e038      	b.n	8007998 <UART_SetConfig+0xc58>
      case UART_CLOCKSOURCE_PLL2:
        HAL_RCCEx_GetPLL2ClockFreq(&pll2_clocks);
 8007926:	f107 0324 	add.w	r3, r7, #36	; 0x24
 800792a:	4618      	mov	r0, r3
 800792c:	f7fe fb56 	bl	8005fdc <HAL_RCCEx_GetPLL2ClockFreq>
        pclk = pll2_clocks.PLL2_Q_Frequency;
 8007930:	6abb      	ldr	r3, [r7, #40]	; 0x28
 8007932:	63fb      	str	r3, [r7, #60]	; 0x3c
        break;
 8007934:	e030      	b.n	8007998 <UART_SetConfig+0xc58>
      case UART_CLOCKSOURCE_PLL3:
        HAL_RCCEx_GetPLL3ClockFreq(&pll3_clocks);
 8007936:	f107 0318 	add.w	r3, r7, #24
 800793a:	4618      	mov	r0, r3
 800793c:	f7fe fca2 	bl	8006284 <HAL_RCCEx_GetPLL3ClockFreq>
        pclk = pll3_clocks.PLL3_Q_Frequency;
 8007940:	69fb      	ldr	r3, [r7, #28]
 8007942:	63fb      	str	r3, [r7, #60]	; 0x3c
        break;
 8007944:	e028      	b.n	8007998 <UART_SetConfig+0xc58>
      case UART_CLOCKSOURCE_HSI:
        if (__HAL_RCC_GET_FLAG(RCC_FLAG_HSIDIV) != 0U)
 8007946:	4b09      	ldr	r3, [pc, #36]	; (800796c <UART_SetConfig+0xc2c>)
 8007948:	681b      	ldr	r3, [r3, #0]
 800794a:	f003 0320 	and.w	r3, r3, #32
 800794e:	2b00      	cmp	r3, #0
 8007950:	d012      	beq.n	8007978 <UART_SetConfig+0xc38>
        {
          pclk = (uint32_t)(HSI_VALUE >> (__HAL_RCC_GET_HSI_DIVIDER() >> 3U));
 8007952:	4b06      	ldr	r3, [pc, #24]	; (800796c <UART_SetConfig+0xc2c>)
 8007954:	681b      	ldr	r3, [r3, #0]
 8007956:	08db      	lsrs	r3, r3, #3
 8007958:	f003 0303 	and.w	r3, r3, #3
 800795c:	4a04      	ldr	r2, [pc, #16]	; (8007970 <UART_SetConfig+0xc30>)
 800795e:	fa22 f303 	lsr.w	r3, r2, r3
 8007962:	63fb      	str	r3, [r7, #60]	; 0x3c
        }
        else
        {
          pclk = (uint32_t) HSI_VALUE;
        }
        break;
 8007964:	e018      	b.n	8007998 <UART_SetConfig+0xc58>
 8007966:	bf00      	nop
 8007968:	0801989c 	.word	0x0801989c
 800796c:	58024400 	.word	0x58024400
 8007970:	03d09000 	.word	0x03d09000
 8007974:	003d0900 	.word	0x003d0900
          pclk = (uint32_t) HSI_VALUE;
 8007978:	4b24      	ldr	r3, [pc, #144]	; (8007a0c <UART_SetConfig+0xccc>)
 800797a:	63fb      	str	r3, [r7, #60]	; 0x3c
        break;
 800797c:	e00c      	b.n	8007998 <UART_SetConfig+0xc58>
      case UART_CLOCKSOURCE_CSI:
        pclk = (uint32_t) CSI_VALUE;
 800797e:	4b24      	ldr	r3, [pc, #144]	; (8007a10 <UART_SetConfig+0xcd0>)
 8007980:	63fb      	str	r3, [r7, #60]	; 0x3c
        break;
 8007982:	e009      	b.n	8007998 <UART_SetConfig+0xc58>
      case UART_CLOCKSOURCE_LSE:
        pclk = (uint32_t) LSE_VALUE;
 8007984:	f44f 4300 	mov.w	r3, #32768	; 0x8000
 8007988:	63fb      	str	r3, [r7, #60]	; 0x3c
        break;
 800798a:	e005      	b.n	8007998 <UART_SetConfig+0xc58>
      default:
        pclk = 0U;
 800798c:	2300      	movs	r3, #0
 800798e:	63fb      	str	r3, [r7, #60]	; 0x3c
        ret = HAL_ERROR;
 8007990:	2301      	movs	r3, #1
 8007992:	f887 3042 	strb.w	r3, [r7, #66]	; 0x42
        break;
 8007996:	bf00      	nop
    }

    if (pclk != 0U)
 8007998:	6bfb      	ldr	r3, [r7, #60]	; 0x3c
 800799a:	2b00      	cmp	r3, #0
 800799c:	d021      	beq.n	80079e2 <UART_SetConfig+0xca2>
    {
      /* USARTDIV must be greater than or equal to 0d16 */
      usartdiv = (uint32_t)(UART_DIV_SAMPLING16(pclk, huart->Init.BaudRate, huart->Init.ClockPrescaler));
 800799e:	697b      	ldr	r3, [r7, #20]
 80079a0:	6a5b      	ldr	r3, [r3, #36]	; 0x24
 80079a2:	4a1c      	ldr	r2, [pc, #112]	; (8007a14 <UART_SetConfig+0xcd4>)
 80079a4:	f832 3013 	ldrh.w	r3, [r2, r3, lsl #1]
 80079a8:	461a      	mov	r2, r3
 80079aa:	6bfb      	ldr	r3, [r7, #60]	; 0x3c
 80079ac:	fbb3 f2f2 	udiv	r2, r3, r2
 80079b0:	697b      	ldr	r3, [r7, #20]
 80079b2:	685b      	ldr	r3, [r3, #4]
 80079b4:	085b      	lsrs	r3, r3, #1
 80079b6:	441a      	add	r2, r3
 80079b8:	697b      	ldr	r3, [r7, #20]
 80079ba:	685b      	ldr	r3, [r3, #4]
 80079bc:	fbb2 f3f3 	udiv	r3, r2, r3
 80079c0:	63bb      	str	r3, [r7, #56]	; 0x38
      if ((usartdiv >= UART_BRR_MIN) && (usartdiv <= UART_BRR_MAX))
 80079c2:	6bbb      	ldr	r3, [r7, #56]	; 0x38
 80079c4:	2b0f      	cmp	r3, #15
 80079c6:	d909      	bls.n	80079dc <UART_SetConfig+0xc9c>
 80079c8:	6bbb      	ldr	r3, [r7, #56]	; 0x38
 80079ca:	f5b3 3f80 	cmp.w	r3, #65536	; 0x10000
 80079ce:	d205      	bcs.n	80079dc <UART_SetConfig+0xc9c>
      {
        huart->Instance->BRR = (uint16_t)usartdiv;
 80079d0:	6bbb      	ldr	r3, [r7, #56]	; 0x38
 80079d2:	b29a      	uxth	r2, r3
 80079d4:	697b      	ldr	r3, [r7, #20]
 80079d6:	681b      	ldr	r3, [r3, #0]
 80079d8:	60da      	str	r2, [r3, #12]
 80079da:	e002      	b.n	80079e2 <UART_SetConfig+0xca2>
      }
      else
      {
        ret = HAL_ERROR;
 80079dc:	2301      	movs	r3, #1
 80079de:	f887 3042 	strb.w	r3, [r7, #66]	; 0x42
      }
    }
  }

  /* Initialize the number of data to process during RX/TX ISR execution */
  huart->NbTxDataToProcess = 1;
 80079e2:	697b      	ldr	r3, [r7, #20]
 80079e4:	2201      	movs	r2, #1
 80079e6:	f8a3 206a 	strh.w	r2, [r3, #106]	; 0x6a
  huart->NbRxDataToProcess = 1;
 80079ea:	697b      	ldr	r3, [r7, #20]
 80079ec:	2201      	movs	r2, #1
 80079ee:	f8a3 2068 	strh.w	r2, [r3, #104]	; 0x68

  /* Clear ISR function pointers */
  huart->RxISR = NULL;
 80079f2:	697b      	ldr	r3, [r7, #20]
 80079f4:	2200      	movs	r2, #0
 80079f6:	671a      	str	r2, [r3, #112]	; 0x70
  huart->TxISR = NULL;
 80079f8:	697b      	ldr	r3, [r7, #20]
 80079fa:	2200      	movs	r2, #0
 80079fc:	675a      	str	r2, [r3, #116]	; 0x74

  return ret;
 80079fe:	f897 3042 	ldrb.w	r3, [r7, #66]	; 0x42
}
 8007a02:	4618      	mov	r0, r3
 8007a04:	3748      	adds	r7, #72	; 0x48
 8007a06:	46bd      	mov	sp, r7
 8007a08:	e8bd 8fb0 	ldmia.w	sp!, {r4, r5, r7, r8, r9, sl, fp, pc}
 8007a0c:	03d09000 	.word	0x03d09000
 8007a10:	003d0900 	.word	0x003d0900
 8007a14:	0801989c 	.word	0x0801989c

08007a18 <UART_AdvFeatureConfig>:
  * @brief Configure the UART peripheral advanced features.
  * @param huart UART handle.
  * @retval None
  */
void UART_AdvFeatureConfig(UART_HandleTypeDef *huart)
{
 8007a18:	b480      	push	{r7}
 8007a1a:	b083      	sub	sp, #12
 8007a1c:	af00      	add	r7, sp, #0
 8007a1e:	6078      	str	r0, [r7, #4]
  /* Check whether the set of advanced features to configure is properly set */
  assert_param(IS_UART_ADVFEATURE_INIT(huart->AdvancedInit.AdvFeatureInit));

  /* if required, configure TX pin active level inversion */
  if (HAL_IS_BIT_SET(huart->AdvancedInit.AdvFeatureInit, UART_ADVFEATURE_TXINVERT_INIT))
 8007a20:	687b      	ldr	r3, [r7, #4]
 8007a22:	6a9b      	ldr	r3, [r3, #40]	; 0x28
 8007a24:	f003 0301 	and.w	r3, r3, #1
 8007a28:	2b00      	cmp	r3, #0
 8007a2a:	d00a      	beq.n	8007a42 <UART_AdvFeatureConfig+0x2a>
  {
    assert_param(IS_UART_ADVFEATURE_TXINV(huart->AdvancedInit.TxPinLevelInvert));
    MODIFY_REG(huart->Instance->CR2, USART_CR2_TXINV, huart->AdvancedInit.TxPinLevelInvert);
 8007a2c:	687b      	ldr	r3, [r7, #4]
 8007a2e:	681b      	ldr	r3, [r3, #0]
 8007a30:	685b      	ldr	r3, [r3, #4]
 8007a32:	f423 3100 	bic.w	r1, r3, #131072	; 0x20000
 8007a36:	687b      	ldr	r3, [r7, #4]
 8007a38:	6ada      	ldr	r2, [r3, #44]	; 0x2c
 8007a3a:	687b      	ldr	r3, [r7, #4]
 8007a3c:	681b      	ldr	r3, [r3, #0]
 8007a3e:	430a      	orrs	r2, r1
 8007a40:	605a      	str	r2, [r3, #4]
  }

  /* if required, configure RX pin active level inversion */
  if (HAL_IS_BIT_SET(huart->AdvancedInit.AdvFeatureInit, UART_ADVFEATURE_RXINVERT_INIT))
 8007a42:	687b      	ldr	r3, [r7, #4]
 8007a44:	6a9b      	ldr	r3, [r3, #40]	; 0x28
 8007a46:	f003 0302 	and.w	r3, r3, #2
 8007a4a:	2b00      	cmp	r3, #0
 8007a4c:	d00a      	beq.n	8007a64 <UART_AdvFeatureConfig+0x4c>
  {
    assert_param(IS_UART_ADVFEATURE_RXINV(huart->AdvancedInit.RxPinLevelInvert));
    MODIFY_REG(huart->Instance->CR2, USART_CR2_RXINV, huart->AdvancedInit.RxPinLevelInvert);
 8007a4e:	687b      	ldr	r3, [r7, #4]
 8007a50:	681b      	ldr	r3, [r3, #0]
 8007a52:	685b      	ldr	r3, [r3, #4]
 8007a54:	f423 3180 	bic.w	r1, r3, #65536	; 0x10000
 8007a58:	687b      	ldr	r3, [r7, #4]
 8007a5a:	6b1a      	ldr	r2, [r3, #48]	; 0x30
 8007a5c:	687b      	ldr	r3, [r7, #4]
 8007a5e:	681b      	ldr	r3, [r3, #0]
 8007a60:	430a      	orrs	r2, r1
 8007a62:	605a      	str	r2, [r3, #4]
  }

  /* if required, configure data inversion */
  if (HAL_IS_BIT_SET(huart->AdvancedInit.AdvFeatureInit, UART_ADVFEATURE_DATAINVERT_INIT))
 8007a64:	687b      	ldr	r3, [r7, #4]
 8007a66:	6a9b      	ldr	r3, [r3, #40]	; 0x28
 8007a68:	f003 0304 	and.w	r3, r3, #4
 8007a6c:	2b00      	cmp	r3, #0
 8007a6e:	d00a      	beq.n	8007a86 <UART_AdvFeatureConfig+0x6e>
  {
    assert_param(IS_UART_ADVFEATURE_DATAINV(huart->AdvancedInit.DataInvert));
    MODIFY_REG(huart->Instance->CR2, USART_CR2_DATAINV, huart->AdvancedInit.DataInvert);
 8007a70:	687b      	ldr	r3, [r7, #4]
 8007a72:	681b      	ldr	r3, [r3, #0]
 8007a74:	685b      	ldr	r3, [r3, #4]
 8007a76:	f423 2180 	bic.w	r1, r3, #262144	; 0x40000
 8007a7a:	687b      	ldr	r3, [r7, #4]
 8007a7c:	6b5a      	ldr	r2, [r3, #52]	; 0x34
 8007a7e:	687b      	ldr	r3, [r7, #4]
 8007a80:	681b      	ldr	r3, [r3, #0]
 8007a82:	430a      	orrs	r2, r1
 8007a84:	605a      	str	r2, [r3, #4]
  }

  /* if required, configure RX/TX pins swap */
  if (HAL_IS_BIT_SET(huart->AdvancedInit.AdvFeatureInit, UART_ADVFEATURE_SWAP_INIT))
 8007a86:	687b      	ldr	r3, [r7, #4]
 8007a88:	6a9b      	ldr	r3, [r3, #40]	; 0x28
 8007a8a:	f003 0308 	and.w	r3, r3, #8
 8007a8e:	2b00      	cmp	r3, #0
 8007a90:	d00a      	beq.n	8007aa8 <UART_AdvFeatureConfig+0x90>
  {
    assert_param(IS_UART_ADVFEATURE_SWAP(huart->AdvancedInit.Swap));
    MODIFY_REG(huart->Instance->CR2, USART_CR2_SWAP, huart->AdvancedInit.Swap);
 8007a92:	687b      	ldr	r3, [r7, #4]
 8007a94:	681b      	ldr	r3, [r3, #0]
 8007a96:	685b      	ldr	r3, [r3, #4]
 8007a98:	f423 4100 	bic.w	r1, r3, #32768	; 0x8000
 8007a9c:	687b      	ldr	r3, [r7, #4]
 8007a9e:	6b9a      	ldr	r2, [r3, #56]	; 0x38
 8007aa0:	687b      	ldr	r3, [r7, #4]
 8007aa2:	681b      	ldr	r3, [r3, #0]
 8007aa4:	430a      	orrs	r2, r1
 8007aa6:	605a      	str	r2, [r3, #4]
  }

  /* if required, configure RX overrun detection disabling */
  if (HAL_IS_BIT_SET(huart->AdvancedInit.AdvFeatureInit, UART_ADVFEATURE_RXOVERRUNDISABLE_INIT))
 8007aa8:	687b      	ldr	r3, [r7, #4]
 8007aaa:	6a9b      	ldr	r3, [r3, #40]	; 0x28
 8007aac:	f003 0310 	and.w	r3, r3, #16
 8007ab0:	2b00      	cmp	r3, #0
 8007ab2:	d00a      	beq.n	8007aca <UART_AdvFeatureConfig+0xb2>
  {
    assert_param(IS_UART_OVERRUN(huart->AdvancedInit.OverrunDisable));
    MODIFY_REG(huart->Instance->CR3, USART_CR3_OVRDIS, huart->AdvancedInit.OverrunDisable);
 8007ab4:	687b      	ldr	r3, [r7, #4]
 8007ab6:	681b      	ldr	r3, [r3, #0]
 8007ab8:	689b      	ldr	r3, [r3, #8]
 8007aba:	f423 5180 	bic.w	r1, r3, #4096	; 0x1000
 8007abe:	687b      	ldr	r3, [r7, #4]
 8007ac0:	6bda      	ldr	r2, [r3, #60]	; 0x3c
 8007ac2:	687b      	ldr	r3, [r7, #4]
 8007ac4:	681b      	ldr	r3, [r3, #0]
 8007ac6:	430a      	orrs	r2, r1
 8007ac8:	609a      	str	r2, [r3, #8]
  }

  /* if required, configure DMA disabling on reception error */
  if (HAL_IS_BIT_SET(huart->AdvancedInit.AdvFeatureInit, UART_ADVFEATURE_DMADISABLEONERROR_INIT))
 8007aca:	687b      	ldr	r3, [r7, #4]
 8007acc:	6a9b      	ldr	r3, [r3, #40]	; 0x28
 8007ace:	f003 0320 	and.w	r3, r3, #32
 8007ad2:	2b00      	cmp	r3, #0
 8007ad4:	d00a      	beq.n	8007aec <UART_AdvFeatureConfig+0xd4>
  {
    assert_param(IS_UART_ADVFEATURE_DMAONRXERROR(huart->AdvancedInit.DMADisableonRxError));
    MODIFY_REG(huart->Instance->CR3, USART_CR3_DDRE, huart->AdvancedInit.DMADisableonRxError);
 8007ad6:	687b      	ldr	r3, [r7, #4]
 8007ad8:	681b      	ldr	r3, [r3, #0]
 8007ada:	689b      	ldr	r3, [r3, #8]
 8007adc:	f423 5100 	bic.w	r1, r3, #8192	; 0x2000
 8007ae0:	687b      	ldr	r3, [r7, #4]
 8007ae2:	6c1a      	ldr	r2, [r3, #64]	; 0x40
 8007ae4:	687b      	ldr	r3, [r7, #4]
 8007ae6:	681b      	ldr	r3, [r3, #0]
 8007ae8:	430a      	orrs	r2, r1
 8007aea:	609a      	str	r2, [r3, #8]
  }

  /* if required, configure auto Baud rate detection scheme */
  if (HAL_IS_BIT_SET(huart->AdvancedInit.AdvFeatureInit, UART_ADVFEATURE_AUTOBAUDRATE_INIT))
 8007aec:	687b      	ldr	r3, [r7, #4]
 8007aee:	6a9b      	ldr	r3, [r3, #40]	; 0x28
 8007af0:	f003 0340 	and.w	r3, r3, #64	; 0x40
 8007af4:	2b00      	cmp	r3, #0
 8007af6:	d01a      	beq.n	8007b2e <UART_AdvFeatureConfig+0x116>
  {
    assert_param(IS_USART_AUTOBAUDRATE_DETECTION_INSTANCE(huart->Instance));
    assert_param(IS_UART_ADVFEATURE_AUTOBAUDRATE(huart->AdvancedInit.AutoBaudRateEnable));
    MODIFY_REG(huart->Instance->CR2, USART_CR2_ABREN, huart->AdvancedInit.AutoBaudRateEnable);
 8007af8:	687b      	ldr	r3, [r7, #4]
 8007afa:	681b      	ldr	r3, [r3, #0]
 8007afc:	685b      	ldr	r3, [r3, #4]
 8007afe:	f423 1180 	bic.w	r1, r3, #1048576	; 0x100000
 8007b02:	687b      	ldr	r3, [r7, #4]
 8007b04:	6c5a      	ldr	r2, [r3, #68]	; 0x44
 8007b06:	687b      	ldr	r3, [r7, #4]
 8007b08:	681b      	ldr	r3, [r3, #0]
 8007b0a:	430a      	orrs	r2, r1
 8007b0c:	605a      	str	r2, [r3, #4]
    /* set auto Baudrate detection parameters if detection is enabled */
    if (huart->AdvancedInit.AutoBaudRateEnable == UART_ADVFEATURE_AUTOBAUDRATE_ENABLE)
 8007b0e:	687b      	ldr	r3, [r7, #4]
 8007b10:	6c5b      	ldr	r3, [r3, #68]	; 0x44
 8007b12:	f5b3 1f80 	cmp.w	r3, #1048576	; 0x100000
 8007b16:	d10a      	bne.n	8007b2e <UART_AdvFeatureConfig+0x116>
    {
      assert_param(IS_UART_ADVFEATURE_AUTOBAUDRATEMODE(huart->AdvancedInit.AutoBaudRateMode));
      MODIFY_REG(huart->Instance->CR2, USART_CR2_ABRMODE, huart->AdvancedInit.AutoBaudRateMode);
 8007b18:	687b      	ldr	r3, [r7, #4]
 8007b1a:	681b      	ldr	r3, [r3, #0]
 8007b1c:	685b      	ldr	r3, [r3, #4]
 8007b1e:	f423 01c0 	bic.w	r1, r3, #6291456	; 0x600000
 8007b22:	687b      	ldr	r3, [r7, #4]
 8007b24:	6c9a      	ldr	r2, [r3, #72]	; 0x48
 8007b26:	687b      	ldr	r3, [r7, #4]
 8007b28:	681b      	ldr	r3, [r3, #0]
 8007b2a:	430a      	orrs	r2, r1
 8007b2c:	605a      	str	r2, [r3, #4]
    }
  }

  /* if required, configure MSB first on communication line */
  if (HAL_IS_BIT_SET(huart->AdvancedInit.AdvFeatureInit, UART_ADVFEATURE_MSBFIRST_INIT))
 8007b2e:	687b      	ldr	r3, [r7, #4]
 8007b30:	6a9b      	ldr	r3, [r3, #40]	; 0x28
 8007b32:	f003 0380 	and.w	r3, r3, #128	; 0x80
 8007b36:	2b00      	cmp	r3, #0
 8007b38:	d00a      	beq.n	8007b50 <UART_AdvFeatureConfig+0x138>
  {
    assert_param(IS_UART_ADVFEATURE_MSBFIRST(huart->AdvancedInit.MSBFirst));
    MODIFY_REG(huart->Instance->CR2, USART_CR2_MSBFIRST, huart->AdvancedInit.MSBFirst);
 8007b3a:	687b      	ldr	r3, [r7, #4]
 8007b3c:	681b      	ldr	r3, [r3, #0]
 8007b3e:	685b      	ldr	r3, [r3, #4]
 8007b40:	f423 2100 	bic.w	r1, r3, #524288	; 0x80000
 8007b44:	687b      	ldr	r3, [r7, #4]
 8007b46:	6cda      	ldr	r2, [r3, #76]	; 0x4c
 8007b48:	687b      	ldr	r3, [r7, #4]
 8007b4a:	681b      	ldr	r3, [r3, #0]
 8007b4c:	430a      	orrs	r2, r1
 8007b4e:	605a      	str	r2, [r3, #4]
  }
}
 8007b50:	bf00      	nop
 8007b52:	370c      	adds	r7, #12
 8007b54:	46bd      	mov	sp, r7
 8007b56:	f85d 7b04 	ldr.w	r7, [sp], #4
 8007b5a:	4770      	bx	lr

08007b5c <UART_CheckIdleState>:
  * @brief Check the UART Idle State.
  * @param huart UART handle.
  * @retval HAL status
  */
HAL_StatusTypeDef UART_CheckIdleState(UART_HandleTypeDef *huart)
{
 8007b5c:	b580      	push	{r7, lr}
 8007b5e:	b086      	sub	sp, #24
 8007b60:	af02      	add	r7, sp, #8
 8007b62:	6078      	str	r0, [r7, #4]
  uint32_t tickstart;

  /* Initialize the UART ErrorCode */
  huart->ErrorCode = HAL_UART_ERROR_NONE;
 8007b64:	687b      	ldr	r3, [r7, #4]
 8007b66:	2200      	movs	r2, #0
 8007b68:	f8c3 208c 	str.w	r2, [r3, #140]	; 0x8c

  /* Init tickstart for timeout management */
  tickstart = HAL_GetTick();
 8007b6c:	f7fb ffec 	bl	8003b48 <HAL_GetTick>
 8007b70:	60f8      	str	r0, [r7, #12]

  /* Check if the Transmitter is enabled */
  if ((huart->Instance->CR1 & USART_CR1_TE) == USART_CR1_TE)
 8007b72:	687b      	ldr	r3, [r7, #4]
 8007b74:	681b      	ldr	r3, [r3, #0]
 8007b76:	681b      	ldr	r3, [r3, #0]
 8007b78:	f003 0308 	and.w	r3, r3, #8
 8007b7c:	2b08      	cmp	r3, #8
 8007b7e:	d10e      	bne.n	8007b9e <UART_CheckIdleState+0x42>
  {
    /* Wait until TEACK flag is set */
    if (UART_WaitOnFlagUntilTimeout(huart, USART_ISR_TEACK, RESET, tickstart, HAL_UART_TIMEOUT_VALUE) != HAL_OK)
 8007b80:	f06f 437e 	mvn.w	r3, #4261412864	; 0xfe000000
 8007b84:	9300      	str	r3, [sp, #0]
 8007b86:	68fb      	ldr	r3, [r7, #12]
 8007b88:	2200      	movs	r2, #0
 8007b8a:	f44f 1100 	mov.w	r1, #2097152	; 0x200000
 8007b8e:	6878      	ldr	r0, [r7, #4]
 8007b90:	f000 f82f 	bl	8007bf2 <UART_WaitOnFlagUntilTimeout>
 8007b94:	4603      	mov	r3, r0
 8007b96:	2b00      	cmp	r3, #0
 8007b98:	d001      	beq.n	8007b9e <UART_CheckIdleState+0x42>
    {
      /* Timeout occurred */
      return HAL_TIMEOUT;
 8007b9a:	2303      	movs	r3, #3
 8007b9c:	e025      	b.n	8007bea <UART_CheckIdleState+0x8e>
    }
  }

  /* Check if the Receiver is enabled */
  if ((huart->Instance->CR1 & USART_CR1_RE) == USART_CR1_RE)
 8007b9e:	687b      	ldr	r3, [r7, #4]
 8007ba0:	681b      	ldr	r3, [r3, #0]
 8007ba2:	681b      	ldr	r3, [r3, #0]
 8007ba4:	f003 0304 	and.w	r3, r3, #4
 8007ba8:	2b04      	cmp	r3, #4
 8007baa:	d10e      	bne.n	8007bca <UART_CheckIdleState+0x6e>
  {
    /* Wait until REACK flag is set */
    if (UART_WaitOnFlagUntilTimeout(huart, USART_ISR_REACK, RESET, tickstart, HAL_UART_TIMEOUT_VALUE) != HAL_OK)
 8007bac:	f06f 437e 	mvn.w	r3, #4261412864	; 0xfe000000
 8007bb0:	9300      	str	r3, [sp, #0]
 8007bb2:	68fb      	ldr	r3, [r7, #12]
 8007bb4:	2200      	movs	r2, #0
 8007bb6:	f44f 0180 	mov.w	r1, #4194304	; 0x400000
 8007bba:	6878      	ldr	r0, [r7, #4]
 8007bbc:	f000 f819 	bl	8007bf2 <UART_WaitOnFlagUntilTimeout>
 8007bc0:	4603      	mov	r3, r0
 8007bc2:	2b00      	cmp	r3, #0
 8007bc4:	d001      	beq.n	8007bca <UART_CheckIdleState+0x6e>
    {
      /* Timeout occurred */
      return HAL_TIMEOUT;
 8007bc6:	2303      	movs	r3, #3
 8007bc8:	e00f      	b.n	8007bea <UART_CheckIdleState+0x8e>
    }
  }

  /* Initialize the UART State */
  huart->gState = HAL_UART_STATE_READY;
 8007bca:	687b      	ldr	r3, [r7, #4]
 8007bcc:	2220      	movs	r2, #32
 8007bce:	f8c3 2084 	str.w	r2, [r3, #132]	; 0x84
  huart->RxState = HAL_UART_STATE_READY;
 8007bd2:	687b      	ldr	r3, [r7, #4]
 8007bd4:	2220      	movs	r2, #32
 8007bd6:	f8c3 2088 	str.w	r2, [r3, #136]	; 0x88
  huart->ReceptionType = HAL_UART_RECEPTION_STANDARD;
 8007bda:	687b      	ldr	r3, [r7, #4]
 8007bdc:	2200      	movs	r2, #0
 8007bde:	66da      	str	r2, [r3, #108]	; 0x6c

  __HAL_UNLOCK(huart);
 8007be0:	687b      	ldr	r3, [r7, #4]
 8007be2:	2200      	movs	r2, #0
 8007be4:	f883 2080 	strb.w	r2, [r3, #128]	; 0x80

  return HAL_OK;
 8007be8:	2300      	movs	r3, #0
}
 8007bea:	4618      	mov	r0, r3
 8007bec:	3710      	adds	r7, #16
 8007bee:	46bd      	mov	sp, r7
 8007bf0:	bd80      	pop	{r7, pc}

08007bf2 <UART_WaitOnFlagUntilTimeout>:
  * @param Timeout   Timeout duration
  * @retval HAL status
  */
HAL_StatusTypeDef UART_WaitOnFlagUntilTimeout(UART_HandleTypeDef *huart, uint32_t Flag, FlagStatus Status,
                                              uint32_t Tickstart, uint32_t Timeout)
{
 8007bf2:	b580      	push	{r7, lr}
 8007bf4:	b09c      	sub	sp, #112	; 0x70
 8007bf6:	af00      	add	r7, sp, #0
 8007bf8:	60f8      	str	r0, [r7, #12]
 8007bfa:	60b9      	str	r1, [r7, #8]
 8007bfc:	603b      	str	r3, [r7, #0]
 8007bfe:	4613      	mov	r3, r2
 8007c00:	71fb      	strb	r3, [r7, #7]
  /* Wait until flag is set */
  while ((__HAL_UART_GET_FLAG(huart, Flag) ? SET : RESET) == Status)
 8007c02:	e0a9      	b.n	8007d58 <UART_WaitOnFlagUntilTimeout+0x166>
  {
    /* Check for the Timeout */
    if (Timeout != HAL_MAX_DELAY)
 8007c04:	6fbb      	ldr	r3, [r7, #120]	; 0x78
 8007c06:	f1b3 3fff 	cmp.w	r3, #4294967295
 8007c0a:	f000 80a5 	beq.w	8007d58 <UART_WaitOnFlagUntilTimeout+0x166>
    {
      if (((HAL_GetTick() - Tickstart) > Timeout) || (Timeout == 0U))
 8007c0e:	f7fb ff9b 	bl	8003b48 <HAL_GetTick>
 8007c12:	4602      	mov	r2, r0
 8007c14:	683b      	ldr	r3, [r7, #0]
 8007c16:	1ad3      	subs	r3, r2, r3
 8007c18:	6fba      	ldr	r2, [r7, #120]	; 0x78
 8007c1a:	429a      	cmp	r2, r3
 8007c1c:	d302      	bcc.n	8007c24 <UART_WaitOnFlagUntilTimeout+0x32>
 8007c1e:	6fbb      	ldr	r3, [r7, #120]	; 0x78
 8007c20:	2b00      	cmp	r3, #0
 8007c22:	d140      	bne.n	8007ca6 <UART_WaitOnFlagUntilTimeout+0xb4>
      {
        /* Disable TXE, RXNE, PE and ERR (Frame error, noise error, overrun error)
           interrupts for the interrupt process */
        ATOMIC_CLEAR_BIT(huart->Instance->CR1, (USART_CR1_RXNEIE_RXFNEIE | USART_CR1_PEIE |
 8007c24:	68fb      	ldr	r3, [r7, #12]
 8007c26:	681b      	ldr	r3, [r3, #0]
 8007c28:	653b      	str	r3, [r7, #80]	; 0x50
 */
__STATIC_FORCEINLINE uint32_t __LDREXW(volatile uint32_t *addr)
{
    uint32_t result;

   __ASM volatile ("ldrex %0, %1" : "=r" (result) : "Q" (*addr) );
 8007c2a:	6d3b      	ldr	r3, [r7, #80]	; 0x50
 8007c2c:	e853 3f00 	ldrex	r3, [r3]
 8007c30:	64fb      	str	r3, [r7, #76]	; 0x4c
   return(result);
 8007c32:	6cfb      	ldr	r3, [r7, #76]	; 0x4c
 8007c34:	f423 73d0 	bic.w	r3, r3, #416	; 0x1a0
 8007c38:	667b      	str	r3, [r7, #100]	; 0x64
 8007c3a:	68fb      	ldr	r3, [r7, #12]
 8007c3c:	681b      	ldr	r3, [r3, #0]
 8007c3e:	461a      	mov	r2, r3
 8007c40:	6e7b      	ldr	r3, [r7, #100]	; 0x64
 8007c42:	65fb      	str	r3, [r7, #92]	; 0x5c
 8007c44:	65ba      	str	r2, [r7, #88]	; 0x58
 */
__STATIC_FORCEINLINE uint32_t __STREXW(uint32_t value, volatile uint32_t *addr)
{
   uint32_t result;

   __ASM volatile ("strex %0, %2, %1" : "=&r" (result), "=Q" (*addr) : "r" (value) );
 8007c46:	6db9      	ldr	r1, [r7, #88]	; 0x58
 8007c48:	6dfa      	ldr	r2, [r7, #92]	; 0x5c
 8007c4a:	e841 2300 	strex	r3, r2, [r1]
 8007c4e:	657b      	str	r3, [r7, #84]	; 0x54
   return(result);
 8007c50:	6d7b      	ldr	r3, [r7, #84]	; 0x54
 8007c52:	2b00      	cmp	r3, #0
 8007c54:	d1e6      	bne.n	8007c24 <UART_WaitOnFlagUntilTimeout+0x32>
                                                USART_CR1_TXEIE_TXFNFIE));
        ATOMIC_CLEAR_BIT(huart->Instance->CR3, USART_CR3_EIE);
 8007c56:	68fb      	ldr	r3, [r7, #12]
 8007c58:	681b      	ldr	r3, [r3, #0]
 8007c5a:	3308      	adds	r3, #8
 8007c5c:	63fb      	str	r3, [r7, #60]	; 0x3c
   __ASM volatile ("ldrex %0, %1" : "=r" (result) : "Q" (*addr) );
 8007c5e:	6bfb      	ldr	r3, [r7, #60]	; 0x3c
 8007c60:	e853 3f00 	ldrex	r3, [r3]
 8007c64:	63bb      	str	r3, [r7, #56]	; 0x38
   return(result);
 8007c66:	6bbb      	ldr	r3, [r7, #56]	; 0x38
 8007c68:	f023 0301 	bic.w	r3, r3, #1
 8007c6c:	663b      	str	r3, [r7, #96]	; 0x60
 8007c6e:	68fb      	ldr	r3, [r7, #12]
 8007c70:	681b      	ldr	r3, [r3, #0]
 8007c72:	3308      	adds	r3, #8
 8007c74:	6e3a      	ldr	r2, [r7, #96]	; 0x60
 8007c76:	64ba      	str	r2, [r7, #72]	; 0x48
 8007c78:	647b      	str	r3, [r7, #68]	; 0x44
   __ASM volatile ("strex %0, %2, %1" : "=&r" (result), "=Q" (*addr) : "r" (value) );
 8007c7a:	6c79      	ldr	r1, [r7, #68]	; 0x44
 8007c7c:	6cba      	ldr	r2, [r7, #72]	; 0x48
 8007c7e:	e841 2300 	strex	r3, r2, [r1]
 8007c82:	643b      	str	r3, [r7, #64]	; 0x40
   return(result);
 8007c84:	6c3b      	ldr	r3, [r7, #64]	; 0x40
 8007c86:	2b00      	cmp	r3, #0
 8007c88:	d1e5      	bne.n	8007c56 <UART_WaitOnFlagUntilTimeout+0x64>

        huart->gState = HAL_UART_STATE_READY;
 8007c8a:	68fb      	ldr	r3, [r7, #12]
 8007c8c:	2220      	movs	r2, #32
 8007c8e:	f8c3 2084 	str.w	r2, [r3, #132]	; 0x84
        huart->RxState = HAL_UART_STATE_READY;
 8007c92:	68fb      	ldr	r3, [r7, #12]
 8007c94:	2220      	movs	r2, #32
 8007c96:	f8c3 2088 	str.w	r2, [r3, #136]	; 0x88

        __HAL_UNLOCK(huart);
 8007c9a:	68fb      	ldr	r3, [r7, #12]
 8007c9c:	2200      	movs	r2, #0
 8007c9e:	f883 2080 	strb.w	r2, [r3, #128]	; 0x80

        return HAL_TIMEOUT;
 8007ca2:	2303      	movs	r3, #3
 8007ca4:	e069      	b.n	8007d7a <UART_WaitOnFlagUntilTimeout+0x188>
      }

      if (READ_BIT(huart->Instance->CR1, USART_CR1_RE) != 0U)
 8007ca6:	68fb      	ldr	r3, [r7, #12]
 8007ca8:	681b      	ldr	r3, [r3, #0]
 8007caa:	681b      	ldr	r3, [r3, #0]
 8007cac:	f003 0304 	and.w	r3, r3, #4
 8007cb0:	2b00      	cmp	r3, #0
 8007cb2:	d051      	beq.n	8007d58 <UART_WaitOnFlagUntilTimeout+0x166>
      {
        if (__HAL_UART_GET_FLAG(huart, UART_FLAG_RTOF) == SET)
 8007cb4:	68fb      	ldr	r3, [r7, #12]
 8007cb6:	681b      	ldr	r3, [r3, #0]
 8007cb8:	69db      	ldr	r3, [r3, #28]
 8007cba:	f403 6300 	and.w	r3, r3, #2048	; 0x800
 8007cbe:	f5b3 6f00 	cmp.w	r3, #2048	; 0x800
 8007cc2:	d149      	bne.n	8007d58 <UART_WaitOnFlagUntilTimeout+0x166>
        {
          /* Clear Receiver Timeout flag*/
          __HAL_UART_CLEAR_FLAG(huart, UART_CLEAR_RTOF);
 8007cc4:	68fb      	ldr	r3, [r7, #12]
 8007cc6:	681b      	ldr	r3, [r3, #0]
 8007cc8:	f44f 6200 	mov.w	r2, #2048	; 0x800
 8007ccc:	621a      	str	r2, [r3, #32]

          /* Disable TXE, RXNE, PE and ERR (Frame error, noise error, overrun error)
             interrupts for the interrupt process */
          ATOMIC_CLEAR_BIT(huart->Instance->CR1, (USART_CR1_RXNEIE_RXFNEIE | USART_CR1_PEIE |
 8007cce:	68fb      	ldr	r3, [r7, #12]
 8007cd0:	681b      	ldr	r3, [r3, #0]
 8007cd2:	62bb      	str	r3, [r7, #40]	; 0x28
   __ASM volatile ("ldrex %0, %1" : "=r" (result) : "Q" (*addr) );
 8007cd4:	6abb      	ldr	r3, [r7, #40]	; 0x28
 8007cd6:	e853 3f00 	ldrex	r3, [r3]
 8007cda:	627b      	str	r3, [r7, #36]	; 0x24
   return(result);
 8007cdc:	6a7b      	ldr	r3, [r7, #36]	; 0x24
 8007cde:	f423 73d0 	bic.w	r3, r3, #416	; 0x1a0
 8007ce2:	66fb      	str	r3, [r7, #108]	; 0x6c
 8007ce4:	68fb      	ldr	r3, [r7, #12]
 8007ce6:	681b      	ldr	r3, [r3, #0]
 8007ce8:	461a      	mov	r2, r3
 8007cea:	6efb      	ldr	r3, [r7, #108]	; 0x6c
 8007cec:	637b      	str	r3, [r7, #52]	; 0x34
 8007cee:	633a      	str	r2, [r7, #48]	; 0x30
   __ASM volatile ("strex %0, %2, %1" : "=&r" (result), "=Q" (*addr) : "r" (value) );
 8007cf0:	6b39      	ldr	r1, [r7, #48]	; 0x30
 8007cf2:	6b7a      	ldr	r2, [r7, #52]	; 0x34
 8007cf4:	e841 2300 	strex	r3, r2, [r1]
 8007cf8:	62fb      	str	r3, [r7, #44]	; 0x2c
   return(result);
 8007cfa:	6afb      	ldr	r3, [r7, #44]	; 0x2c
 8007cfc:	2b00      	cmp	r3, #0
 8007cfe:	d1e6      	bne.n	8007cce <UART_WaitOnFlagUntilTimeout+0xdc>
                                                  USART_CR1_TXEIE_TXFNFIE));
          ATOMIC_CLEAR_BIT(huart->Instance->CR3, USART_CR3_EIE);
 8007d00:	68fb      	ldr	r3, [r7, #12]
 8007d02:	681b      	ldr	r3, [r3, #0]
 8007d04:	3308      	adds	r3, #8
 8007d06:	617b      	str	r3, [r7, #20]
   __ASM volatile ("ldrex %0, %1" : "=r" (result) : "Q" (*addr) );
 8007d08:	697b      	ldr	r3, [r7, #20]
 8007d0a:	e853 3f00 	ldrex	r3, [r3]
 8007d0e:	613b      	str	r3, [r7, #16]
   return(result);
 8007d10:	693b      	ldr	r3, [r7, #16]
 8007d12:	f023 0301 	bic.w	r3, r3, #1
 8007d16:	66bb      	str	r3, [r7, #104]	; 0x68
 8007d18:	68fb      	ldr	r3, [r7, #12]
 8007d1a:	681b      	ldr	r3, [r3, #0]
 8007d1c:	3308      	adds	r3, #8
 8007d1e:	6eba      	ldr	r2, [r7, #104]	; 0x68
 8007d20:	623a      	str	r2, [r7, #32]
 8007d22:	61fb      	str	r3, [r7, #28]
   __ASM volatile ("strex %0, %2, %1" : "=&r" (result), "=Q" (*addr) : "r" (value) );
 8007d24:	69f9      	ldr	r1, [r7, #28]
 8007d26:	6a3a      	ldr	r2, [r7, #32]
 8007d28:	e841 2300 	strex	r3, r2, [r1]
 8007d2c:	61bb      	str	r3, [r7, #24]
   return(result);
 8007d2e:	69bb      	ldr	r3, [r7, #24]
 8007d30:	2b00      	cmp	r3, #0
 8007d32:	d1e5      	bne.n	8007d00 <UART_WaitOnFlagUntilTimeout+0x10e>

          huart->gState = HAL_UART_STATE_READY;
 8007d34:	68fb      	ldr	r3, [r7, #12]
 8007d36:	2220      	movs	r2, #32
 8007d38:	f8c3 2084 	str.w	r2, [r3, #132]	; 0x84
          huart->RxState = HAL_UART_STATE_READY;
 8007d3c:	68fb      	ldr	r3, [r7, #12]
 8007d3e:	2220      	movs	r2, #32
 8007d40:	f8c3 2088 	str.w	r2, [r3, #136]	; 0x88
          huart->ErrorCode = HAL_UART_ERROR_RTO;
 8007d44:	68fb      	ldr	r3, [r7, #12]
 8007d46:	2220      	movs	r2, #32
 8007d48:	f8c3 208c 	str.w	r2, [r3, #140]	; 0x8c

          /* Process Unlocked */
          __HAL_UNLOCK(huart);
 8007d4c:	68fb      	ldr	r3, [r7, #12]
 8007d4e:	2200      	movs	r2, #0
 8007d50:	f883 2080 	strb.w	r2, [r3, #128]	; 0x80

          return HAL_TIMEOUT;
 8007d54:	2303      	movs	r3, #3
 8007d56:	e010      	b.n	8007d7a <UART_WaitOnFlagUntilTimeout+0x188>
  while ((__HAL_UART_GET_FLAG(huart, Flag) ? SET : RESET) == Status)
 8007d58:	68fb      	ldr	r3, [r7, #12]
 8007d5a:	681b      	ldr	r3, [r3, #0]
 8007d5c:	69da      	ldr	r2, [r3, #28]
 8007d5e:	68bb      	ldr	r3, [r7, #8]
 8007d60:	4013      	ands	r3, r2
 8007d62:	68ba      	ldr	r2, [r7, #8]
 8007d64:	429a      	cmp	r2, r3
 8007d66:	bf0c      	ite	eq
 8007d68:	2301      	moveq	r3, #1
 8007d6a:	2300      	movne	r3, #0
 8007d6c:	b2db      	uxtb	r3, r3
 8007d6e:	461a      	mov	r2, r3
 8007d70:	79fb      	ldrb	r3, [r7, #7]
 8007d72:	429a      	cmp	r2, r3
 8007d74:	f43f af46 	beq.w	8007c04 <UART_WaitOnFlagUntilTimeout+0x12>
        }
      }
    }
  }
  return HAL_OK;
 8007d78:	2300      	movs	r3, #0
}
 8007d7a:	4618      	mov	r0, r3
 8007d7c:	3770      	adds	r7, #112	; 0x70
 8007d7e:	46bd      	mov	sp, r7
 8007d80:	bd80      	pop	{r7, pc}

08007d82 <HAL_UARTEx_DisableFifoMode>:
  * @brief  Disable the FIFO mode.
  * @param huart      UART handle.
  * @retval HAL status
  */
HAL_StatusTypeDef HAL_UARTEx_DisableFifoMode(UART_HandleTypeDef *huart)
{
 8007d82:	b480      	push	{r7}
 8007d84:	b085      	sub	sp, #20
 8007d86:	af00      	add	r7, sp, #0
 8007d88:	6078      	str	r0, [r7, #4]

  /* Check parameters */
  assert_param(IS_UART_FIFO_INSTANCE(huart->Instance));

  /* Process Locked */
  __HAL_LOCK(huart);
 8007d8a:	687b      	ldr	r3, [r7, #4]
 8007d8c:	f893 3080 	ldrb.w	r3, [r3, #128]	; 0x80
 8007d90:	2b01      	cmp	r3, #1
 8007d92:	d101      	bne.n	8007d98 <HAL_UARTEx_DisableFifoMode+0x16>
 8007d94:	2302      	movs	r3, #2
 8007d96:	e027      	b.n	8007de8 <HAL_UARTEx_DisableFifoMode+0x66>
 8007d98:	687b      	ldr	r3, [r7, #4]
 8007d9a:	2201      	movs	r2, #1
 8007d9c:	f883 2080 	strb.w	r2, [r3, #128]	; 0x80

  huart->gState = HAL_UART_STATE_BUSY;
 8007da0:	687b      	ldr	r3, [r7, #4]
 8007da2:	2224      	movs	r2, #36	; 0x24
 8007da4:	f8c3 2084 	str.w	r2, [r3, #132]	; 0x84

  /* Save actual UART configuration */
  tmpcr1 = READ_REG(huart->Instance->CR1);
 8007da8:	687b      	ldr	r3, [r7, #4]
 8007daa:	681b      	ldr	r3, [r3, #0]
 8007dac:	681b      	ldr	r3, [r3, #0]
 8007dae:	60fb      	str	r3, [r7, #12]

  /* Disable UART */
  __HAL_UART_DISABLE(huart);
 8007db0:	687b      	ldr	r3, [r7, #4]
 8007db2:	681b      	ldr	r3, [r3, #0]
 8007db4:	681a      	ldr	r2, [r3, #0]
 8007db6:	687b      	ldr	r3, [r7, #4]
 8007db8:	681b      	ldr	r3, [r3, #0]
 8007dba:	f022 0201 	bic.w	r2, r2, #1
 8007dbe:	601a      	str	r2, [r3, #0]

  /* Enable FIFO mode */
  CLEAR_BIT(tmpcr1, USART_CR1_FIFOEN);
 8007dc0:	68fb      	ldr	r3, [r7, #12]
 8007dc2:	f023 5300 	bic.w	r3, r3, #536870912	; 0x20000000
 8007dc6:	60fb      	str	r3, [r7, #12]
  huart->FifoMode = UART_FIFOMODE_DISABLE;
 8007dc8:	687b      	ldr	r3, [r7, #4]
 8007dca:	2200      	movs	r2, #0
 8007dcc:	665a      	str	r2, [r3, #100]	; 0x64

  /* Restore UART configuration */
  WRITE_REG(huart->Instance->CR1, tmpcr1);
 8007dce:	687b      	ldr	r3, [r7, #4]
 8007dd0:	681b      	ldr	r3, [r3, #0]
 8007dd2:	68fa      	ldr	r2, [r7, #12]
 8007dd4:	601a      	str	r2, [r3, #0]

  huart->gState = HAL_UART_STATE_READY;
 8007dd6:	687b      	ldr	r3, [r7, #4]
 8007dd8:	2220      	movs	r2, #32
 8007dda:	f8c3 2084 	str.w	r2, [r3, #132]	; 0x84

  /* Process Unlocked */
  __HAL_UNLOCK(huart);
 8007dde:	687b      	ldr	r3, [r7, #4]
 8007de0:	2200      	movs	r2, #0
 8007de2:	f883 2080 	strb.w	r2, [r3, #128]	; 0x80

  return HAL_OK;
 8007de6:	2300      	movs	r3, #0
}
 8007de8:	4618      	mov	r0, r3
 8007dea:	3714      	adds	r7, #20
 8007dec:	46bd      	mov	sp, r7
 8007dee:	f85d 7b04 	ldr.w	r7, [sp], #4
 8007df2:	4770      	bx	lr

08007df4 <HAL_UARTEx_SetTxFifoThreshold>:
  *            @arg @ref UART_TXFIFO_THRESHOLD_7_8
  *            @arg @ref UART_TXFIFO_THRESHOLD_8_8
  * @retval HAL status
  */
HAL_StatusTypeDef HAL_UARTEx_SetTxFifoThreshold(UART_HandleTypeDef *huart, uint32_t Threshold)
{
 8007df4:	b580      	push	{r7, lr}
 8007df6:	b084      	sub	sp, #16
 8007df8:	af00      	add	r7, sp, #0
 8007dfa:	6078      	str	r0, [r7, #4]
 8007dfc:	6039      	str	r1, [r7, #0]
  /* Check parameters */
  assert_param(IS_UART_FIFO_INSTANCE(huart->Instance));
  assert_param(IS_UART_TXFIFO_THRESHOLD(Threshold));

  /* Process Locked */
  __HAL_LOCK(huart);
 8007dfe:	687b      	ldr	r3, [r7, #4]
 8007e00:	f893 3080 	ldrb.w	r3, [r3, #128]	; 0x80
 8007e04:	2b01      	cmp	r3, #1
 8007e06:	d101      	bne.n	8007e0c <HAL_UARTEx_SetTxFifoThreshold+0x18>
 8007e08:	2302      	movs	r3, #2
 8007e0a:	e02d      	b.n	8007e68 <HAL_UARTEx_SetTxFifoThreshold+0x74>
 8007e0c:	687b      	ldr	r3, [r7, #4]
 8007e0e:	2201      	movs	r2, #1
 8007e10:	f883 2080 	strb.w	r2, [r3, #128]	; 0x80

  huart->gState = HAL_UART_STATE_BUSY;
 8007e14:	687b      	ldr	r3, [r7, #4]
 8007e16:	2224      	movs	r2, #36	; 0x24
 8007e18:	f8c3 2084 	str.w	r2, [r3, #132]	; 0x84

  /* Save actual UART configuration */
  tmpcr1 = READ_REG(huart->Instance->CR1);
 8007e1c:	687b      	ldr	r3, [r7, #4]
 8007e1e:	681b      	ldr	r3, [r3, #0]
 8007e20:	681b      	ldr	r3, [r3, #0]
 8007e22:	60fb      	str	r3, [r7, #12]

  /* Disable UART */
  __HAL_UART_DISABLE(huart);
 8007e24:	687b      	ldr	r3, [r7, #4]
 8007e26:	681b      	ldr	r3, [r3, #0]
 8007e28:	681a      	ldr	r2, [r3, #0]
 8007e2a:	687b      	ldr	r3, [r7, #4]
 8007e2c:	681b      	ldr	r3, [r3, #0]
 8007e2e:	f022 0201 	bic.w	r2, r2, #1
 8007e32:	601a      	str	r2, [r3, #0]

  /* Update TX threshold configuration */
  MODIFY_REG(huart->Instance->CR3, USART_CR3_TXFTCFG, Threshold);
 8007e34:	687b      	ldr	r3, [r7, #4]
 8007e36:	681b      	ldr	r3, [r3, #0]
 8007e38:	689b      	ldr	r3, [r3, #8]
 8007e3a:	f023 4160 	bic.w	r1, r3, #3758096384	; 0xe0000000
 8007e3e:	687b      	ldr	r3, [r7, #4]
 8007e40:	681b      	ldr	r3, [r3, #0]
 8007e42:	683a      	ldr	r2, [r7, #0]
 8007e44:	430a      	orrs	r2, r1
 8007e46:	609a      	str	r2, [r3, #8]

  /* Determine the number of data to process during RX/TX ISR execution */
  UARTEx_SetNbDataToProcess(huart);
 8007e48:	6878      	ldr	r0, [r7, #4]
 8007e4a:	f000 f84f 	bl	8007eec <UARTEx_SetNbDataToProcess>

  /* Restore UART configuration */
  WRITE_REG(huart->Instance->CR1, tmpcr1);
 8007e4e:	687b      	ldr	r3, [r7, #4]
 8007e50:	681b      	ldr	r3, [r3, #0]
 8007e52:	68fa      	ldr	r2, [r7, #12]
 8007e54:	601a      	str	r2, [r3, #0]

  huart->gState = HAL_UART_STATE_READY;
 8007e56:	687b      	ldr	r3, [r7, #4]
 8007e58:	2220      	movs	r2, #32
 8007e5a:	f8c3 2084 	str.w	r2, [r3, #132]	; 0x84

  /* Process Unlocked */
  __HAL_UNLOCK(huart);
 8007e5e:	687b      	ldr	r3, [r7, #4]
 8007e60:	2200      	movs	r2, #0
 8007e62:	f883 2080 	strb.w	r2, [r3, #128]	; 0x80

  return HAL_OK;
 8007e66:	2300      	movs	r3, #0
}
 8007e68:	4618      	mov	r0, r3
 8007e6a:	3710      	adds	r7, #16
 8007e6c:	46bd      	mov	sp, r7
 8007e6e:	bd80      	pop	{r7, pc}

08007e70 <HAL_UARTEx_SetRxFifoThreshold>:
  *            @arg @ref UART_RXFIFO_THRESHOLD_7_8
  *            @arg @ref UART_RXFIFO_THRESHOLD_8_8
  * @retval HAL status
  */
HAL_StatusTypeDef HAL_UARTEx_SetRxFifoThreshold(UART_HandleTypeDef *huart, uint32_t Threshold)
{
 8007e70:	b580      	push	{r7, lr}
 8007e72:	b084      	sub	sp, #16
 8007e74:	af00      	add	r7, sp, #0
 8007e76:	6078      	str	r0, [r7, #4]
 8007e78:	6039      	str	r1, [r7, #0]
  /* Check the parameters */
  assert_param(IS_UART_FIFO_INSTANCE(huart->Instance));
  assert_param(IS_UART_RXFIFO_THRESHOLD(Threshold));

  /* Process Locked */
  __HAL_LOCK(huart);
 8007e7a:	687b      	ldr	r3, [r7, #4]
 8007e7c:	f893 3080 	ldrb.w	r3, [r3, #128]	; 0x80
 8007e80:	2b01      	cmp	r3, #1
 8007e82:	d101      	bne.n	8007e88 <HAL_UARTEx_SetRxFifoThreshold+0x18>
 8007e84:	2302      	movs	r3, #2
 8007e86:	e02d      	b.n	8007ee4 <HAL_UARTEx_SetRxFifoThreshold+0x74>
 8007e88:	687b      	ldr	r3, [r7, #4]
 8007e8a:	2201      	movs	r2, #1
 8007e8c:	f883 2080 	strb.w	r2, [r3, #128]	; 0x80

  huart->gState = HAL_UART_STATE_BUSY;
 8007e90:	687b      	ldr	r3, [r7, #4]
 8007e92:	2224      	movs	r2, #36	; 0x24
 8007e94:	f8c3 2084 	str.w	r2, [r3, #132]	; 0x84

  /* Save actual UART configuration */
  tmpcr1 = READ_REG(huart->Instance->CR1);
 8007e98:	687b      	ldr	r3, [r7, #4]
 8007e9a:	681b      	ldr	r3, [r3, #0]
 8007e9c:	681b      	ldr	r3, [r3, #0]
 8007e9e:	60fb      	str	r3, [r7, #12]

  /* Disable UART */
  __HAL_UART_DISABLE(huart);
 8007ea0:	687b      	ldr	r3, [r7, #4]
 8007ea2:	681b      	ldr	r3, [r3, #0]
 8007ea4:	681a      	ldr	r2, [r3, #0]
 8007ea6:	687b      	ldr	r3, [r7, #4]
 8007ea8:	681b      	ldr	r3, [r3, #0]
 8007eaa:	f022 0201 	bic.w	r2, r2, #1
 8007eae:	601a      	str	r2, [r3, #0]

  /* Update RX threshold configuration */
  MODIFY_REG(huart->Instance->CR3, USART_CR3_RXFTCFG, Threshold);
 8007eb0:	687b      	ldr	r3, [r7, #4]
 8007eb2:	681b      	ldr	r3, [r3, #0]
 8007eb4:	689b      	ldr	r3, [r3, #8]
 8007eb6:	f023 6160 	bic.w	r1, r3, #234881024	; 0xe000000
 8007eba:	687b      	ldr	r3, [r7, #4]
 8007ebc:	681b      	ldr	r3, [r3, #0]
 8007ebe:	683a      	ldr	r2, [r7, #0]
 8007ec0:	430a      	orrs	r2, r1
 8007ec2:	609a      	str	r2, [r3, #8]

  /* Determine the number of data to process during RX/TX ISR execution */
  UARTEx_SetNbDataToProcess(huart);
 8007ec4:	6878      	ldr	r0, [r7, #4]
 8007ec6:	f000 f811 	bl	8007eec <UARTEx_SetNbDataToProcess>

  /* Restore UART configuration */
  WRITE_REG(huart->Instance->CR1, tmpcr1);
 8007eca:	687b      	ldr	r3, [r7, #4]
 8007ecc:	681b      	ldr	r3, [r3, #0]
 8007ece:	68fa      	ldr	r2, [r7, #12]
 8007ed0:	601a      	str	r2, [r3, #0]

  huart->gState = HAL_UART_STATE_READY;
 8007ed2:	687b      	ldr	r3, [r7, #4]
 8007ed4:	2220      	movs	r2, #32
 8007ed6:	f8c3 2084 	str.w	r2, [r3, #132]	; 0x84

  /* Process Unlocked */
  __HAL_UNLOCK(huart);
 8007eda:	687b      	ldr	r3, [r7, #4]
 8007edc:	2200      	movs	r2, #0
 8007ede:	f883 2080 	strb.w	r2, [r3, #128]	; 0x80

  return HAL_OK;
 8007ee2:	2300      	movs	r3, #0
}
 8007ee4:	4618      	mov	r0, r3
 8007ee6:	3710      	adds	r7, #16
 8007ee8:	46bd      	mov	sp, r7
 8007eea:	bd80      	pop	{r7, pc}

08007eec <UARTEx_SetNbDataToProcess>:
  *       the UART configuration registers.
  * @param huart UART handle.
  * @retval None
  */
static void UARTEx_SetNbDataToProcess(UART_HandleTypeDef *huart)
{
 8007eec:	b480      	push	{r7}
 8007eee:	b085      	sub	sp, #20
 8007ef0:	af00      	add	r7, sp, #0
 8007ef2:	6078      	str	r0, [r7, #4]
  uint8_t rx_fifo_threshold;
  uint8_t tx_fifo_threshold;
  static const uint8_t numerator[] = {1U, 1U, 1U, 3U, 7U, 1U, 0U, 0U};
  static const uint8_t denominator[] = {8U, 4U, 2U, 4U, 8U, 1U, 1U, 1U};

  if (huart->FifoMode == UART_FIFOMODE_DISABLE)
 8007ef4:	687b      	ldr	r3, [r7, #4]
 8007ef6:	6e5b      	ldr	r3, [r3, #100]	; 0x64
 8007ef8:	2b00      	cmp	r3, #0
 8007efa:	d108      	bne.n	8007f0e <UARTEx_SetNbDataToProcess+0x22>
  {
    huart->NbTxDataToProcess = 1U;
 8007efc:	687b      	ldr	r3, [r7, #4]
 8007efe:	2201      	movs	r2, #1
 8007f00:	f8a3 206a 	strh.w	r2, [r3, #106]	; 0x6a
    huart->NbRxDataToProcess = 1U;
 8007f04:	687b      	ldr	r3, [r7, #4]
 8007f06:	2201      	movs	r2, #1
 8007f08:	f8a3 2068 	strh.w	r2, [r3, #104]	; 0x68
    huart->NbTxDataToProcess = ((uint16_t)tx_fifo_depth * numerator[tx_fifo_threshold]) /
                               (uint16_t)denominator[tx_fifo_threshold];
    huart->NbRxDataToProcess = ((uint16_t)rx_fifo_depth * numerator[rx_fifo_threshold]) /
                               (uint16_t)denominator[rx_fifo_threshold];
  }
}
 8007f0c:	e031      	b.n	8007f72 <UARTEx_SetNbDataToProcess+0x86>
    rx_fifo_depth = RX_FIFO_DEPTH;
 8007f0e:	2310      	movs	r3, #16
 8007f10:	73fb      	strb	r3, [r7, #15]
    tx_fifo_depth = TX_FIFO_DEPTH;
 8007f12:	2310      	movs	r3, #16
 8007f14:	73bb      	strb	r3, [r7, #14]
    rx_fifo_threshold = (uint8_t)(READ_BIT(huart->Instance->CR3, USART_CR3_RXFTCFG) >> USART_CR3_RXFTCFG_Pos);
 8007f16:	687b      	ldr	r3, [r7, #4]
 8007f18:	681b      	ldr	r3, [r3, #0]
 8007f1a:	689b      	ldr	r3, [r3, #8]
 8007f1c:	0e5b      	lsrs	r3, r3, #25
 8007f1e:	b2db      	uxtb	r3, r3
 8007f20:	f003 0307 	and.w	r3, r3, #7
 8007f24:	737b      	strb	r3, [r7, #13]
    tx_fifo_threshold = (uint8_t)(READ_BIT(huart->Instance->CR3, USART_CR3_TXFTCFG) >> USART_CR3_TXFTCFG_Pos);
 8007f26:	687b      	ldr	r3, [r7, #4]
 8007f28:	681b      	ldr	r3, [r3, #0]
 8007f2a:	689b      	ldr	r3, [r3, #8]
 8007f2c:	0f5b      	lsrs	r3, r3, #29
 8007f2e:	b2db      	uxtb	r3, r3
 8007f30:	f003 0307 	and.w	r3, r3, #7
 8007f34:	733b      	strb	r3, [r7, #12]
    huart->NbTxDataToProcess = ((uint16_t)tx_fifo_depth * numerator[tx_fifo_threshold]) /
 8007f36:	7bbb      	ldrb	r3, [r7, #14]
 8007f38:	7b3a      	ldrb	r2, [r7, #12]
 8007f3a:	4911      	ldr	r1, [pc, #68]	; (8007f80 <UARTEx_SetNbDataToProcess+0x94>)
 8007f3c:	5c8a      	ldrb	r2, [r1, r2]
 8007f3e:	fb02 f303 	mul.w	r3, r2, r3
                               (uint16_t)denominator[tx_fifo_threshold];
 8007f42:	7b3a      	ldrb	r2, [r7, #12]
 8007f44:	490f      	ldr	r1, [pc, #60]	; (8007f84 <UARTEx_SetNbDataToProcess+0x98>)
 8007f46:	5c8a      	ldrb	r2, [r1, r2]
    huart->NbTxDataToProcess = ((uint16_t)tx_fifo_depth * numerator[tx_fifo_threshold]) /
 8007f48:	fb93 f3f2 	sdiv	r3, r3, r2
 8007f4c:	b29a      	uxth	r2, r3
 8007f4e:	687b      	ldr	r3, [r7, #4]
 8007f50:	f8a3 206a 	strh.w	r2, [r3, #106]	; 0x6a
    huart->NbRxDataToProcess = ((uint16_t)rx_fifo_depth * numerator[rx_fifo_threshold]) /
 8007f54:	7bfb      	ldrb	r3, [r7, #15]
 8007f56:	7b7a      	ldrb	r2, [r7, #13]
 8007f58:	4909      	ldr	r1, [pc, #36]	; (8007f80 <UARTEx_SetNbDataToProcess+0x94>)
 8007f5a:	5c8a      	ldrb	r2, [r1, r2]
 8007f5c:	fb02 f303 	mul.w	r3, r2, r3
                               (uint16_t)denominator[rx_fifo_threshold];
 8007f60:	7b7a      	ldrb	r2, [r7, #13]
 8007f62:	4908      	ldr	r1, [pc, #32]	; (8007f84 <UARTEx_SetNbDataToProcess+0x98>)
 8007f64:	5c8a      	ldrb	r2, [r1, r2]
    huart->NbRxDataToProcess = ((uint16_t)rx_fifo_depth * numerator[rx_fifo_threshold]) /
 8007f66:	fb93 f3f2 	sdiv	r3, r3, r2
 8007f6a:	b29a      	uxth	r2, r3
 8007f6c:	687b      	ldr	r3, [r7, #4]
 8007f6e:	f8a3 2068 	strh.w	r2, [r3, #104]	; 0x68
}
 8007f72:	bf00      	nop
 8007f74:	3714      	adds	r7, #20
 8007f76:	46bd      	mov	sp, r7
 8007f78:	f85d 7b04 	ldr.w	r7, [sp], #4
 8007f7c:	4770      	bx	lr
 8007f7e:	bf00      	nop
 8007f80:	080198b4 	.word	0x080198b4
 8007f84:	080198bc 	.word	0x080198bc

08007f88 <__libc_init_array>:
 8007f88:	b570      	push	{r4, r5, r6, lr}
 8007f8a:	4d0d      	ldr	r5, [pc, #52]	; (8007fc0 <__libc_init_array+0x38>)
 8007f8c:	4c0d      	ldr	r4, [pc, #52]	; (8007fc4 <__libc_init_array+0x3c>)
 8007f8e:	1b64      	subs	r4, r4, r5
 8007f90:	10a4      	asrs	r4, r4, #2
 8007f92:	2600      	movs	r6, #0
 8007f94:	42a6      	cmp	r6, r4
 8007f96:	d109      	bne.n	8007fac <__libc_init_array+0x24>
 8007f98:	4d0b      	ldr	r5, [pc, #44]	; (8007fc8 <__libc_init_array+0x40>)
 8007f9a:	4c0c      	ldr	r4, [pc, #48]	; (8007fcc <__libc_init_array+0x44>)
 8007f9c:	f000 f862 	bl	8008064 <_init>
 8007fa0:	1b64      	subs	r4, r4, r5
 8007fa2:	10a4      	asrs	r4, r4, #2
 8007fa4:	2600      	movs	r6, #0
 8007fa6:	42a6      	cmp	r6, r4
 8007fa8:	d105      	bne.n	8007fb6 <__libc_init_array+0x2e>
 8007faa:	bd70      	pop	{r4, r5, r6, pc}
 8007fac:	f855 3b04 	ldr.w	r3, [r5], #4
 8007fb0:	4798      	blx	r3
 8007fb2:	3601      	adds	r6, #1
 8007fb4:	e7ee      	b.n	8007f94 <__libc_init_array+0xc>
 8007fb6:	f855 3b04 	ldr.w	r3, [r5], #4
 8007fba:	4798      	blx	r3
 8007fbc:	3601      	adds	r6, #1
 8007fbe:	e7f2      	b.n	8007fa6 <__libc_init_array+0x1e>
 8007fc0:	080198cc 	.word	0x080198cc
 8007fc4:	080198cc 	.word	0x080198cc
 8007fc8:	080198cc 	.word	0x080198cc
 8007fcc:	080198d0 	.word	0x080198d0

08007fd0 <memset>:
 8007fd0:	4402      	add	r2, r0
 8007fd2:	4603      	mov	r3, r0
 8007fd4:	4293      	cmp	r3, r2
 8007fd6:	d100      	bne.n	8007fda <memset+0xa>
 8007fd8:	4770      	bx	lr
 8007fda:	f803 1b01 	strb.w	r1, [r3], #1
 8007fde:	e7f9      	b.n	8007fd4 <memset+0x4>

08007fe0 <ceilf>:
 8007fe0:	ee10 3a10 	vmov	r3, s0
 8007fe4:	f3c3 52c7 	ubfx	r2, r3, #23, #8
 8007fe8:	3a7f      	subs	r2, #127	; 0x7f
 8007fea:	2a16      	cmp	r2, #22
 8007fec:	f023 4100 	bic.w	r1, r3, #2147483648	; 0x80000000
 8007ff0:	dc2a      	bgt.n	8008048 <ceilf+0x68>
 8007ff2:	2a00      	cmp	r2, #0
 8007ff4:	da11      	bge.n	800801a <ceilf+0x3a>
 8007ff6:	eddf 7a19 	vldr	s15, [pc, #100]	; 800805c <ceilf+0x7c>
 8007ffa:	ee30 0a27 	vadd.f32	s0, s0, s15
 8007ffe:	eeb5 0ac0 	vcmpe.f32	s0, #0.0
 8008002:	eef1 fa10 	vmrs	APSR_nzcv, fpscr
 8008006:	dd05      	ble.n	8008014 <ceilf+0x34>
 8008008:	2b00      	cmp	r3, #0
 800800a:	db23      	blt.n	8008054 <ceilf+0x74>
 800800c:	2900      	cmp	r1, #0
 800800e:	bf18      	it	ne
 8008010:	f04f 537e 	movne.w	r3, #1065353216	; 0x3f800000
 8008014:	ee00 3a10 	vmov	s0, r3
 8008018:	4770      	bx	lr
 800801a:	4911      	ldr	r1, [pc, #68]	; (8008060 <ceilf+0x80>)
 800801c:	4111      	asrs	r1, r2
 800801e:	420b      	tst	r3, r1
 8008020:	d0fa      	beq.n	8008018 <ceilf+0x38>
 8008022:	eddf 7a0e 	vldr	s15, [pc, #56]	; 800805c <ceilf+0x7c>
 8008026:	ee30 0a27 	vadd.f32	s0, s0, s15
 800802a:	eeb5 0ac0 	vcmpe.f32	s0, #0.0
 800802e:	eef1 fa10 	vmrs	APSR_nzcv, fpscr
 8008032:	ddef      	ble.n	8008014 <ceilf+0x34>
 8008034:	2b00      	cmp	r3, #0
 8008036:	bfc2      	ittt	gt
 8008038:	f44f 0000 	movgt.w	r0, #8388608	; 0x800000
 800803c:	fa40 f202 	asrgt.w	r2, r0, r2
 8008040:	189b      	addgt	r3, r3, r2
 8008042:	ea23 0301 	bic.w	r3, r3, r1
 8008046:	e7e5      	b.n	8008014 <ceilf+0x34>
 8008048:	f1b1 4fff 	cmp.w	r1, #2139095040	; 0x7f800000
 800804c:	d3e4      	bcc.n	8008018 <ceilf+0x38>
 800804e:	ee30 0a00 	vadd.f32	s0, s0, s0
 8008052:	4770      	bx	lr
 8008054:	f04f 4300 	mov.w	r3, #2147483648	; 0x80000000
 8008058:	e7dc      	b.n	8008014 <ceilf+0x34>
 800805a:	bf00      	nop
 800805c:	7149f2ca 	.word	0x7149f2ca
 8008060:	007fffff 	.word	0x007fffff

08008064 <_init>:
 8008064:	b5f8      	push	{r3, r4, r5, r6, r7, lr}
 8008066:	bf00      	nop
 8008068:	bcf8      	pop	{r3, r4, r5, r6, r7}
 800806a:	bc08      	pop	{r3}
 800806c:	469e      	mov	lr, r3
 800806e:	4770      	bx	lr

08008070 <_fini>:
 8008070:	b5f8      	push	{r3, r4, r5, r6, r7, lr}
 8008072:	bf00      	nop
 8008074:	bcf8      	pop	{r3, r4, r5, r6, r7}
 8008076:	bc08      	pop	{r3}
 8008078:	469e      	mov	lr, r3
 800807a:	4770      	bx	lr
